
ATmega162.elf:     file format elf32-avr

Sections:
Idx Name          Size      VMA       LMA       File off  Algn
  0 .data         000000c6  00800100  000012c6  0000135a  2**0
                  CONTENTS, ALLOC, LOAD, DATA
  1 .text         000012c6  00000000  00000000  00000094  2**1
                  CONTENTS, ALLOC, LOAD, READONLY, CODE
  2 .bss          0000001f  008001c6  008001c6  00001420  2**0
                  ALLOC
  3 .comment      00000030  00000000  00000000  00001420  2**0
                  CONTENTS, READONLY
  4 .note.gnu.avr.deviceinfo 0000003c  00000000  00000000  00001450  2**2
                  CONTENTS, READONLY
  5 .debug_aranges 00000290  00000000  00000000  0000148c  2**0
                  CONTENTS, READONLY, DEBUGGING
  6 .debug_info   00003189  00000000  00000000  0000171c  2**0
                  CONTENTS, READONLY, DEBUGGING
  7 .debug_abbrev 000011f3  00000000  00000000  000048a5  2**0
                  CONTENTS, READONLY, DEBUGGING
  8 .debug_line   00001636  00000000  00000000  00005a98  2**0
                  CONTENTS, READONLY, DEBUGGING
  9 .debug_frame  00000798  00000000  00000000  000070d0  2**2
                  CONTENTS, READONLY, DEBUGGING
 10 .debug_str    00000b46  00000000  00000000  00007868  2**0
                  CONTENTS, READONLY, DEBUGGING
 11 .debug_loc    00001ea2  00000000  00000000  000083ae  2**0
                  CONTENTS, READONLY, DEBUGGING
 12 .debug_ranges 00000248  00000000  00000000  0000a250  2**0
                  CONTENTS, READONLY, DEBUGGING

Disassembly of section .text:

00000000 <__vectors>:
       0:	0c 94 34 02 	jmp	0x468	; 0x468 <__ctors_end>
       4:	0c 94 51 02 	jmp	0x4a2	; 0x4a2 <__bad_interrupt>
       8:	0c 94 51 02 	jmp	0x4a2	; 0x4a2 <__bad_interrupt>
       c:	0c 94 51 02 	jmp	0x4a2	; 0x4a2 <__bad_interrupt>
      10:	0c 94 51 02 	jmp	0x4a2	; 0x4a2 <__bad_interrupt>
      14:	0c 94 51 02 	jmp	0x4a2	; 0x4a2 <__bad_interrupt>
      18:	0c 94 51 02 	jmp	0x4a2	; 0x4a2 <__bad_interrupt>
      1c:	0c 94 51 02 	jmp	0x4a2	; 0x4a2 <__bad_interrupt>
      20:	0c 94 51 02 	jmp	0x4a2	; 0x4a2 <__bad_interrupt>
      24:	0c 94 51 02 	jmp	0x4a2	; 0x4a2 <__bad_interrupt>
      28:	0c 94 51 02 	jmp	0x4a2	; 0x4a2 <__bad_interrupt>
      2c:	0c 94 51 02 	jmp	0x4a2	; 0x4a2 <__bad_interrupt>
      30:	0c 94 51 02 	jmp	0x4a2	; 0x4a2 <__bad_interrupt>
      34:	0c 94 51 02 	jmp	0x4a2	; 0x4a2 <__bad_interrupt>
      38:	0c 94 51 02 	jmp	0x4a2	; 0x4a2 <__bad_interrupt>
      3c:	0c 94 41 08 	jmp	0x1082	; 0x1082 <__vector_15>
      40:	0c 94 51 02 	jmp	0x4a2	; 0x4a2 <__bad_interrupt>
      44:	0c 94 51 02 	jmp	0x4a2	; 0x4a2 <__bad_interrupt>
      48:	0c 94 51 02 	jmp	0x4a2	; 0x4a2 <__bad_interrupt>
      4c:	0c 94 7e 02 	jmp	0x4fc	; 0x4fc <__vector_19>
      50:	0c 94 51 02 	jmp	0x4a2	; 0x4a2 <__bad_interrupt>
      54:	0c 94 51 02 	jmp	0x4a2	; 0x4a2 <__bad_interrupt>
      58:	0c 94 51 02 	jmp	0x4a2	; 0x4a2 <__bad_interrupt>
      5c:	0c 94 51 02 	jmp	0x4a2	; 0x4a2 <__bad_interrupt>
      60:	0c 94 51 02 	jmp	0x4a2	; 0x4a2 <__bad_interrupt>
      64:	0c 94 51 02 	jmp	0x4a2	; 0x4a2 <__bad_interrupt>
      68:	0c 94 51 02 	jmp	0x4a2	; 0x4a2 <__bad_interrupt>
      6c:	0c 94 51 02 	jmp	0x4a2	; 0x4a2 <__bad_interrupt>

00000070 <__trampolines_end>:
      70:	20 20       	and	r2, r0
      72:	20 79       	andi	r18, 0x90	; 144
      74:	61 70       	andi	r22, 0x01	; 1
      76:	40 40       	sbci	r20, 0x00	; 0
      78:	40 2a       	or	r4, r16
      7a:	20 20       	and	r2, r0
      7c:	20 20       	and	r2, r0
      7e:	20 20       	and	r2, r0
      80:	20 20       	and	r2, r0
      82:	20 23       	and	r18, r16
      84:	40 40       	sbci	r20, 0x00	; 0
      86:	40 23       	and	r20, r16
      88:	20 20       	and	r2, r0
      8a:	20 2a       	or	r2, r16
      8c:	23 20       	and	r2, r3
      8e:	20 20       	and	r2, r0
      90:	20 20       	and	r2, r0
      92:	23 40       	sbci	r18, 0x03	; 3
      94:	40 40       	sbci	r20, 0x00	; 0
      96:	2a 20       	and	r2, r10
      98:	20 2a       	or	r2, r16
      9a:	40 40       	sbci	r20, 0x00	; 0
      9c:	40 40       	sbci	r20, 0x00	; 0
      9e:	23 20       	and	r2, r3
      a0:	2a 20       	and	r2, r10
      a2:	20 2b       	or	r18, r16
      a4:	23 40       	sbci	r18, 0x03	; 3
      a6:	40 40       	sbci	r20, 0x00	; 0
      a8:	40 40       	sbci	r20, 0x00	; 0
      aa:	40 20       	and	r4, r0
      ac:	20 40       	sbci	r18, 0x00	; 0
      ae:	40 40       	sbci	r20, 0x00	; 0
      b0:	40 40       	sbci	r20, 0x00	; 0
      b2:	20 20       	and	r2, r0
      b4:	20 2b       	or	r18, r16
      b6:	40 40       	sbci	r20, 0x00	; 0
      b8:	40 40       	sbci	r20, 0x00	; 0
      ba:	2a 20       	and	r2, r10
      bc:	20 20       	and	r2, r0
      be:	40 40       	sbci	r20, 0x00	; 0
      c0:	40 40       	sbci	r20, 0x00	; 0
      c2:	40 25       	eor	r20, r0
      c4:	25 40       	sbci	r18, 0x05	; 5
      c6:	40 40       	sbci	r20, 0x00	; 0
      c8:	40 40       	sbci	r20, 0x00	; 0
      ca:	40 20       	and	r4, r0
      cc:	2b 20       	and	r2, r11
      ce:	20 2a       	or	r2, r16
      d0:	20 23       	and	r18, r16
      d2:	40 40       	sbci	r20, 0x00	; 0
      d4:	40 40       	sbci	r20, 0x00	; 0
      d6:	2a 20       	and	r2, r10
      d8:	20 2a       	or	r2, r16
      da:	40 40       	sbci	r20, 0x00	; 0
      dc:	40 23       	and	r20, r16
      de:	20 20       	and	r2, r0
      e0:	20 20       	and	r2, r0
      e2:	20 23       	and	r18, r16
      e4:	23 20       	and	r2, r3
      e6:	20 20       	and	r2, r0
      e8:	23 40       	sbci	r18, 0x03	; 3
      ea:	40 40       	sbci	r20, 0x00	; 0
      ec:	23 20       	and	r2, r3
      ee:	20 20       	and	r2, r0

000000f0 <font8x8_basic>:
	...
      f8:	00 00 5f 00 00 00 00 00 00 07 00 07 00 00 00 00     .._.............
     108:	14 7f 14 7f 14 00 00 00 24 2a 7f 2a 12 00 00 00     ........$*.*....
     118:	23 13 08 64 62 00 00 00 36 49 56 20 50 00 00 00     #..db...6IV P...
     128:	00 08 07 03 00 00 00 00 00 1c 22 41 00 00 00 00     .........."A....
     138:	00 41 22 1c 00 00 00 00 14 08 3e 08 14 00 00 00     .A".......>.....
     148:	08 08 3e 08 08 00 00 00 00 50 30 00 00 00 00 00     ..>......P0.....
     158:	08 08 08 08 08 00 00 00 00 60 60 00 00 00 00 00     .........``.....
     168:	20 10 08 04 02 00 00 00 3e 51 49 45 3e 00 00 00      .......>QIE>...
     178:	00 42 7f 40 00 00 00 00 42 61 51 49 46 00 00 00     .B.@....BaQIF...
     188:	21 41 45 4b 31 00 00 00 18 14 12 7f 10 00 00 00     !AEK1...........
     198:	27 45 45 45 39 00 00 00 3c 4a 49 49 30 00 00 00     'EEE9...<JII0...
     1a8:	01 71 09 05 03 00 00 00 36 49 49 49 36 00 00 00     .q......6III6...
     1b8:	06 49 49 29 1e 00 00 00 00 36 36 00 00 00 00 00     .II).....66.....
     1c8:	00 56 36 00 00 00 00 00 08 14 22 41 00 00 00 00     .V6......."A....
     1d8:	14 14 14 14 14 14 00 00 41 22 14 08 00 00 00 00     ........A"......
     1e8:	02 01 51 09 06 00 00 00 3e 41 5d 5d 1e 00 00 00     ..Q.....>A]]....
     1f8:	7e 11 11 11 7e 00 00 00 7f 49 49 49 36 00 00 00     ~...~....III6...
     208:	3e 41 41 41 22 00 00 00 7f 41 41 22 1c 00 00 00     >AAA"....AA"....
     218:	7f 49 49 49 41 00 00 00 7f 09 09 09 01 00 00 00     .IIIA...........
     228:	3e 41 49 49 7a 00 00 00 7f 08 08 08 7f 00 00 00     >AIIz...........
     238:	00 41 7f 41 00 00 00 00 20 40 41 3f 01 00 00 00     .A.A.... @A?....
     248:	7f 08 14 22 41 00 00 00 7f 40 40 40 40 00 00 00     ..."A....@@@@...
     258:	7f 02 04 02 7f 00 00 00 7f 02 04 08 7f 00 00 00     ................
     268:	3e 41 41 41 3e 00 00 00 7f 09 09 09 06 00 00 00     >AAA>...........
     278:	3e 41 51 21 5e 00 00 00 7f 09 19 29 46 00 00 00     >AQ!^......)F...
     288:	46 49 49 49 31 00 00 00 01 01 7f 01 01 00 00 00     FIII1...........
     298:	3f 40 40 40 3f 00 00 00 1f 20 40 20 1f 00 00 00     ?@@@?.... @ ....
     2a8:	7f 20 18 20 7f 00 00 00 63 14 08 14 63 00 00 00     . . ....c...c...
     2b8:	03 04 78 04 03 00 00 00 61 51 49 45 43 00 00 00     ..x.....aQIEC...
     2c8:	00 3e 41 41 00 00 00 00 02 04 08 10 20 00 00 00     .>AA........ ...
     2d8:	00 41 41 3e 00 00 00 00 04 02 01 02 04 00 00 00     .AA>............
     2e8:	40 40 40 40 40 40 00 00 00 00 03 07 00 00 00 00     @@@@@@..........
     2f8:	20 54 54 54 78 00 00 00 7f 48 44 44 38 00 00 00      TTTx....HDD8...
     308:	38 44 44 44 20 00 00 00 38 44 44 48 7f 00 00 00     8DDD ...8DDH....
     318:	38 54 54 54 18 00 00 00 08 7e 09 01 02 00 00 00     8TTT.....~......
     328:	08 14 54 54 3c 00 00 00 7f 08 04 04 78 00 00 00     ..TT<.......x...
     338:	00 44 7d 40 00 00 00 00 20 40 44 3d 00 00 00 00     .D}@.... @D=....
     348:	00 7f 10 28 44 00 00 00 00 41 7f 40 00 00 00 00     ...(D....A.@....
     358:	7c 04 18 04 78 00 00 00 7c 08 04 04 78 00 00 00     |...x...|...x...
     368:	38 44 44 44 38 00 00 00 7c 14 14 14 08 00 00 00     8DDD8...|.......
     378:	08 14 14 18 7c 00 00 00 7c 08 04 04 08 00 00 00     ....|...|.......
     388:	48 54 54 54 20 00 00 00 04 3f 44 40 20 00 00 00     HTTT ....?D@ ...
     398:	3c 40 40 20 7c 00 00 00 1c 20 40 20 1c 00 00 00     <@@ |.... @ ....
     3a8:	3c 40 30 40 3c 00 00 00 44 28 10 28 44 00 00 00     <@0@<...D(.(D...
     3b8:	0c 50 50 50 3c 00 00 00 44 64 54 4c 44 00 00 00     .PPP<...DdTLD...
     3c8:	00 08 36 41 00 00 00 00 00 00 7f 00 00 00 00 00     ..6A............
     3d8:	00 41 36 08 00 00 00 00 08 04 08 10 08 00 00 00     .A6.............

000003e8 <mainMenuItems>:
     3e8:	20 53 74 61 72 74 20 47 61 6d 65 20 20 20 20 20      Start Game     
     3f8:	20 53 65 74 74 69 6e 67 73 20 20 20 20 20 20 20      Settings       
     408:	20 48 69 67 68 20 53 63 6f 72 65 73 20 20 20 20      High Scores    
     418:	20 43 72 65 64 69 74 73 20 20 20 20 20 20 20 20      Credits        
     428:	20 45 78 69 74 20 20 20 20 20 20 20 20 20 20 20      Exit           
     438:	20 20 20 20 20 20 20 20 20 20 20 20 20 20 20 20                     
     448:	20 20 20 20 20 20 20 20 20 20 20 20 20 20 20 20                     
     458:	20 20 20 20 20 20 20 20 20 20 20 20 20 20 20 20                     

00000468 <__ctors_end>:
     468:	11 24       	eor	r1, r1
     46a:	1f be       	out	0x3f, r1	; 63
     46c:	cf ef       	ldi	r28, 0xFF	; 255
     46e:	d4 e0       	ldi	r29, 0x04	; 4
     470:	de bf       	out	0x3e, r29	; 62
     472:	cd bf       	out	0x3d, r28	; 61

00000474 <__do_copy_data>:
     474:	11 e0       	ldi	r17, 0x01	; 1
     476:	a0 e0       	ldi	r26, 0x00	; 0
     478:	b1 e0       	ldi	r27, 0x01	; 1
     47a:	e6 ec       	ldi	r30, 0xC6	; 198
     47c:	f2 e1       	ldi	r31, 0x12	; 18
     47e:	02 c0       	rjmp	.+4      	; 0x484 <__do_copy_data+0x10>
     480:	05 90       	lpm	r0, Z+
     482:	0d 92       	st	X+, r0
     484:	a6 3c       	cpi	r26, 0xC6	; 198
     486:	b1 07       	cpc	r27, r17
     488:	d9 f7       	brne	.-10     	; 0x480 <__do_copy_data+0xc>

0000048a <__do_clear_bss>:
     48a:	21 e0       	ldi	r18, 0x01	; 1
     48c:	a6 ec       	ldi	r26, 0xC6	; 198
     48e:	b1 e0       	ldi	r27, 0x01	; 1
     490:	01 c0       	rjmp	.+2      	; 0x494 <.do_clear_bss_start>

00000492 <.do_clear_bss_loop>:
     492:	1d 92       	st	X+, r1

00000494 <.do_clear_bss_start>:
     494:	a5 3e       	cpi	r26, 0xE5	; 229
     496:	b2 07       	cpc	r27, r18
     498:	e1 f7       	brne	.-8      	; 0x492 <.do_clear_bss_loop>
     49a:	0e 94 8b 02 	call	0x516	; 0x516 <main>
     49e:	0c 94 61 09 	jmp	0x12c2	; 0x12c2 <_exit>

000004a2 <__bad_interrupt>:
     4a2:	0c 94 00 00 	jmp	0	; 0x0 <__vectors>

000004a6 <UART_Init>:
     4a6:	90 bd       	out	0x20, r25	; 32
     4a8:	89 b9       	out	0x09, r24	; 9
     4aa:	54 9a       	sbi	0x0a, 4	; 10
     4ac:	53 9a       	sbi	0x0a, 3	; 10
     4ae:	8e e8       	ldi	r24, 0x8E	; 142
     4b0:	80 bd       	out	0x20, r24	; 32
     4b2:	08 95       	ret

000004b4 <UART_SendChar>:
     4b4:	5d 9b       	sbis	0x0b, 5	; 11
     4b6:	fe cf       	rjmp	.-4      	; 0x4b4 <UART_SendChar>
     4b8:	8c b9       	out	0x0c, r24	; 12
     4ba:	08 95       	ret

000004bc <UART_putChar>:
     4bc:	0e 94 5a 02 	call	0x4b4	; 0x4b4 <UART_SendChar>
     4c0:	80 e0       	ldi	r24, 0x00	; 0
     4c2:	90 e0       	ldi	r25, 0x00	; 0
     4c4:	08 95       	ret

000004c6 <UART_ReceiveChar>:
     4c6:	5f 9b       	sbis	0x0b, 7	; 11
     4c8:	fe cf       	rjmp	.-4      	; 0x4c6 <UART_ReceiveChar>
     4ca:	8c b1       	in	r24, 0x0c	; 12
     4cc:	08 95       	ret

000004ce <UART_getChar>:
     4ce:	cf 93       	push	r28
     4d0:	0e 94 63 02 	call	0x4c6	; 0x4c6 <UART_ReceiveChar>
     4d4:	c8 2f       	mov	r28, r24
     4d6:	0e 94 5a 02 	call	0x4b4	; 0x4b4 <UART_SendChar>
     4da:	8c 2f       	mov	r24, r28
     4dc:	90 e0       	ldi	r25, 0x00	; 0
     4de:	cf 91       	pop	r28
     4e0:	08 95       	ret

000004e2 <URAT_initStudio>:
     4e2:	ef ed       	ldi	r30, 0xDF	; 223
     4e4:	f1 e0       	ldi	r31, 0x01	; 1
     4e6:	8e e0       	ldi	r24, 0x0E	; 14
     4e8:	91 e0       	ldi	r25, 0x01	; 1
     4ea:	93 83       	std	Z+3, r25	; 0x03
     4ec:	82 83       	std	Z+2, r24	; 0x02
     4ee:	80 e0       	ldi	r24, 0x00	; 0
     4f0:	91 e0       	ldi	r25, 0x01	; 1
     4f2:	91 83       	std	Z+1, r25	; 0x01
     4f4:	80 83       	st	Z, r24
     4f6:	08 95       	ret

000004f8 <UART_EnableReceiveInterrupt>:
     4f8:	57 9a       	sbi	0x0a, 7	; 10
     4fa:	08 95       	ret

000004fc <__vector_19>:
     4fc:	1f 92       	push	r1
     4fe:	0f 92       	push	r0
     500:	0f b6       	in	r0, 0x3f	; 63
     502:	0f 92       	push	r0
     504:	11 24       	eor	r1, r1
     506:	8f 93       	push	r24
     508:	8c b1       	in	r24, 0x0c	; 12
     50a:	8f 91       	pop	r24
     50c:	0f 90       	pop	r0
     50e:	0f be       	out	0x3f, r0	; 63
     510:	0f 90       	pop	r0
     512:	1f 90       	pop	r1
     514:	18 95       	reti

00000516 <main>:

#include "DriverUART.h"
#include "SRAM.h"
#include "Menu_init.h"

int main(void) {
     516:	cf 93       	push	r28
     518:	df 93       	push	r29
     51a:	cd b7       	in	r28, 0x3d	; 61
     51c:	de b7       	in	r29, 0x3e	; 62
     51e:	2f 97       	sbiw	r28, 0x0f	; 15
     520:	0f b6       	in	r0, 0x3f	; 63
     522:	f8 94       	cli
     524:	de bf       	out	0x3e, r29	; 62
     526:	0f be       	out	0x3f, r0	; 63
     528:	cd bf       	out	0x3d, r28	; 61
	/*_________________INITIALISERINGER START______________________*/
	// Initialiser UART med baudrate 9600
	UART_Init(MYUBBR);
     52a:	8f e1       	ldi	r24, 0x1F	; 31
     52c:	90 e0       	ldi	r25, 0x00	; 0
     52e:	0e 94 53 02 	call	0x4a6	; 0x4a6 <UART_Init>
	URAT_initStudio();
     532:	0e 94 71 02 	call	0x4e2	; 0x4e2 <URAT_initStudio>
	UART_EnableReceiveInterrupt();
     536:	0e 94 7c 02 	call	0x4f8	; 0x4f8 <UART_EnableReceiveInterrupt>
    setup_timer();						// Start millisekundteljinga
     53a:	0e 94 85 08 	call	0x110a	; 0x110a <setup_timer>
	sei();								// Aktiver globale avbrot
     53e:	78 94       	sei
	externalMemoryInit();				// Initialiser eksternt minne må vere etter sei
     540:	0e 94 98 08 	call	0x1130	; 0x1130 <externalMemoryInit>
	initialize_menus();
     544:	0e 94 e0 03 	call	0x7c0	; 0x7c0 <initialize_menus>
	MultiBoard board;
	MultiBoard_Init(&board);			// Initialiser MultiBoard og kalibrer joystickens origo
     548:	ce 01       	movw	r24, r28
     54a:	01 96       	adiw	r24, 0x01	; 1
     54c:	0e 94 81 04 	call	0x902	; 0x902 <MultiBoard_Init>
	oled_init();						// Initialiser OLED-skjermen
     550:	0e 94 8d 05 	call	0xb1a	; 0xb1a <oled_init>
	//setup_printf_for_oled();			// Optional
	//SRAM_test();
	
	/*______MENY______*/
	current_menu = &mainMenu;
     554:	83 ed       	ldi	r24, 0xD3	; 211
     556:	91 e0       	ldi	r25, 0x01	; 1
     558:	90 93 c7 01 	sts	0x01C7, r25	; 0x8001c7 <__data_end+0x1>
     55c:	80 93 c6 01 	sts	0x01C6, r24	; 0x8001c6 <__data_end>
	//oled_write_screen_to_SRAM(smiley);
	//oled_data_from_SRAM();
	//_delay_ms(1000); //smile litt før start
	
	//linje og slikt
	oled_clear_screen();
     560:	0e 94 39 07 	call	0xe72	; 0xe72 <oled_clear_screen>
	oled_draw_line(10, 10, 100, 50);
     564:	22 e3       	ldi	r18, 0x32	; 50
     566:	44 e6       	ldi	r20, 0x64	; 100
     568:	6a e0       	ldi	r22, 0x0A	; 10
     56a:	8a e0       	ldi	r24, 0x0A	; 10
     56c:	0e 94 49 07 	call	0xe92	; 0xe92 <oled_draw_line>
	oled_draw_circle(64, 32, 20);
     570:	44 e1       	ldi	r20, 0x14	; 20
     572:	50 e0       	ldi	r21, 0x00	; 0
     574:	60 e2       	ldi	r22, 0x20	; 32
     576:	70 e0       	ldi	r23, 0x00	; 0
     578:	80 e4       	ldi	r24, 0x40	; 64
     57a:	90 e0       	ldi	r25, 0x00	; 0
     57c:	0e 94 ac 07 	call	0xf58	; 0xf58 <oled_draw_circle>
	oled_draw_square(20, 20, 40, 30);
     580:	2e e1       	ldi	r18, 0x1E	; 30
     582:	48 e2       	ldi	r20, 0x28	; 40
     584:	64 e1       	ldi	r22, 0x14	; 20
     586:	84 e1       	ldi	r24, 0x14	; 20
     588:	0e 94 1c 08 	call	0x1038	; 0x1038 <oled_draw_square>
	oled_data_from_SRAM();
     58c:	0e 94 d0 05 	call	0xba0	; 0xba0 <oled_data_from_SRAM>
	#else
		//round up by default
		__ticks_dc = (uint32_t)(ceil(fabs(__tmp)));
	#endif

	__builtin_avr_delay_cycles(__ticks_dc);
     590:	2f ef       	ldi	r18, 0xFF	; 255
     592:	8f ef       	ldi	r24, 0xFF	; 255
     594:	9e e0       	ldi	r25, 0x0E	; 14
     596:	21 50       	subi	r18, 0x01	; 1
     598:	80 40       	sbci	r24, 0x00	; 0
     59a:	90 40       	sbci	r25, 0x00	; 0
     59c:	e1 f7       	brne	.-8      	; 0x596 <main+0x80>
     59e:	00 c0       	rjmp	.+0      	; 0x5a0 <main+0x8a>
     5a0:	00 00       	nop
	_delay_ms(1000);
	printf("Hello world\r\n");
     5a2:	8c e1       	ldi	r24, 0x1C	; 28
     5a4:	91 e0       	ldi	r25, 0x01	; 1
     5a6:	0e 94 31 09 	call	0x1262	; 0x1262 <puts>
	
	/*_______HOVUDLØKKE______*/
	 while (1) {

        menu_navigate(&board, current_menu);  // Kallar `menu_navigate` med referanse til gjeldande meny
     5aa:	60 91 c6 01 	lds	r22, 0x01C6	; 0x8001c6 <__data_end>
     5ae:	70 91 c7 01 	lds	r23, 0x01C7	; 0x8001c7 <__data_end+0x1>
     5b2:	ce 01       	movw	r24, r28
     5b4:	01 96       	adiw	r24, 0x01	; 1
     5b6:	0e 94 c5 03 	call	0x78a	; 0x78a <menu_navigate>
		/*Så lenge vi ikkje har noko delay gåandes og ditta står her tenker eg 
		at den oppdateres automatisk med det minnet vi har skreve til sramen?
		Det kunne vert fornuftig med eit flag her då
		*/
		
		if (get_time_in_ms() >= 16) {
     5ba:	0e 94 7a 08 	call	0x10f4	; 0x10f4 <get_time_in_ms>
     5be:	60 31       	cpi	r22, 0x10	; 16
     5c0:	71 05       	cpc	r23, r1
     5c2:	81 05       	cpc	r24, r1
     5c4:	91 05       	cpc	r25, r1
     5c6:	88 f3       	brcs	.-30     	; 0x5aa <main+0x94>
			restart_timer();
     5c8:	0e 94 8d 08 	call	0x111a	; 0x111a <restart_timer>
			oled_data_from_SRAM();
     5cc:	0e 94 d0 05 	call	0xba0	; 0xba0 <oled_data_from_SRAM>
     5d0:	ec cf       	rjmp	.-40     	; 0x5aa <main+0x94>

000005d2 <update_menu_position_from_joystick>:
}

// Sjekker om joystick-knappen er trykt
uint8_t is_joystick_button_pressed(MultiBoard* board) {
	return (board->JoyBtn != 0);  // Anta at knappen er aktiv-høg (1 betyr trykt)
}
     5d2:	fb 01       	movw	r30, r22
     5d4:	dc 01       	movw	r26, r24
     5d6:	1b 96       	adiw	r26, 0x0b	; 11
     5d8:	8d 91       	ld	r24, X+
     5da:	9c 91       	ld	r25, X
     5dc:	1c 97       	sbiw	r26, 0x0c	; 12
     5de:	83 33       	cpi	r24, 0x33	; 51
     5e0:	91 05       	cpc	r25, r1
     5e2:	ac f0       	brlt	.+42     	; 0x60e <update_menu_position_from_joystick+0x3c>
     5e4:	82 81       	ldd	r24, Z+2	; 0x02
     5e6:	88 23       	and	r24, r24
     5e8:	b1 f1       	breq	.+108    	; 0x656 <update_menu_position_from_joystick+0x84>
     5ea:	83 83       	std	Z+3, r24	; 0x03
     5ec:	81 50       	subi	r24, 0x01	; 1
     5ee:	82 83       	std	Z+2, r24	; 0x02
     5f0:	94 81       	ldd	r25, Z+4	; 0x04
     5f2:	89 17       	cp	r24, r25
     5f4:	10 f4       	brcc	.+4      	; 0x5fa <update_menu_position_from_joystick+0x28>
     5f6:	91 50       	subi	r25, 0x01	; 1
     5f8:	94 83       	std	Z+4, r25	; 0x04
     5fa:	bf ef       	ldi	r27, 0xFF	; 255
     5fc:	2f e7       	ldi	r18, 0x7F	; 127
     5fe:	81 e0       	ldi	r24, 0x01	; 1
     600:	b1 50       	subi	r27, 0x01	; 1
     602:	20 40       	sbci	r18, 0x00	; 0
     604:	80 40       	sbci	r24, 0x00	; 0
     606:	e1 f7       	brne	.-8      	; 0x600 <update_menu_position_from_joystick+0x2e>
     608:	00 c0       	rjmp	.+0      	; 0x60a <update_menu_position_from_joystick+0x38>
     60a:	00 c0       	rjmp	.+0      	; 0x60c <update_menu_position_from_joystick+0x3a>
     60c:	08 95       	ret
     60e:	8e 3c       	cpi	r24, 0xCE	; 206
     610:	9f 4f       	sbci	r25, 0xFF	; 255
     612:	0c f5       	brge	.+66     	; 0x656 <update_menu_position_from_joystick+0x84>
     614:	82 81       	ldd	r24, Z+2	; 0x02
     616:	48 2f       	mov	r20, r24
     618:	50 e0       	ldi	r21, 0x00	; 0
     61a:	25 81       	ldd	r18, Z+5	; 0x05
     61c:	30 e0       	ldi	r19, 0x00	; 0
     61e:	21 50       	subi	r18, 0x01	; 1
     620:	31 09       	sbc	r19, r1
     622:	42 17       	cp	r20, r18
     624:	53 07       	cpc	r21, r19
     626:	bc f4       	brge	.+46     	; 0x656 <update_menu_position_from_joystick+0x84>
     628:	83 83       	std	Z+3, r24	; 0x03
     62a:	8f 5f       	subi	r24, 0xFF	; 255
     62c:	82 83       	std	Z+2, r24	; 0x02
     62e:	44 81       	ldd	r20, Z+4	; 0x04
     630:	90 e0       	ldi	r25, 0x00	; 0
     632:	24 2f       	mov	r18, r20
     634:	30 e0       	ldi	r19, 0x00	; 0
     636:	28 5f       	subi	r18, 0xF8	; 248
     638:	3f 4f       	sbci	r19, 0xFF	; 255
     63a:	82 17       	cp	r24, r18
     63c:	93 07       	cpc	r25, r19
     63e:	14 f0       	brlt	.+4      	; 0x644 <update_menu_position_from_joystick+0x72>
     640:	4f 5f       	subi	r20, 0xFF	; 255
     642:	44 83       	std	Z+4, r20	; 0x04
     644:	bf ef       	ldi	r27, 0xFF	; 255
     646:	2f e7       	ldi	r18, 0x7F	; 127
     648:	81 e0       	ldi	r24, 0x01	; 1
     64a:	b1 50       	subi	r27, 0x01	; 1
     64c:	20 40       	sbci	r18, 0x00	; 0
     64e:	80 40       	sbci	r24, 0x00	; 0
     650:	e1 f7       	brne	.-8      	; 0x64a <update_menu_position_from_joystick+0x78>
     652:	00 c0       	rjmp	.+0      	; 0x654 <update_menu_position_from_joystick+0x82>
     654:	00 c0       	rjmp	.+0      	; 0x656 <update_menu_position_from_joystick+0x84>
     656:	08 95       	ret

00000658 <write_menu_oled_to_SRAM>:
	write_menu_oled_to_SRAM(menu);
	
	
}

void write_menu_oled_to_SRAM(Menu* menu){
     658:	2f 92       	push	r2
     65a:	3f 92       	push	r3
     65c:	4f 92       	push	r4
     65e:	5f 92       	push	r5
     660:	6f 92       	push	r6
     662:	7f 92       	push	r7
     664:	8f 92       	push	r8
     666:	9f 92       	push	r9
     668:	af 92       	push	r10
     66a:	bf 92       	push	r11
     66c:	cf 92       	push	r12
     66e:	df 92       	push	r13
     670:	ef 92       	push	r14
     672:	ff 92       	push	r15
     674:	0f 93       	push	r16
     676:	1f 93       	push	r17
     678:	cf 93       	push	r28
     67a:	df 93       	push	r29
     67c:	00 d0       	rcall	.+0      	; 0x67e <write_menu_oled_to_SRAM+0x26>
     67e:	00 d0       	rcall	.+0      	; 0x680 <write_menu_oled_to_SRAM+0x28>
     680:	cd b7       	in	r28, 0x3d	; 61
     682:	de b7       	in	r29, 0x3e	; 62
     684:	4c 01       	movw	r8, r24
     686:	1a 82       	std	Y+2, r1	; 0x02
     688:	19 82       	std	Y+1, r1	; 0x01
	for (uint16_t j = 0; j < 128; j++) {
     68a:	41 2c       	mov	r4, r1
     68c:	51 2c       	mov	r5, r1
     68e:	0f 2e       	mov	r0, r31
     690:	f8 ee       	ldi	r31, 0xE8	; 232
     692:	af 2e       	mov	r10, r31
     694:	f1 e0       	ldi	r31, 0x01	; 1
     696:	bf 2e       	mov	r11, r31
     698:	f0 2d       	mov	r31, r0
		char c = pgm_read_byte(&menu->items[j]);
		for(int i = 0; i < 8; i++){
			if((j%16 == 0) & (j/16 == menu->current_position)){
     69a:	33 24       	eor	r3, r3
     69c:	33 94       	inc	r3
     69e:	21 2c       	mov	r2, r1
	
}

void write_menu_oled_to_SRAM(Menu* menu){
	for (uint16_t j = 0; j < 128; j++) {
		char c = pgm_read_byte(&menu->items[j]);
     6a0:	d4 01       	movw	r26, r8
     6a2:	ed 91       	ld	r30, X+
     6a4:	fc 91       	ld	r31, X
     6a6:	e4 0d       	add	r30, r4
     6a8:	f5 1d       	adc	r31, r5
     6aa:	e4 90       	lpm	r14, Z
		for(int i = 0; i < 8; i++){
			if((j%16 == 0) & (j/16 == menu->current_position)){
     6ac:	32 01       	movw	r6, r4
     6ae:	76 94       	lsr	r7
     6b0:	67 94       	ror	r6
     6b2:	76 94       	lsr	r7
     6b4:	67 94       	ror	r6
     6b6:	76 94       	lsr	r7
     6b8:	67 94       	ror	r6
     6ba:	76 94       	lsr	r7
     6bc:	67 94       	ror	r6
				SRAM_write(j*8 + i, pgm_read_byte(&font8x8_basic[('>'-32)*8 + i]));
			}
			else{
				SRAM_write(j*8 + i, pgm_read_byte(&font8x8_basic[(c-32)*8 + i]));	
     6be:	f1 2c       	mov	r15, r1
     6c0:	c7 01       	movw	r24, r14
     6c2:	88 0f       	add	r24, r24
     6c4:	99 1f       	adc	r25, r25
     6c6:	88 0f       	add	r24, r24
     6c8:	99 1f       	adc	r25, r25
     6ca:	88 0f       	add	r24, r24
     6cc:	99 1f       	adc	r25, r25
     6ce:	e0 ee       	ldi	r30, 0xE0	; 224
     6d0:	f1 e0       	ldi	r31, 0x01	; 1
     6d2:	fc 83       	std	Y+4, r31	; 0x04
     6d4:	eb 83       	std	Y+3, r30	; 0x03
     6d6:	09 81       	ldd	r16, Y+1	; 0x01
     6d8:	1a 81       	ldd	r17, Y+2	; 0x02

void write_menu_oled_to_SRAM(Menu* menu){
	for (uint16_t j = 0; j < 128; j++) {
		char c = pgm_read_byte(&menu->items[j]);
		for(int i = 0; i < 8; i++){
			if((j%16 == 0) & (j/16 == menu->current_position)){
     6da:	62 01       	movw	r12, r4
     6dc:	ff e0       	ldi	r31, 0x0F	; 15
     6de:	cf 22       	and	r12, r31
     6e0:	dd 24       	eor	r13, r13
				SRAM_write(j*8 + i, pgm_read_byte(&font8x8_basic[('>'-32)*8 + i]));
			}
			else{
				SRAM_write(j*8 + i, pgm_read_byte(&font8x8_basic[(c-32)*8 + i]));	
     6e2:	9c 01       	movw	r18, r24
     6e4:	20 5f       	subi	r18, 0xF0	; 240
     6e6:	31 40       	sbci	r19, 0x01	; 1
     6e8:	79 01       	movw	r14, r18

void write_menu_oled_to_SRAM(Menu* menu){
	for (uint16_t j = 0; j < 128; j++) {
		char c = pgm_read_byte(&menu->items[j]);
		for(int i = 0; i < 8; i++){
			if((j%16 == 0) & (j/16 == menu->current_position)){
     6ea:	83 2d       	mov	r24, r3
     6ec:	c1 14       	cp	r12, r1
     6ee:	d1 04       	cpc	r13, r1
     6f0:	09 f0       	breq	.+2      	; 0x6f4 <write_menu_oled_to_SRAM+0x9c>
     6f2:	82 2d       	mov	r24, r2
     6f4:	88 23       	and	r24, r24
     6f6:	91 f0       	breq	.+36     	; 0x71c <write_menu_oled_to_SRAM+0xc4>
     6f8:	d4 01       	movw	r26, r8
     6fa:	12 96       	adiw	r26, 0x02	; 2
     6fc:	8c 91       	ld	r24, X
     6fe:	90 e0       	ldi	r25, 0x00	; 0
     700:	23 2d       	mov	r18, r3
     702:	86 15       	cp	r24, r6
     704:	97 05       	cpc	r25, r7
     706:	09 f0       	breq	.+2      	; 0x70a <write_menu_oled_to_SRAM+0xb2>
     708:	22 2d       	mov	r18, r2
     70a:	22 23       	and	r18, r18
     70c:	39 f0       	breq	.+14     	; 0x71c <write_menu_oled_to_SRAM+0xc4>
				SRAM_write(j*8 + i, pgm_read_byte(&font8x8_basic[('>'-32)*8 + i]));
     70e:	eb 81       	ldd	r30, Y+3	; 0x03
     710:	fc 81       	ldd	r31, Y+4	; 0x04
     712:	64 91       	lpm	r22, Z
     714:	c8 01       	movw	r24, r16
     716:	0e 94 a7 08 	call	0x114e	; 0x114e <SRAM_write>
     71a:	08 c0       	rjmp	.+16     	; 0x72c <write_menu_oled_to_SRAM+0xd4>
			}
			else{
				SRAM_write(j*8 + i, pgm_read_byte(&font8x8_basic[(c-32)*8 + i]));	
     71c:	eb 81       	ldd	r30, Y+3	; 0x03
     71e:	fc 81       	ldd	r31, Y+4	; 0x04
     720:	ee 0d       	add	r30, r14
     722:	ff 1d       	adc	r31, r15
     724:	64 91       	lpm	r22, Z
     726:	c8 01       	movw	r24, r16
     728:	0e 94 a7 08 	call	0x114e	; 0x114e <SRAM_write>
     72c:	2b 81       	ldd	r18, Y+3	; 0x03
     72e:	3c 81       	ldd	r19, Y+4	; 0x04
     730:	2f 5f       	subi	r18, 0xFF	; 255
     732:	3f 4f       	sbci	r19, 0xFF	; 255
     734:	3c 83       	std	Y+4, r19	; 0x04
     736:	2b 83       	std	Y+3, r18	; 0x03
     738:	0f 5f       	subi	r16, 0xFF	; 255
     73a:	1f 4f       	sbci	r17, 0xFF	; 255
}

void write_menu_oled_to_SRAM(Menu* menu){
	for (uint16_t j = 0; j < 128; j++) {
		char c = pgm_read_byte(&menu->items[j]);
		for(int i = 0; i < 8; i++){
     73c:	2a 15       	cp	r18, r10
     73e:	3b 05       	cpc	r19, r11
     740:	a1 f6       	brne	.-88     	; 0x6ea <write_menu_oled_to_SRAM+0x92>
	
	
}

void write_menu_oled_to_SRAM(Menu* menu){
	for (uint16_t j = 0; j < 128; j++) {
     742:	3f ef       	ldi	r19, 0xFF	; 255
     744:	43 1a       	sub	r4, r19
     746:	53 0a       	sbc	r5, r19
     748:	89 81       	ldd	r24, Y+1	; 0x01
     74a:	9a 81       	ldd	r25, Y+2	; 0x02
     74c:	08 96       	adiw	r24, 0x08	; 8
     74e:	9a 83       	std	Y+2, r25	; 0x02
     750:	89 83       	std	Y+1, r24	; 0x01
     752:	90 e8       	ldi	r25, 0x80	; 128
     754:	49 16       	cp	r4, r25
     756:	51 04       	cpc	r5, r1
     758:	09 f0       	breq	.+2      	; 0x75c <write_menu_oled_to_SRAM+0x104>
     75a:	a2 cf       	rjmp	.-188    	; 0x6a0 <write_menu_oled_to_SRAM+0x48>
				SRAM_write(j*8 + i, pgm_read_byte(&font8x8_basic[(c-32)*8 + i]));	
			}
			
		}
	}
}
     75c:	0f 90       	pop	r0
     75e:	0f 90       	pop	r0
     760:	0f 90       	pop	r0
     762:	0f 90       	pop	r0
     764:	df 91       	pop	r29
     766:	cf 91       	pop	r28
     768:	1f 91       	pop	r17
     76a:	0f 91       	pop	r16
     76c:	ff 90       	pop	r15
     76e:	ef 90       	pop	r14
     770:	df 90       	pop	r13
     772:	cf 90       	pop	r12
     774:	bf 90       	pop	r11
     776:	af 90       	pop	r10
     778:	9f 90       	pop	r9
     77a:	8f 90       	pop	r8
     77c:	7f 90       	pop	r7
     77e:	6f 90       	pop	r6
     780:	5f 90       	pop	r5
     782:	4f 90       	pop	r4
     784:	3f 90       	pop	r3
     786:	2f 90       	pop	r2
     788:	08 95       	ret

0000078a <menu_navigate>:
tillater oss å modifisere pekeren som peker til den aktive menyen 
(f.eks. current_menu) inne i funksjonen. Dette er nyttig hvis vi trenger 
å bytte meny underveis, f.eks. fra hovedmeny til innstillingsmeny.
- Ganske fett
*/
void menu_navigate(MultiBoard* board, Menu* menu) {
     78a:	0f 93       	push	r16
     78c:	1f 93       	push	r17
     78e:	cf 93       	push	r28
     790:	df 93       	push	r29
     792:	ec 01       	movw	r28, r24
     794:	8b 01       	movw	r16, r22

	// Oppdater joystick- og menyposisjon
	MultiBoard_Update(board);
     796:	0e 94 17 05 	call	0xa2e	; 0xa2e <MultiBoard_Update>
	update_menu_position_from_joystick(board, menu);
     79a:	b8 01       	movw	r22, r16
     79c:	ce 01       	movw	r24, r28
     79e:	0e 94 e9 02 	call	0x5d2	; 0x5d2 <update_menu_position_from_joystick>



	// Sjekk om knappen er trykt for å bekrefte menyval
	if (is_joystick_button_pressed(board)) {
     7a2:	8e 81       	ldd	r24, Y+6	; 0x06
     7a4:	88 23       	and	r24, r24
     7a6:	21 f0       	breq	.+8      	; 0x7b0 <menu_navigate+0x26>
		
		handleMenuSelection(board, menu);  // Behandlar menyvalet
     7a8:	b8 01       	movw	r22, r16
     7aa:	ce 01       	movw	r24, r28
     7ac:	0e 94 ec 03 	call	0x7d8	; 0x7d8 <handleMenuSelection>
		
	}
	write_menu_oled_to_SRAM(menu);
     7b0:	c8 01       	movw	r24, r16
     7b2:	0e 94 2c 03 	call	0x658	; 0x658 <write_menu_oled_to_SRAM>
	
	
}
     7b6:	df 91       	pop	r29
     7b8:	cf 91       	pop	r28
     7ba:	1f 91       	pop	r17
     7bc:	0f 91       	pop	r16
     7be:	08 95       	ret

000007c0 <initialize_menus>:
Menu scrollMenu;
Menu settingsMenu;

void initialize_menus() {
	
	mainMenu.items = &mainMenuItems;//" Start Game      Settings        High Scores     Credits         Exit                                                           ";
     7c0:	e3 ed       	ldi	r30, 0xD3	; 211
     7c2:	f1 e0       	ldi	r31, 0x01	; 1
     7c4:	88 ee       	ldi	r24, 0xE8	; 232
     7c6:	93 e0       	ldi	r25, 0x03	; 3
     7c8:	91 83       	std	Z+1, r25	; 0x01
     7ca:	80 83       	st	Z, r24
	mainMenu.num_items = 5;
     7cc:	85 e0       	ldi	r24, 0x05	; 5
     7ce:	85 83       	std	Z+5, r24	; 0x05
	mainMenu.current_position = 0;
     7d0:	12 82       	std	Z+2, r1	; 0x02
	mainMenu.prev_position = 0;
     7d2:	13 82       	std	Z+3, r1	; 0x03
	mainMenu.scroll_offset = 0;
     7d4:	14 82       	std	Z+4, r1	; 0x04
     7d6:	08 95       	ret

000007d8 <handleMenuSelection>:
	//settingsMenu.prev_position = 0;
	//settingsMenu.scroll_offset = 0;
}

void handleMenuSelection(MultiBoard* board, Menu* menu) {
	switch (currentMenuState) {
     7d8:	80 91 c8 01 	lds	r24, 0x01C8	; 0x8001c8 <currentMenuState>
     7dc:	81 30       	cpi	r24, 0x01	; 1
     7de:	09 f4       	brne	.+2      	; 0x7e2 <handleMenuSelection+0xa>
     7e0:	6f c0       	rjmp	.+222    	; 0x8c0 <handleMenuSelection+0xe8>
     7e2:	20 f0       	brcs	.+8      	; 0x7ec <handleMenuSelection+0x14>
     7e4:	82 30       	cpi	r24, 0x02	; 2
     7e6:	09 f4       	brne	.+2      	; 0x7ea <handleMenuSelection+0x12>
     7e8:	40 c0       	rjmp	.+128    	; 0x86a <handleMenuSelection+0x92>
     7ea:	08 95       	ret
		case MAIN_MENU:
		switch (menu->current_position) {
     7ec:	fb 01       	movw	r30, r22
     7ee:	82 81       	ldd	r24, Z+2	; 0x02
     7f0:	82 30       	cpi	r24, 0x02	; 2
     7f2:	d9 f0       	breq	.+54     	; 0x82a <handleMenuSelection+0x52>
     7f4:	28 f4       	brcc	.+10     	; 0x800 <handleMenuSelection+0x28>
     7f6:	88 23       	and	r24, r24
     7f8:	41 f0       	breq	.+16     	; 0x80a <handleMenuSelection+0x32>
     7fa:	81 30       	cpi	r24, 0x01	; 1
     7fc:	61 f0       	breq	.+24     	; 0x816 <handleMenuSelection+0x3e>
     7fe:	2f c0       	rjmp	.+94     	; 0x85e <handleMenuSelection+0x86>
     800:	83 30       	cpi	r24, 0x03	; 3
     802:	e9 f0       	breq	.+58     	; 0x83e <handleMenuSelection+0x66>
     804:	84 30       	cpi	r24, 0x04	; 4
     806:	29 f1       	breq	.+74     	; 0x852 <handleMenuSelection+0x7a>
     808:	2a c0       	rjmp	.+84     	; 0x85e <handleMenuSelection+0x86>
			case 0:
			oled_write_line_to_SRAM(0, "Startar spelet...");
     80a:	69 e2       	ldi	r22, 0x29	; 41
     80c:	71 e0       	ldi	r23, 0x01	; 1
     80e:	80 e0       	ldi	r24, 0x00	; 0
     810:	0e 94 8d 06 	call	0xd1a	; 0xd1a <oled_write_line_to_SRAM>
			break;
     814:	08 95       	ret
			case 1:
			// Gå til innstillingar
			currentMenuState = SETTINGS_MENU;
     816:	82 e0       	ldi	r24, 0x02	; 2
     818:	80 93 c8 01 	sts	0x01C8, r24	; 0x8001c8 <currentMenuState>
			current_menu = &settingsMenu;  // Oppdater til innstillingsmeny
     81c:	8d ec       	ldi	r24, 0xCD	; 205
     81e:	91 e0       	ldi	r25, 0x01	; 1
     820:	90 93 c7 01 	sts	0x01C7, r25	; 0x8001c7 <__data_end+0x1>
     824:	80 93 c6 01 	sts	0x01C6, r24	; 0x8001c6 <__data_end>
			break;
     828:	08 95       	ret
			case 2:
			// Gå til scrollemeny
			currentMenuState = SCROLL_MENU;
     82a:	81 e0       	ldi	r24, 0x01	; 1
     82c:	80 93 c8 01 	sts	0x01C8, r24	; 0x8001c8 <currentMenuState>
			current_menu = &scrollMenu;  // Oppdater til scrollemeny
     830:	89 ed       	ldi	r24, 0xD9	; 217
     832:	91 e0       	ldi	r25, 0x01	; 1
     834:	90 93 c7 01 	sts	0x01C7, r25	; 0x8001c7 <__data_end+0x1>
     838:	80 93 c6 01 	sts	0x01C6, r24	; 0x8001c6 <__data_end>
			break;
     83c:	08 95       	ret
			case 3:
			oled_write_line_to_SRAM(0, "Viser kredittar...");
     83e:	6b e3       	ldi	r22, 0x3B	; 59
     840:	71 e0       	ldi	r23, 0x01	; 1
     842:	80 e0       	ldi	r24, 0x00	; 0
     844:	0e 94 8d 06 	call	0xd1a	; 0xd1a <oled_write_line_to_SRAM>
			oled_write_screen_to_SRAM(solkors);  // Vis kredittar på skjermen
     848:	80 e7       	ldi	r24, 0x70	; 112
     84a:	90 e0       	ldi	r25, 0x00	; 0
     84c:	0e 94 22 06 	call	0xc44	; 0xc44 <oled_write_screen_to_SRAM>
			break;
     850:	08 95       	ret
			case 4:
			oled_write_line_to_SRAM(0, "Avsluttar...");
     852:	6e e4       	ldi	r22, 0x4E	; 78
     854:	71 e0       	ldi	r23, 0x01	; 1
     856:	80 e0       	ldi	r24, 0x00	; 0
     858:	0e 94 8d 06 	call	0xd1a	; 0xd1a <oled_write_line_to_SRAM>
			// Legg eventuelt til funksjonalitet for å avslutte
			break;
     85c:	08 95       	ret
			default:
			oled_write_line_to_SRAM(0, "Ugyldig valg");
     85e:	6b e5       	ldi	r22, 0x5B	; 91
     860:	71 e0       	ldi	r23, 0x01	; 1
     862:	80 e0       	ldi	r24, 0x00	; 0
     864:	0e 94 8d 06 	call	0xd1a	; 0xd1a <oled_write_line_to_SRAM>
			break;
     868:	08 95       	ret
		}
		break;

		case SETTINGS_MENU:
		// Håndter valg i innstillingsmenyen
		switch (menu->current_position) {
     86a:	fb 01       	movw	r30, r22
     86c:	82 81       	ldd	r24, Z+2	; 0x02
     86e:	81 30       	cpi	r24, 0x01	; 1
     870:	61 f0       	breq	.+24     	; 0x88a <handleMenuSelection+0xb2>
     872:	28 f0       	brcs	.+10     	; 0x87e <handleMenuSelection+0xa6>
     874:	82 30       	cpi	r24, 0x02	; 2
     876:	79 f0       	breq	.+30     	; 0x896 <handleMenuSelection+0xbe>
     878:	83 30       	cpi	r24, 0x03	; 3
     87a:	99 f0       	breq	.+38     	; 0x8a2 <handleMenuSelection+0xca>
     87c:	1b c0       	rjmp	.+54     	; 0x8b4 <handleMenuSelection+0xdc>
			case 0:
			oled_write_line_to_SRAM(0, "Endrer lydinnstillingar...");
     87e:	68 e6       	ldi	r22, 0x68	; 104
     880:	71 e0       	ldi	r23, 0x01	; 1
     882:	80 e0       	ldi	r24, 0x00	; 0
     884:	0e 94 8d 06 	call	0xd1a	; 0xd1a <oled_write_line_to_SRAM>
			break;
     888:	08 95       	ret
			case 1:
			oled_write_line_to_SRAM(0, "Endrer lysstyrke...");
     88a:	63 e8       	ldi	r22, 0x83	; 131
     88c:	71 e0       	ldi	r23, 0x01	; 1
     88e:	80 e0       	ldi	r24, 0x00	; 0
     890:	0e 94 8d 06 	call	0xd1a	; 0xd1a <oled_write_line_to_SRAM>
			break;
     894:	08 95       	ret
			case 2:
			oled_write_line_to_SRAM(0, "Endrer kontrollar...");
     896:	67 e9       	ldi	r22, 0x97	; 151
     898:	71 e0       	ldi	r23, 0x01	; 1
     89a:	80 e0       	ldi	r24, 0x00	; 0
     89c:	0e 94 8d 06 	call	0xd1a	; 0xd1a <oled_write_line_to_SRAM>
			break;
     8a0:	08 95       	ret
			case 3:
			// Gå tilbake til hovudmenyen
			currentMenuState = MAIN_MENU;
     8a2:	10 92 c8 01 	sts	0x01C8, r1	; 0x8001c8 <currentMenuState>
			current_menu = &mainMenu;
     8a6:	83 ed       	ldi	r24, 0xD3	; 211
     8a8:	91 e0       	ldi	r25, 0x01	; 1
     8aa:	90 93 c7 01 	sts	0x01C7, r25	; 0x8001c7 <__data_end+0x1>
     8ae:	80 93 c6 01 	sts	0x01C6, r24	; 0x8001c6 <__data_end>
			break;
     8b2:	08 95       	ret
			default:
			oled_write_line_to_SRAM(0, "Ugyldig valg");
     8b4:	6b e5       	ldi	r22, 0x5B	; 91
     8b6:	71 e0       	ldi	r23, 0x01	; 1
     8b8:	80 e0       	ldi	r24, 0x00	; 0
     8ba:	0e 94 8d 06 	call	0xd1a	; 0xd1a <oled_write_line_to_SRAM>
			break;
     8be:	08 95       	ret
		}
		break;

		case SCROLL_MENU:
		// Håndter valg i scrollemenyen
		switch (menu->current_position) {
     8c0:	fb 01       	movw	r30, r22
     8c2:	82 81       	ldd	r24, Z+2	; 0x02
     8c4:	88 23       	and	r24, r24
     8c6:	19 f0       	breq	.+6      	; 0x8ce <handleMenuSelection+0xf6>
     8c8:	81 30       	cpi	r24, 0x01	; 1
     8ca:	79 f0       	breq	.+30     	; 0x8ea <handleMenuSelection+0x112>
     8cc:	14 c0       	rjmp	.+40     	; 0x8f6 <handleMenuSelection+0x11e>
			case 0:
			oled_write_line_to_SRAM(0, "Item 1 valgt");
     8ce:	6c ea       	ldi	r22, 0xAC	; 172
     8d0:	71 e0       	ldi	r23, 0x01	; 1
     8d2:	80 e0       	ldi	r24, 0x00	; 0
     8d4:	0e 94 8d 06 	call	0xd1a	; 0xd1a <oled_write_line_to_SRAM>
			currentMenuState = MAIN_MENU;
     8d8:	10 92 c8 01 	sts	0x01C8, r1	; 0x8001c8 <currentMenuState>
			current_menu = &mainMenu;
     8dc:	83 ed       	ldi	r24, 0xD3	; 211
     8de:	91 e0       	ldi	r25, 0x01	; 1
     8e0:	90 93 c7 01 	sts	0x01C7, r25	; 0x8001c7 <__data_end+0x1>
     8e4:	80 93 c6 01 	sts	0x01C6, r24	; 0x8001c6 <__data_end>
			break;
     8e8:	08 95       	ret
			case 1:
			oled_write_line_to_SRAM(0, "Item 2 valgt");
     8ea:	69 eb       	ldi	r22, 0xB9	; 185
     8ec:	71 e0       	ldi	r23, 0x01	; 1
     8ee:	80 e0       	ldi	r24, 0x00	; 0
     8f0:	0e 94 8d 06 	call	0xd1a	; 0xd1a <oled_write_line_to_SRAM>
			break;
     8f4:	08 95       	ret
			default:
			oled_write_line_to_SRAM(0, "Ugyldig valg");
     8f6:	6b e5       	ldi	r22, 0x5B	; 91
     8f8:	71 e0       	ldi	r23, 0x01	; 1
     8fa:	80 e0       	ldi	r24, 0x00	; 0
     8fc:	0e 94 8d 06 	call	0xd1a	; 0xd1a <oled_write_line_to_SRAM>
     900:	08 95       	ret

00000902 <MultiBoard_Init>:
     902:	cf 93       	push	r28
     904:	df 93       	push	r29
     906:	ec 01       	movw	r28, r24
     908:	bc 98       	cbi	0x17, 4	; 23
     90a:	bb 98       	cbi	0x17, 3	; 23
     90c:	ba 98       	cbi	0x17, 2	; 23
     90e:	b9 98       	cbi	0x17, 1	; 23
     910:	c2 9a       	sbi	0x18, 2	; 24
     912:	60 e8       	ldi	r22, 0x80	; 128
     914:	80 e0       	ldi	r24, 0x00	; 0
     916:	94 e1       	ldi	r25, 0x14	; 20
     918:	0e 94 c7 08 	call	0x118e	; 0x118e <Universal_write>
     91c:	b1 99       	sbic	0x16, 1	; 22
     91e:	fe cf       	rjmp	.-4      	; 0x91c <MultiBoard_Init+0x1a>
     920:	80 e0       	ldi	r24, 0x00	; 0
     922:	94 e1       	ldi	r25, 0x14	; 20
     924:	0e 94 d7 08 	call	0x11ae	; 0x11ae <Universal_read>
     928:	88 87       	std	Y+8, r24	; 0x08
     92a:	80 e0       	ldi	r24, 0x00	; 0
     92c:	94 e1       	ldi	r25, 0x14	; 20
     92e:	0e 94 d7 08 	call	0x11ae	; 0x11ae <Universal_read>
     932:	8f 83       	std	Y+7, r24	; 0x07
     934:	1a 82       	std	Y+2, r1	; 0x02
     936:	1b 82       	std	Y+3, r1	; 0x03
     938:	1c 82       	std	Y+4, r1	; 0x04
     93a:	1d 82       	std	Y+5, r1	; 0x05
     93c:	19 82       	std	Y+1, r1	; 0x01
     93e:	18 82       	st	Y, r1
     940:	1a 86       	std	Y+10, r1	; 0x0a
     942:	19 86       	std	Y+9, r1	; 0x09
     944:	1c 86       	std	Y+12, r1	; 0x0c
     946:	1b 86       	std	Y+11, r1	; 0x0b
     948:	1e 86       	std	Y+14, r1	; 0x0e
     94a:	1d 86       	std	Y+13, r1	; 0x0d
     94c:	1e 82       	std	Y+6, r1	; 0x06
     94e:	df 91       	pop	r29
     950:	cf 91       	pop	r28
     952:	08 95       	ret

00000954 <MultiBoard_UpdateJoystickAngle>:
     954:	fc 01       	movw	r30, r24
     956:	61 85       	ldd	r22, Z+9	; 0x09
     958:	72 85       	ldd	r23, Z+10	; 0x0a
     95a:	43 85       	ldd	r20, Z+11	; 0x0b
     95c:	54 85       	ldd	r21, Z+12	; 0x0c
     95e:	cb 01       	movw	r24, r22
     960:	05 96       	adiw	r24, 0x05	; 5
     962:	0b 97       	sbiw	r24, 0x0b	; 11
     964:	38 f4       	brcc	.+14     	; 0x974 <MultiBoard_UpdateJoystickAngle+0x20>
     966:	ca 01       	movw	r24, r20
     968:	05 96       	adiw	r24, 0x05	; 5
     96a:	0b 97       	sbiw	r24, 0x0b	; 11
     96c:	18 f4       	brcc	.+6      	; 0x974 <MultiBoard_UpdateJoystickAngle+0x20>
     96e:	16 86       	std	Z+14, r1	; 0x0e
     970:	15 86       	std	Z+13, r1	; 0x0d
     972:	08 95       	ret
     974:	87 2f       	mov	r24, r23
     976:	80 95       	com	r24
     978:	88 1f       	adc	r24, r24
     97a:	88 27       	eor	r24, r24
     97c:	88 1f       	adc	r24, r24
     97e:	90 e0       	ldi	r25, 0x00	; 0
     980:	88 0f       	add	r24, r24
     982:	99 1f       	adc	r25, r25
     984:	25 2f       	mov	r18, r21
     986:	20 95       	com	r18
     988:	22 1f       	adc	r18, r18
     98a:	22 27       	eor	r18, r18
     98c:	22 1f       	adc	r18, r18
     98e:	82 2b       	or	r24, r18
     990:	81 30       	cpi	r24, 0x01	; 1
     992:	91 05       	cpc	r25, r1
     994:	b9 f0       	breq	.+46     	; 0x9c4 <MultiBoard_UpdateJoystickAngle+0x70>
     996:	1c f4       	brge	.+6      	; 0x99e <MultiBoard_UpdateJoystickAngle+0x4a>
     998:	89 2b       	or	r24, r25
     99a:	29 f1       	breq	.+74     	; 0x9e6 <MultiBoard_UpdateJoystickAngle+0x92>
     99c:	45 c0       	rjmp	.+138    	; 0xa28 <MultiBoard_UpdateJoystickAngle+0xd4>
     99e:	82 30       	cpi	r24, 0x02	; 2
     9a0:	91 05       	cpc	r25, r1
     9a2:	99 f1       	breq	.+102    	; 0xa0a <MultiBoard_UpdateJoystickAngle+0xb6>
     9a4:	03 97       	sbiw	r24, 0x03	; 3
     9a6:	09 f0       	breq	.+2      	; 0x9aa <MultiBoard_UpdateJoystickAngle+0x56>
     9a8:	3f c0       	rjmp	.+126    	; 0xa28 <MultiBoard_UpdateJoystickAngle+0xd4>
     9aa:	2a e5       	ldi	r18, 0x5A	; 90
     9ac:	24 9f       	mul	r18, r20
     9ae:	c0 01       	movw	r24, r0
     9b0:	25 9f       	mul	r18, r21
     9b2:	90 0d       	add	r25, r0
     9b4:	11 24       	eor	r1, r1
     9b6:	64 0f       	add	r22, r20
     9b8:	75 1f       	adc	r23, r21
     9ba:	0e 94 e7 08 	call	0x11ce	; 0x11ce <__divmodhi4>
     9be:	76 87       	std	Z+14, r23	; 0x0e
     9c0:	65 87       	std	Z+13, r22	; 0x0d
     9c2:	08 95       	ret
     9c4:	26 ea       	ldi	r18, 0xA6	; 166
     9c6:	26 03       	mulsu	r18, r22
     9c8:	c0 01       	movw	r24, r0
     9ca:	27 9f       	mul	r18, r23
     9cc:	90 0d       	add	r25, r0
     9ce:	11 24       	eor	r1, r1
     9d0:	9a 01       	movw	r18, r20
     9d2:	26 1b       	sub	r18, r22
     9d4:	37 0b       	sbc	r19, r23
     9d6:	b9 01       	movw	r22, r18
     9d8:	0e 94 e7 08 	call	0x11ce	; 0x11ce <__divmodhi4>
     9dc:	66 5a       	subi	r22, 0xA6	; 166
     9de:	7f 4f       	sbci	r23, 0xFF	; 255
     9e0:	76 87       	std	Z+14, r23	; 0x0e
     9e2:	65 87       	std	Z+13, r22	; 0x0d
     9e4:	08 95       	ret
     9e6:	26 ea       	ldi	r18, 0xA6	; 166
     9e8:	24 03       	mulsu	r18, r20
     9ea:	c0 01       	movw	r24, r0
     9ec:	25 9f       	mul	r18, r21
     9ee:	90 0d       	add	r25, r0
     9f0:	11 24       	eor	r1, r1
     9f2:	71 95       	neg	r23
     9f4:	61 95       	neg	r22
     9f6:	71 09       	sbc	r23, r1
     9f8:	64 1b       	sub	r22, r20
     9fa:	75 0b       	sbc	r23, r21
     9fc:	0e 94 e7 08 	call	0x11ce	; 0x11ce <__divmodhi4>
     a00:	6c 54       	subi	r22, 0x4C	; 76
     a02:	7f 4f       	sbci	r23, 0xFF	; 255
     a04:	76 87       	std	Z+14, r23	; 0x0e
     a06:	65 87       	std	Z+13, r22	; 0x0d
     a08:	08 95       	ret
     a0a:	2a e5       	ldi	r18, 0x5A	; 90
     a0c:	26 9f       	mul	r18, r22
     a0e:	c0 01       	movw	r24, r0
     a10:	27 9f       	mul	r18, r23
     a12:	90 0d       	add	r25, r0
     a14:	11 24       	eor	r1, r1
     a16:	64 1b       	sub	r22, r20
     a18:	75 0b       	sbc	r23, r21
     a1a:	0e 94 e7 08 	call	0x11ce	; 0x11ce <__divmodhi4>
     a1e:	62 5f       	subi	r22, 0xF2	; 242
     a20:	7e 4f       	sbci	r23, 0xFE	; 254
     a22:	76 87       	std	Z+14, r23	; 0x0e
     a24:	65 87       	std	Z+13, r22	; 0x0d
     a26:	08 95       	ret
     a28:	16 86       	std	Z+14, r1	; 0x0e
     a2a:	15 86       	std	Z+13, r1	; 0x0d
     a2c:	08 95       	ret

00000a2e <MultiBoard_Update>:
     a2e:	cf 93       	push	r28
     a30:	df 93       	push	r29
     a32:	ec 01       	movw	r28, r24
     a34:	60 e0       	ldi	r22, 0x00	; 0
     a36:	80 e0       	ldi	r24, 0x00	; 0
     a38:	94 e1       	ldi	r25, 0x14	; 20
     a3a:	0e 94 c7 08 	call	0x118e	; 0x118e <Universal_write>
     a3e:	b1 99       	sbic	0x16, 1	; 22
     a40:	fe cf       	rjmp	.-4      	; 0xa3e <MultiBoard_Update+0x10>
     a42:	80 e0       	ldi	r24, 0x00	; 0
     a44:	94 e1       	ldi	r25, 0x14	; 20
     a46:	0e 94 d7 08 	call	0x11ae	; 0x11ae <Universal_read>
     a4a:	88 83       	st	Y, r24
     a4c:	80 e0       	ldi	r24, 0x00	; 0
     a4e:	94 e1       	ldi	r25, 0x14	; 20
     a50:	0e 94 d7 08 	call	0x11ae	; 0x11ae <Universal_read>
     a54:	89 83       	std	Y+1, r24	; 0x01
     a56:	80 e0       	ldi	r24, 0x00	; 0
     a58:	94 e1       	ldi	r25, 0x14	; 20
     a5a:	0e 94 d7 08 	call	0x11ae	; 0x11ae <Universal_read>
     a5e:	8b 83       	std	Y+3, r24	; 0x03
     a60:	80 e0       	ldi	r24, 0x00	; 0
     a62:	94 e1       	ldi	r25, 0x14	; 20
     a64:	0e 94 d7 08 	call	0x11ae	; 0x11ae <Universal_read>
     a68:	8a 83       	std	Y+2, r24	; 0x02
     a6a:	81 e0       	ldi	r24, 0x01	; 1
     a6c:	b4 9b       	sbis	0x16, 4	; 22
     a6e:	80 e0       	ldi	r24, 0x00	; 0
     a70:	8c 83       	std	Y+4, r24	; 0x04
     a72:	81 e0       	ldi	r24, 0x01	; 1
     a74:	b3 9b       	sbis	0x16, 3	; 22
     a76:	80 e0       	ldi	r24, 0x00	; 0
     a78:	8d 83       	std	Y+5, r24	; 0x05
     a7a:	81 e0       	ldi	r24, 0x01	; 1
     a7c:	b2 99       	sbic	0x16, 2	; 22
     a7e:	80 e0       	ldi	r24, 0x00	; 0
     a80:	8e 83       	std	Y+6, r24	; 0x06
     a82:	88 81       	ld	r24, Y
     a84:	90 e0       	ldi	r25, 0x00	; 0
     a86:	28 85       	ldd	r18, Y+8	; 0x08
     a88:	82 1b       	sub	r24, r18
     a8a:	91 09       	sbc	r25, r1
     a8c:	9c 87       	std	Y+12, r25	; 0x0c
     a8e:	8b 87       	std	Y+11, r24	; 0x0b
     a90:	89 81       	ldd	r24, Y+1	; 0x01
     a92:	90 e0       	ldi	r25, 0x00	; 0
     a94:	2f 81       	ldd	r18, Y+7	; 0x07
     a96:	82 1b       	sub	r24, r18
     a98:	91 09       	sbc	r25, r1
     a9a:	9a 87       	std	Y+10, r25	; 0x0a
     a9c:	89 87       	std	Y+9, r24	; 0x09
     a9e:	ce 01       	movw	r24, r28
     aa0:	0e 94 aa 04 	call	0x954	; 0x954 <MultiBoard_UpdateJoystickAngle>
     aa4:	df 91       	pop	r29
     aa6:	cf 91       	pop	r28
     aa8:	08 95       	ret

00000aaa <oled_write_command>:
     aaa:	68 2f       	mov	r22, r24
     aac:	80 e0       	ldi	r24, 0x00	; 0
     aae:	90 e0       	ldi	r25, 0x00	; 0
     ab0:	0e 94 c7 08 	call	0x118e	; 0x118e <Universal_write>
     ab4:	08 95       	ret

00000ab6 <oled_write_data>:
     ab6:	ef 92       	push	r14
     ab8:	ff 92       	push	r15
     aba:	0f 93       	push	r16
     abc:	1f 93       	push	r17
     abe:	cf 93       	push	r28
     ac0:	df 93       	push	r29
     ac2:	61 15       	cp	r22, r1
     ac4:	71 05       	cpc	r23, r1
     ac6:	81 f0       	breq	.+32     	; 0xae8 <oled_write_data+0x32>
     ac8:	7c 01       	movw	r14, r24
     aca:	8c 01       	movw	r16, r24
     acc:	e6 0e       	add	r14, r22
     ace:	f7 1e       	adc	r15, r23
     ad0:	c0 e0       	ldi	r28, 0x00	; 0
     ad2:	d2 e0       	ldi	r29, 0x02	; 2
     ad4:	f8 01       	movw	r30, r16
     ad6:	61 91       	ld	r22, Z+
     ad8:	8f 01       	movw	r16, r30
     ada:	ce 01       	movw	r24, r28
     adc:	0e 94 c7 08 	call	0x118e	; 0x118e <Universal_write>
     ae0:	21 96       	adiw	r28, 0x01	; 1
     ae2:	0e 15       	cp	r16, r14
     ae4:	1f 05       	cpc	r17, r15
     ae6:	b1 f7       	brne	.-20     	; 0xad4 <oled_write_data+0x1e>
     ae8:	df 91       	pop	r29
     aea:	cf 91       	pop	r28
     aec:	1f 91       	pop	r17
     aee:	0f 91       	pop	r16
     af0:	ff 90       	pop	r15
     af2:	ef 90       	pop	r14
     af4:	08 95       	ret

00000af6 <oled_set_page>:
     af6:	87 70       	andi	r24, 0x07	; 7
     af8:	80 6b       	ori	r24, 0xB0	; 176
     afa:	0e 94 55 05 	call	0xaaa	; 0xaaa <oled_write_command>
     afe:	08 95       	ret

00000b00 <oled_set_column>:
     b00:	cf 93       	push	r28
     b02:	c8 2f       	mov	r28, r24
     b04:	82 95       	swap	r24
     b06:	8f 70       	andi	r24, 0x0F	; 15
     b08:	80 61       	ori	r24, 0x10	; 16
     b0a:	0e 94 55 05 	call	0xaaa	; 0xaaa <oled_write_command>
     b0e:	8c 2f       	mov	r24, r28
     b10:	8f 70       	andi	r24, 0x0F	; 15
     b12:	0e 94 55 05 	call	0xaaa	; 0xaaa <oled_write_command>
     b16:	cf 91       	pop	r28
     b18:	08 95       	ret

00000b1a <oled_init>:
     b1a:	8e ea       	ldi	r24, 0xAE	; 174
     b1c:	0e 94 55 05 	call	0xaaa	; 0xaaa <oled_write_command>
     b20:	81 ea       	ldi	r24, 0xA1	; 161
     b22:	0e 94 55 05 	call	0xaaa	; 0xaaa <oled_write_command>
     b26:	8a ed       	ldi	r24, 0xDA	; 218
     b28:	0e 94 55 05 	call	0xaaa	; 0xaaa <oled_write_command>
     b2c:	82 e1       	ldi	r24, 0x12	; 18
     b2e:	0e 94 55 05 	call	0xaaa	; 0xaaa <oled_write_command>
     b32:	88 ec       	ldi	r24, 0xC8	; 200
     b34:	0e 94 55 05 	call	0xaaa	; 0xaaa <oled_write_command>
     b38:	88 ea       	ldi	r24, 0xA8	; 168
     b3a:	0e 94 55 05 	call	0xaaa	; 0xaaa <oled_write_command>
     b3e:	8f e3       	ldi	r24, 0x3F	; 63
     b40:	0e 94 55 05 	call	0xaaa	; 0xaaa <oled_write_command>
     b44:	85 ed       	ldi	r24, 0xD5	; 213
     b46:	0e 94 55 05 	call	0xaaa	; 0xaaa <oled_write_command>
     b4a:	80 e8       	ldi	r24, 0x80	; 128
     b4c:	0e 94 55 05 	call	0xaaa	; 0xaaa <oled_write_command>
     b50:	81 e8       	ldi	r24, 0x81	; 129
     b52:	0e 94 55 05 	call	0xaaa	; 0xaaa <oled_write_command>
     b56:	80 e5       	ldi	r24, 0x50	; 80
     b58:	0e 94 55 05 	call	0xaaa	; 0xaaa <oled_write_command>
     b5c:	89 ed       	ldi	r24, 0xD9	; 217
     b5e:	0e 94 55 05 	call	0xaaa	; 0xaaa <oled_write_command>
     b62:	81 e2       	ldi	r24, 0x21	; 33
     b64:	0e 94 55 05 	call	0xaaa	; 0xaaa <oled_write_command>
     b68:	80 e2       	ldi	r24, 0x20	; 32
     b6a:	0e 94 55 05 	call	0xaaa	; 0xaaa <oled_write_command>
     b6e:	82 e0       	ldi	r24, 0x02	; 2
     b70:	0e 94 55 05 	call	0xaaa	; 0xaaa <oled_write_command>
     b74:	8b ed       	ldi	r24, 0xDB	; 219
     b76:	0e 94 55 05 	call	0xaaa	; 0xaaa <oled_write_command>
     b7a:	80 e3       	ldi	r24, 0x30	; 48
     b7c:	0e 94 55 05 	call	0xaaa	; 0xaaa <oled_write_command>
     b80:	8d ea       	ldi	r24, 0xAD	; 173
     b82:	0e 94 55 05 	call	0xaaa	; 0xaaa <oled_write_command>
     b86:	80 e0       	ldi	r24, 0x00	; 0
     b88:	0e 94 55 05 	call	0xaaa	; 0xaaa <oled_write_command>
     b8c:	84 ea       	ldi	r24, 0xA4	; 164
     b8e:	0e 94 55 05 	call	0xaaa	; 0xaaa <oled_write_command>
     b92:	86 ea       	ldi	r24, 0xA6	; 166
     b94:	0e 94 55 05 	call	0xaaa	; 0xaaa <oled_write_command>
     b98:	8f ea       	ldi	r24, 0xAF	; 175
     b9a:	0e 94 55 05 	call	0xaaa	; 0xaaa <oled_write_command>
     b9e:	08 95       	ret

00000ba0 <oled_data_from_SRAM>:
     ba0:	8f 92       	push	r8
     ba2:	9f 92       	push	r9
     ba4:	bf 92       	push	r11
     ba6:	cf 92       	push	r12
     ba8:	df 92       	push	r13
     baa:	ef 92       	push	r14
     bac:	ff 92       	push	r15
     bae:	0f 93       	push	r16
     bb0:	1f 93       	push	r17
     bb2:	cf 93       	push	r28
     bb4:	df 93       	push	r29
     bb6:	cd b7       	in	r28, 0x3d	; 61
     bb8:	de b7       	in	r29, 0x3e	; 62
     bba:	c0 58       	subi	r28, 0x80	; 128
     bbc:	d1 09       	sbc	r29, r1
     bbe:	0f b6       	in	r0, 0x3f	; 63
     bc0:	f8 94       	cli
     bc2:	de bf       	out	0x3e, r29	; 62
     bc4:	0f be       	out	0x3f, r0	; 63
     bc6:	cd bf       	out	0x3d, r28	; 61
     bc8:	ce 01       	movw	r24, r28
     bca:	01 96       	adiw	r24, 0x01	; 1
     bcc:	4c 01       	movw	r8, r24
     bce:	ee 24       	eor	r14, r14
     bd0:	ff 24       	eor	r15, r15
     bd2:	e8 1a       	sub	r14, r24
     bd4:	f9 0a       	sbc	r15, r25
     bd6:	b1 2c       	mov	r11, r1
     bd8:	6e 01       	movw	r12, r28
     bda:	91 e8       	ldi	r25, 0x81	; 129
     bdc:	c9 0e       	add	r12, r25
     bde:	d1 1c       	adc	r13, r1
     be0:	8b 2d       	mov	r24, r11
     be2:	0e 94 7b 05 	call	0xaf6	; 0xaf6 <oled_set_page>
     be6:	80 e0       	ldi	r24, 0x00	; 0
     be8:	0e 94 80 05 	call	0xb00	; 0xb00 <oled_set_column>
     bec:	84 01       	movw	r16, r8
     bee:	c8 01       	movw	r24, r16
     bf0:	8e 0d       	add	r24, r14
     bf2:	9f 1d       	adc	r25, r15
     bf4:	0e 94 b7 08 	call	0x116e	; 0x116e <SRAM_read>
     bf8:	f8 01       	movw	r30, r16
     bfa:	81 93       	st	Z+, r24
     bfc:	8f 01       	movw	r16, r30
     bfe:	ec 15       	cp	r30, r12
     c00:	fd 05       	cpc	r31, r13
     c02:	a9 f7       	brne	.-22     	; 0xbee <oled_data_from_SRAM+0x4e>
     c04:	60 e8       	ldi	r22, 0x80	; 128
     c06:	70 e0       	ldi	r23, 0x00	; 0
     c08:	ce 01       	movw	r24, r28
     c0a:	01 96       	adiw	r24, 0x01	; 1
     c0c:	0e 94 5b 05 	call	0xab6	; 0xab6 <oled_write_data>
     c10:	b3 94       	inc	r11
     c12:	f0 e8       	ldi	r31, 0x80	; 128
     c14:	ef 0e       	add	r14, r31
     c16:	f1 1c       	adc	r15, r1
     c18:	88 e0       	ldi	r24, 0x08	; 8
     c1a:	b8 12       	cpse	r11, r24
     c1c:	e1 cf       	rjmp	.-62     	; 0xbe0 <oled_data_from_SRAM+0x40>
     c1e:	c0 58       	subi	r28, 0x80	; 128
     c20:	df 4f       	sbci	r29, 0xFF	; 255
     c22:	0f b6       	in	r0, 0x3f	; 63
     c24:	f8 94       	cli
     c26:	de bf       	out	0x3e, r29	; 62
     c28:	0f be       	out	0x3f, r0	; 63
     c2a:	cd bf       	out	0x3d, r28	; 61
     c2c:	df 91       	pop	r29
     c2e:	cf 91       	pop	r28
     c30:	1f 91       	pop	r17
     c32:	0f 91       	pop	r16
     c34:	ff 90       	pop	r15
     c36:	ef 90       	pop	r14
     c38:	df 90       	pop	r13
     c3a:	cf 90       	pop	r12
     c3c:	bf 90       	pop	r11
     c3e:	9f 90       	pop	r9
     c40:	8f 90       	pop	r8
     c42:	08 95       	ret

00000c44 <oled_write_screen_to_SRAM>:
     c44:	6f 92       	push	r6
     c46:	7f 92       	push	r7
     c48:	8f 92       	push	r8
     c4a:	9f 92       	push	r9
     c4c:	af 92       	push	r10
     c4e:	bf 92       	push	r11
     c50:	cf 92       	push	r12
     c52:	df 92       	push	r13
     c54:	ef 92       	push	r14
     c56:	ff 92       	push	r15
     c58:	0f 93       	push	r16
     c5a:	1f 93       	push	r17
     c5c:	cf 93       	push	r28
     c5e:	df 93       	push	r29
     c60:	4c 01       	movw	r8, r24
     c62:	e1 2c       	mov	r14, r1
     c64:	f1 2c       	mov	r15, r1
     c66:	0f 2e       	mov	r0, r31
     c68:	f0 ef       	ldi	r31, 0xF0	; 240
     c6a:	6f 2e       	mov	r6, r31
     c6c:	f0 e0       	ldi	r31, 0x00	; 0
     c6e:	7f 2e       	mov	r7, r31
     c70:	f0 2d       	mov	r31, r0
     c72:	0f 2e       	mov	r0, r31
     c74:	f8 ef       	ldi	r31, 0xF8	; 248
     c76:	af 2e       	mov	r10, r31
     c78:	f0 e0       	ldi	r31, 0x00	; 0
     c7a:	bf 2e       	mov	r11, r31
     c7c:	f0 2d       	mov	r31, r0
     c7e:	f4 01       	movw	r30, r8
     c80:	04 91       	lpm	r16, Z
     c82:	80 ee       	ldi	r24, 0xE0	; 224
     c84:	80 0f       	add	r24, r16
     c86:	80 36       	cpi	r24, 0x60	; 96
     c88:	f0 f4       	brcc	.+60     	; 0xcc6 <oled_write_screen_to_SRAM+0x82>
     c8a:	10 e0       	ldi	r17, 0x00	; 0
     c8c:	00 52       	subi	r16, 0x20	; 32
     c8e:	11 09       	sbc	r17, r1
     c90:	00 0f       	add	r16, r16
     c92:	11 1f       	adc	r17, r17
     c94:	00 0f       	add	r16, r16
     c96:	11 1f       	adc	r17, r17
     c98:	00 0f       	add	r16, r16
     c9a:	11 1f       	adc	r17, r17
     c9c:	67 01       	movw	r12, r14
     c9e:	f8 e0       	ldi	r31, 0x08	; 8
     ca0:	cf 0e       	add	r12, r31
     ca2:	d1 1c       	adc	r13, r1
     ca4:	e7 01       	movw	r28, r14
     ca6:	0e 19       	sub	r16, r14
     ca8:	1f 09       	sbc	r17, r15
     caa:	f8 01       	movw	r30, r16
     cac:	ec 0f       	add	r30, r28
     cae:	fd 1f       	adc	r31, r29
     cb0:	e0 51       	subi	r30, 0x10	; 16
     cb2:	ff 4f       	sbci	r31, 0xFF	; 255
     cb4:	64 91       	lpm	r22, Z
     cb6:	ce 01       	movw	r24, r28
     cb8:	0e 94 a7 08 	call	0x114e	; 0x114e <SRAM_write>
     cbc:	21 96       	adiw	r28, 0x01	; 1
     cbe:	cc 16       	cp	r12, r28
     cc0:	dd 06       	cpc	r13, r29
     cc2:	99 f7       	brne	.-26     	; 0xcaa <oled_write_screen_to_SRAM+0x66>
     cc4:	10 c0       	rjmp	.+32     	; 0xce6 <oled_write_screen_to_SRAM+0xa2>
     cc6:	c0 ef       	ldi	r28, 0xF0	; 240
     cc8:	d0 e0       	ldi	r29, 0x00	; 0
     cca:	87 01       	movw	r16, r14
     ccc:	06 19       	sub	r16, r6
     cce:	17 09       	sbc	r17, r7
     cd0:	fe 01       	movw	r30, r28
     cd2:	64 91       	lpm	r22, Z
     cd4:	c8 01       	movw	r24, r16
     cd6:	8c 0f       	add	r24, r28
     cd8:	9d 1f       	adc	r25, r29
     cda:	0e 94 a7 08 	call	0x114e	; 0x114e <SRAM_write>
     cde:	21 96       	adiw	r28, 0x01	; 1
     ce0:	ca 15       	cp	r28, r10
     ce2:	db 05       	cpc	r29, r11
     ce4:	a9 f7       	brne	.-22     	; 0xcd0 <oled_write_screen_to_SRAM+0x8c>
     ce6:	ff ef       	ldi	r31, 0xFF	; 255
     ce8:	8f 1a       	sub	r8, r31
     cea:	9f 0a       	sbc	r9, r31
     cec:	88 e0       	ldi	r24, 0x08	; 8
     cee:	e8 0e       	add	r14, r24
     cf0:	f1 1c       	adc	r15, r1
     cf2:	e1 14       	cp	r14, r1
     cf4:	e4 e0       	ldi	r30, 0x04	; 4
     cf6:	fe 06       	cpc	r15, r30
     cf8:	09 f0       	breq	.+2      	; 0xcfc <oled_write_screen_to_SRAM+0xb8>
     cfa:	c1 cf       	rjmp	.-126    	; 0xc7e <oled_write_screen_to_SRAM+0x3a>
     cfc:	df 91       	pop	r29
     cfe:	cf 91       	pop	r28
     d00:	1f 91       	pop	r17
     d02:	0f 91       	pop	r16
     d04:	ff 90       	pop	r15
     d06:	ef 90       	pop	r14
     d08:	df 90       	pop	r13
     d0a:	cf 90       	pop	r12
     d0c:	bf 90       	pop	r11
     d0e:	af 90       	pop	r10
     d10:	9f 90       	pop	r9
     d12:	8f 90       	pop	r8
     d14:	7f 90       	pop	r7
     d16:	6f 90       	pop	r6
     d18:	08 95       	ret

00000d1a <oled_write_line_to_SRAM>:
     d1a:	8f 92       	push	r8
     d1c:	9f 92       	push	r9
     d1e:	bf 92       	push	r11
     d20:	cf 92       	push	r12
     d22:	df 92       	push	r13
     d24:	ef 92       	push	r14
     d26:	ff 92       	push	r15
     d28:	0f 93       	push	r16
     d2a:	1f 93       	push	r17
     d2c:	cf 93       	push	r28
     d2e:	df 93       	push	r29
     d30:	88 30       	cpi	r24, 0x08	; 8
     d32:	08 f0       	brcs	.+2      	; 0xd36 <oled_write_line_to_SRAM+0x1c>
     d34:	5e c0       	rjmp	.+188    	; 0xdf2 <oled_write_line_to_SRAM+0xd8>
     d36:	fb 01       	movw	r30, r22
     d38:	90 e8       	ldi	r25, 0x80	; 128
     d3a:	89 9f       	mul	r24, r25
     d3c:	60 01       	movw	r12, r0
     d3e:	11 24       	eor	r1, r1
     d40:	80 81       	ld	r24, Z
     d42:	88 23       	and	r24, r24
     d44:	09 f4       	brne	.+2      	; 0xd48 <oled_write_line_to_SRAM+0x2e>
     d46:	47 c0       	rjmp	.+142    	; 0xdd6 <oled_write_line_to_SRAM+0xbc>
     d48:	76 01       	movw	r14, r12
     d4a:	8b 01       	movw	r16, r22
     d4c:	b1 2c       	mov	r11, r1
     d4e:	0a c0       	rjmp	.+20     	; 0xd64 <oled_write_line_to_SRAM+0x4a>
     d50:	0f 5f       	subi	r16, 0xFF	; 255
     d52:	1f 4f       	sbci	r17, 0xFF	; 255
     d54:	a8 e0       	ldi	r26, 0x08	; 8
     d56:	ea 0e       	add	r14, r26
     d58:	f1 1c       	adc	r15, r1
     d5a:	f8 01       	movw	r30, r16
     d5c:	80 81       	ld	r24, Z
     d5e:	88 23       	and	r24, r24
     d60:	09 f4       	brne	.+2      	; 0xd64 <oled_write_line_to_SRAM+0x4a>
     d62:	3a c0       	rjmp	.+116    	; 0xdd8 <oled_write_line_to_SRAM+0xbe>
     d64:	c0 e0       	ldi	r28, 0x00	; 0
     d66:	d0 e0       	ldi	r29, 0x00	; 0
     d68:	d8 01       	movw	r26, r16
     d6a:	ec 91       	ld	r30, X
     d6c:	f0 e0       	ldi	r31, 0x00	; 0
     d6e:	b0 97       	sbiw	r30, 0x20	; 32
     d70:	ee 0f       	add	r30, r30
     d72:	ff 1f       	adc	r31, r31
     d74:	ee 0f       	add	r30, r30
     d76:	ff 1f       	adc	r31, r31
     d78:	ee 0f       	add	r30, r30
     d7a:	ff 1f       	adc	r31, r31
     d7c:	ec 0f       	add	r30, r28
     d7e:	fd 1f       	adc	r31, r29
     d80:	e0 51       	subi	r30, 0x10	; 16
     d82:	ff 4f       	sbci	r31, 0xFF	; 255
     d84:	64 91       	lpm	r22, Z
     d86:	c7 01       	movw	r24, r14
     d88:	8c 0f       	add	r24, r28
     d8a:	9d 1f       	adc	r25, r29
     d8c:	0e 94 a7 08 	call	0x114e	; 0x114e <SRAM_write>
     d90:	21 96       	adiw	r28, 0x01	; 1
     d92:	c8 30       	cpi	r28, 0x08	; 8
     d94:	d1 05       	cpc	r29, r1
     d96:	41 f7       	brne	.-48     	; 0xd68 <oled_write_line_to_SRAM+0x4e>
     d98:	b3 94       	inc	r11
     d9a:	b0 e1       	ldi	r27, 0x10	; 16
     d9c:	bb 12       	cpse	r11, r27
     d9e:	d8 cf       	rjmp	.-80     	; 0xd50 <oled_write_line_to_SRAM+0x36>
     da0:	28 c0       	rjmp	.+80     	; 0xdf2 <oled_write_line_to_SRAM+0xd8>
     da2:	fe 01       	movw	r30, r28
     da4:	64 91       	lpm	r22, Z
     da6:	c8 01       	movw	r24, r16
     da8:	8c 0f       	add	r24, r28
     daa:	9d 1f       	adc	r25, r29
     dac:	0e 94 a7 08 	call	0x114e	; 0x114e <SRAM_write>
     db0:	21 96       	adiw	r28, 0x01	; 1
     db2:	ce 15       	cp	r28, r14
     db4:	df 05       	cpc	r29, r15
     db6:	a9 f7       	brne	.-22     	; 0xda2 <oled_write_line_to_SRAM+0x88>
     db8:	b3 94       	inc	r11
     dba:	ff e0       	ldi	r31, 0x0F	; 15
     dbc:	fb 15       	cp	r31, r11
     dbe:	c8 f0       	brcs	.+50     	; 0xdf2 <oled_write_line_to_SRAM+0xd8>
     dc0:	c0 ef       	ldi	r28, 0xF0	; 240
     dc2:	d0 e0       	ldi	r29, 0x00	; 0
     dc4:	86 01       	movw	r16, r12
     dc6:	88 e0       	ldi	r24, 0x08	; 8
     dc8:	b8 9e       	mul	r11, r24
     dca:	00 0d       	add	r16, r0
     dcc:	11 1d       	adc	r17, r1
     dce:	11 24       	eor	r1, r1
     dd0:	08 19       	sub	r16, r8
     dd2:	19 09       	sbc	r17, r9
     dd4:	e6 cf       	rjmp	.-52     	; 0xda2 <oled_write_line_to_SRAM+0x88>
     dd6:	b1 2c       	mov	r11, r1
     dd8:	0f 2e       	mov	r0, r31
     dda:	f0 ef       	ldi	r31, 0xF0	; 240
     ddc:	8f 2e       	mov	r8, r31
     dde:	f0 e0       	ldi	r31, 0x00	; 0
     de0:	9f 2e       	mov	r9, r31
     de2:	f0 2d       	mov	r31, r0
     de4:	0f 2e       	mov	r0, r31
     de6:	f8 ef       	ldi	r31, 0xF8	; 248
     de8:	ef 2e       	mov	r14, r31
     dea:	f0 e0       	ldi	r31, 0x00	; 0
     dec:	ff 2e       	mov	r15, r31
     dee:	f0 2d       	mov	r31, r0
     df0:	e7 cf       	rjmp	.-50     	; 0xdc0 <oled_write_line_to_SRAM+0xa6>
     df2:	df 91       	pop	r29
     df4:	cf 91       	pop	r28
     df6:	1f 91       	pop	r17
     df8:	0f 91       	pop	r16
     dfa:	ff 90       	pop	r15
     dfc:	ef 90       	pop	r14
     dfe:	df 90       	pop	r13
     e00:	cf 90       	pop	r12
     e02:	bf 90       	pop	r11
     e04:	9f 90       	pop	r9
     e06:	8f 90       	pop	r8
     e08:	08 95       	ret

00000e0a <oled_write_pixel_to_SRAM>:
     e0a:	0f 93       	push	r16
     e0c:	1f 93       	push	r17
     e0e:	cf 93       	push	r28
     e10:	df 93       	push	r29
     e12:	80 34       	cpi	r24, 0x40	; 64
     e14:	48 f5       	brcc	.+82     	; 0xe68 <oled_write_pixel_to_SRAM+0x5e>
     e16:	66 23       	and	r22, r22
     e18:	3c f1       	brlt	.+78     	; 0xe68 <oled_write_pixel_to_SRAM+0x5e>
     e1a:	04 2f       	mov	r16, r20
     e1c:	18 2f       	mov	r17, r24
     e1e:	86 95       	lsr	r24
     e20:	86 95       	lsr	r24
     e22:	86 95       	lsr	r24
     e24:	c6 2f       	mov	r28, r22
     e26:	d0 e0       	ldi	r29, 0x00	; 0
     e28:	90 e8       	ldi	r25, 0x80	; 128
     e2a:	89 9f       	mul	r24, r25
     e2c:	c0 0d       	add	r28, r0
     e2e:	d1 1d       	adc	r29, r1
     e30:	11 24       	eor	r1, r1
     e32:	ce 01       	movw	r24, r28
     e34:	0e 94 b7 08 	call	0x116e	; 0x116e <SRAM_read>
     e38:	17 70       	andi	r17, 0x07	; 7
     e3a:	00 23       	and	r16, r16
     e3c:	49 f0       	breq	.+18     	; 0xe50 <oled_write_pixel_to_SRAM+0x46>
     e3e:	61 e0       	ldi	r22, 0x01	; 1
     e40:	70 e0       	ldi	r23, 0x00	; 0
     e42:	02 c0       	rjmp	.+4      	; 0xe48 <oled_write_pixel_to_SRAM+0x3e>
     e44:	66 0f       	add	r22, r22
     e46:	77 1f       	adc	r23, r23
     e48:	1a 95       	dec	r17
     e4a:	e2 f7       	brpl	.-8      	; 0xe44 <oled_write_pixel_to_SRAM+0x3a>
     e4c:	68 2b       	or	r22, r24
     e4e:	09 c0       	rjmp	.+18     	; 0xe62 <oled_write_pixel_to_SRAM+0x58>
     e50:	61 e0       	ldi	r22, 0x01	; 1
     e52:	70 e0       	ldi	r23, 0x00	; 0
     e54:	02 c0       	rjmp	.+4      	; 0xe5a <oled_write_pixel_to_SRAM+0x50>
     e56:	66 0f       	add	r22, r22
     e58:	77 1f       	adc	r23, r23
     e5a:	1a 95       	dec	r17
     e5c:	e2 f7       	brpl	.-8      	; 0xe56 <oled_write_pixel_to_SRAM+0x4c>
     e5e:	60 95       	com	r22
     e60:	68 23       	and	r22, r24
     e62:	ce 01       	movw	r24, r28
     e64:	0e 94 a7 08 	call	0x114e	; 0x114e <SRAM_write>
     e68:	df 91       	pop	r29
     e6a:	cf 91       	pop	r28
     e6c:	1f 91       	pop	r17
     e6e:	0f 91       	pop	r16
     e70:	08 95       	ret

00000e72 <oled_clear_screen>:
     e72:	cf 93       	push	r28
     e74:	df 93       	push	r29
     e76:	c0 e0       	ldi	r28, 0x00	; 0
     e78:	d0 e0       	ldi	r29, 0x00	; 0
     e7a:	60 e0       	ldi	r22, 0x00	; 0
     e7c:	ce 01       	movw	r24, r28
     e7e:	0e 94 a7 08 	call	0x114e	; 0x114e <SRAM_write>
     e82:	21 96       	adiw	r28, 0x01	; 1
     e84:	c1 15       	cp	r28, r1
     e86:	84 e0       	ldi	r24, 0x04	; 4
     e88:	d8 07       	cpc	r29, r24
     e8a:	b9 f7       	brne	.-18     	; 0xe7a <oled_clear_screen+0x8>
     e8c:	df 91       	pop	r29
     e8e:	cf 91       	pop	r28
     e90:	08 95       	ret

00000e92 <oled_draw_line>:
     e92:	6f 92       	push	r6
     e94:	7f 92       	push	r7
     e96:	8f 92       	push	r8
     e98:	9f 92       	push	r9
     e9a:	af 92       	push	r10
     e9c:	bf 92       	push	r11
     e9e:	cf 92       	push	r12
     ea0:	df 92       	push	r13
     ea2:	ef 92       	push	r14
     ea4:	ff 92       	push	r15
     ea6:	0f 93       	push	r16
     ea8:	1f 93       	push	r17
     eaa:	cf 93       	push	r28
     eac:	df 93       	push	r29
     eae:	c8 2f       	mov	r28, r24
     eb0:	d6 2f       	mov	r29, r22
     eb2:	94 2e       	mov	r9, r20
     eb4:	62 2e       	mov	r6, r18
     eb6:	84 2f       	mov	r24, r20
     eb8:	90 e0       	ldi	r25, 0x00	; 0
     eba:	8c 1b       	sub	r24, r28
     ebc:	91 09       	sbc	r25, r1
     ebe:	7c 01       	movw	r14, r24
     ec0:	22 f4       	brpl	.+8      	; 0xeca <oled_draw_line+0x38>
     ec2:	ee 24       	eor	r14, r14
     ec4:	ff 24       	eor	r15, r15
     ec6:	e8 1a       	sub	r14, r24
     ec8:	f9 0a       	sbc	r15, r25
     eca:	86 2d       	mov	r24, r6
     ecc:	90 e0       	ldi	r25, 0x00	; 0
     ece:	8d 1b       	sub	r24, r29
     ed0:	91 09       	sbc	r25, r1
     ed2:	5c 01       	movw	r10, r24
     ed4:	22 f4       	brpl	.+8      	; 0xede <oled_draw_line+0x4c>
     ed6:	aa 24       	eor	r10, r10
     ed8:	bb 24       	eor	r11, r11
     eda:	a8 1a       	sub	r10, r24
     edc:	b9 0a       	sbc	r11, r25
     ede:	c9 15       	cp	r28, r9
     ee0:	18 f0       	brcs	.+6      	; 0xee8 <oled_draw_line+0x56>
     ee2:	88 24       	eor	r8, r8
     ee4:	8a 94       	dec	r8
     ee6:	02 c0       	rjmp	.+4      	; 0xeec <oled_draw_line+0x5a>
     ee8:	88 24       	eor	r8, r8
     eea:	83 94       	inc	r8
     eec:	d6 15       	cp	r29, r6
     eee:	18 f0       	brcs	.+6      	; 0xef6 <oled_draw_line+0x64>
     ef0:	77 24       	eor	r7, r7
     ef2:	7a 94       	dec	r7
     ef4:	02 c0       	rjmp	.+4      	; 0xefa <oled_draw_line+0x68>
     ef6:	77 24       	eor	r7, r7
     ef8:	73 94       	inc	r7
     efa:	87 01       	movw	r16, r14
     efc:	0a 19       	sub	r16, r10
     efe:	1b 09       	sbc	r17, r11
     f00:	cc 24       	eor	r12, r12
     f02:	dd 24       	eor	r13, r13
     f04:	ca 18       	sub	r12, r10
     f06:	db 08       	sbc	r13, r11
     f08:	41 e0       	ldi	r20, 0x01	; 1
     f0a:	6c 2f       	mov	r22, r28
     f0c:	8d 2f       	mov	r24, r29
     f0e:	0e 94 05 07 	call	0xe0a	; 0xe0a <oled_write_pixel_to_SRAM>
     f12:	c9 11       	cpse	r28, r9
     f14:	02 c0       	rjmp	.+4      	; 0xf1a <oled_draw_line+0x88>
     f16:	d6 15       	cp	r29, r6
     f18:	81 f0       	breq	.+32     	; 0xf3a <oled_draw_line+0xa8>
     f1a:	c8 01       	movw	r24, r16
     f1c:	88 0f       	add	r24, r24
     f1e:	99 1f       	adc	r25, r25
     f20:	c8 16       	cp	r12, r24
     f22:	d9 06       	cpc	r13, r25
     f24:	1c f4       	brge	.+6      	; 0xf2c <oled_draw_line+0x9a>
     f26:	0a 19       	sub	r16, r10
     f28:	1b 09       	sbc	r17, r11
     f2a:	c8 0d       	add	r28, r8
     f2c:	8e 15       	cp	r24, r14
     f2e:	9f 05       	cpc	r25, r15
     f30:	5c f7       	brge	.-42     	; 0xf08 <oled_draw_line+0x76>
     f32:	0e 0d       	add	r16, r14
     f34:	1f 1d       	adc	r17, r15
     f36:	d7 0d       	add	r29, r7
     f38:	e7 cf       	rjmp	.-50     	; 0xf08 <oled_draw_line+0x76>
     f3a:	df 91       	pop	r29
     f3c:	cf 91       	pop	r28
     f3e:	1f 91       	pop	r17
     f40:	0f 91       	pop	r16
     f42:	ff 90       	pop	r15
     f44:	ef 90       	pop	r14
     f46:	df 90       	pop	r13
     f48:	cf 90       	pop	r12
     f4a:	bf 90       	pop	r11
     f4c:	af 90       	pop	r10
     f4e:	9f 90       	pop	r9
     f50:	8f 90       	pop	r8
     f52:	7f 90       	pop	r7
     f54:	6f 90       	pop	r6
     f56:	08 95       	ret

00000f58 <oled_draw_circle>:
     f58:	9f 92       	push	r9
     f5a:	af 92       	push	r10
     f5c:	bf 92       	push	r11
     f5e:	cf 92       	push	r12
     f60:	df 92       	push	r13
     f62:	ef 92       	push	r14
     f64:	ff 92       	push	r15
     f66:	0f 93       	push	r16
     f68:	1f 93       	push	r17
     f6a:	cf 93       	push	r28
     f6c:	df 93       	push	r29
     f6e:	98 2e       	mov	r9, r24
     f70:	c6 2e       	mov	r12, r22
     f72:	c4 2f       	mov	r28, r20
     f74:	d0 e0       	ldi	r29, 0x00	; 0
     f76:	a1 2c       	mov	r10, r1
     f78:	b1 2c       	mov	r11, r1
     f7a:	00 e0       	ldi	r16, 0x00	; 0
     f7c:	10 e0       	ldi	r17, 0x00	; 0
     f7e:	41 e0       	ldi	r20, 0x01	; 1
     f80:	fc 2e       	mov	r15, r28
     f82:	f9 0c       	add	r15, r9
     f84:	6f 2d       	mov	r22, r15
     f86:	dc 2c       	mov	r13, r12
     f88:	d0 0e       	add	r13, r16
     f8a:	8d 2d       	mov	r24, r13
     f8c:	0e 94 05 07 	call	0xe0a	; 0xe0a <oled_write_pixel_to_SRAM>
     f90:	41 e0       	ldi	r20, 0x01	; 1
     f92:	e9 2c       	mov	r14, r9
     f94:	ec 1a       	sub	r14, r28
     f96:	6e 2d       	mov	r22, r14
     f98:	8d 2d       	mov	r24, r13
     f9a:	0e 94 05 07 	call	0xe0a	; 0xe0a <oled_write_pixel_to_SRAM>
     f9e:	41 e0       	ldi	r20, 0x01	; 1
     fa0:	6f 2d       	mov	r22, r15
     fa2:	fc 2c       	mov	r15, r12
     fa4:	f0 1a       	sub	r15, r16
     fa6:	8f 2d       	mov	r24, r15
     fa8:	0e 94 05 07 	call	0xe0a	; 0xe0a <oled_write_pixel_to_SRAM>
     fac:	41 e0       	ldi	r20, 0x01	; 1
     fae:	6e 2d       	mov	r22, r14
     fb0:	8f 2d       	mov	r24, r15
     fb2:	0e 94 05 07 	call	0xe0a	; 0xe0a <oled_write_pixel_to_SRAM>
     fb6:	41 e0       	ldi	r20, 0x01	; 1
     fb8:	f9 2c       	mov	r15, r9
     fba:	f0 0e       	add	r15, r16
     fbc:	6f 2d       	mov	r22, r15
     fbe:	dc 2e       	mov	r13, r28
     fc0:	dc 0c       	add	r13, r12
     fc2:	8d 2d       	mov	r24, r13
     fc4:	0e 94 05 07 	call	0xe0a	; 0xe0a <oled_write_pixel_to_SRAM>
     fc8:	41 e0       	ldi	r20, 0x01	; 1
     fca:	e9 2c       	mov	r14, r9
     fcc:	e0 1a       	sub	r14, r16
     fce:	6e 2d       	mov	r22, r14
     fd0:	8d 2d       	mov	r24, r13
     fd2:	0e 94 05 07 	call	0xe0a	; 0xe0a <oled_write_pixel_to_SRAM>
     fd6:	41 e0       	ldi	r20, 0x01	; 1
     fd8:	6f 2d       	mov	r22, r15
     fda:	fc 2c       	mov	r15, r12
     fdc:	fc 1a       	sub	r15, r28
     fde:	8f 2d       	mov	r24, r15
     fe0:	0e 94 05 07 	call	0xe0a	; 0xe0a <oled_write_pixel_to_SRAM>
     fe4:	41 e0       	ldi	r20, 0x01	; 1
     fe6:	6e 2d       	mov	r22, r14
     fe8:	8f 2d       	mov	r24, r15
     fea:	0e 94 05 07 	call	0xe0a	; 0xe0a <oled_write_pixel_to_SRAM>
     fee:	1a 14       	cp	r1, r10
     ff0:	1b 04       	cpc	r1, r11
     ff2:	5c f0       	brlt	.+22     	; 0x100a <oled_draw_circle+0xb2>
     ff4:	0f 5f       	subi	r16, 0xFF	; 255
     ff6:	1f 4f       	sbci	r17, 0xFF	; 255
     ff8:	c8 01       	movw	r24, r16
     ffa:	88 0f       	add	r24, r24
     ffc:	99 1f       	adc	r25, r25
     ffe:	01 96       	adiw	r24, 0x01	; 1
    1000:	a8 0e       	add	r10, r24
    1002:	b9 1e       	adc	r11, r25
    1004:	1a 14       	cp	r1, r10
    1006:	1b 04       	cpc	r1, r11
    1008:	3c f4       	brge	.+14     	; 0x1018 <oled_draw_circle+0xc0>
    100a:	21 97       	sbiw	r28, 0x01	; 1
    100c:	ce 01       	movw	r24, r28
    100e:	88 0f       	add	r24, r24
    1010:	99 1f       	adc	r25, r25
    1012:	01 96       	adiw	r24, 0x01	; 1
    1014:	a8 1a       	sub	r10, r24
    1016:	b9 0a       	sbc	r11, r25
    1018:	c0 17       	cp	r28, r16
    101a:	d1 07       	cpc	r29, r17
    101c:	0c f0       	brlt	.+2      	; 0x1020 <oled_draw_circle+0xc8>
    101e:	af cf       	rjmp	.-162    	; 0xf7e <oled_draw_circle+0x26>
    1020:	df 91       	pop	r29
    1022:	cf 91       	pop	r28
    1024:	1f 91       	pop	r17
    1026:	0f 91       	pop	r16
    1028:	ff 90       	pop	r15
    102a:	ef 90       	pop	r14
    102c:	df 90       	pop	r13
    102e:	cf 90       	pop	r12
    1030:	bf 90       	pop	r11
    1032:	af 90       	pop	r10
    1034:	9f 90       	pop	r9
    1036:	08 95       	ret

00001038 <oled_draw_square>:
    1038:	0f 93       	push	r16
    103a:	1f 93       	push	r17
    103c:	cf 93       	push	r28
    103e:	df 93       	push	r29
    1040:	08 2f       	mov	r16, r24
    1042:	16 2f       	mov	r17, r22
    1044:	d2 2f       	mov	r29, r18
    1046:	c8 2f       	mov	r28, r24
    1048:	c4 0f       	add	r28, r20
    104a:	26 2f       	mov	r18, r22
    104c:	4c 2f       	mov	r20, r28
    104e:	0e 94 49 07 	call	0xe92	; 0xe92 <oled_draw_line>
    1052:	d1 0f       	add	r29, r17
    1054:	2d 2f       	mov	r18, r29
    1056:	4c 2f       	mov	r20, r28
    1058:	6d 2f       	mov	r22, r29
    105a:	80 2f       	mov	r24, r16
    105c:	0e 94 49 07 	call	0xe92	; 0xe92 <oled_draw_line>
    1060:	2d 2f       	mov	r18, r29
    1062:	40 2f       	mov	r20, r16
    1064:	61 2f       	mov	r22, r17
    1066:	80 2f       	mov	r24, r16
    1068:	0e 94 49 07 	call	0xe92	; 0xe92 <oled_draw_line>
    106c:	2d 2f       	mov	r18, r29
    106e:	4c 2f       	mov	r20, r28
    1070:	61 2f       	mov	r22, r17
    1072:	8c 2f       	mov	r24, r28
    1074:	0e 94 49 07 	call	0xe92	; 0xe92 <oled_draw_line>
    1078:	df 91       	pop	r29
    107a:	cf 91       	pop	r28
    107c:	1f 91       	pop	r17
    107e:	0f 91       	pop	r16
    1080:	08 95       	ret

00001082 <__vector_15>:
    1082:	1f 92       	push	r1
    1084:	0f 92       	push	r0
    1086:	0f b6       	in	r0, 0x3f	; 63
    1088:	0f 92       	push	r0
    108a:	11 24       	eor	r1, r1
    108c:	8f 93       	push	r24
    108e:	9f 93       	push	r25
    1090:	af 93       	push	r26
    1092:	bf 93       	push	r27
    1094:	80 91 c9 01 	lds	r24, 0x01C9	; 0x8001c9 <overflow_count>
    1098:	90 91 ca 01 	lds	r25, 0x01CA	; 0x8001ca <overflow_count+0x1>
    109c:	a0 91 cb 01 	lds	r26, 0x01CB	; 0x8001cb <overflow_count+0x2>
    10a0:	b0 91 cc 01 	lds	r27, 0x01CC	; 0x8001cc <overflow_count+0x3>
    10a4:	01 96       	adiw	r24, 0x01	; 1
    10a6:	a1 1d       	adc	r26, r1
    10a8:	b1 1d       	adc	r27, r1
    10aa:	80 93 c9 01 	sts	0x01C9, r24	; 0x8001c9 <overflow_count>
    10ae:	90 93 ca 01 	sts	0x01CA, r25	; 0x8001ca <overflow_count+0x1>
    10b2:	a0 93 cb 01 	sts	0x01CB, r26	; 0x8001cb <overflow_count+0x2>
    10b6:	b0 93 cc 01 	sts	0x01CC, r27	; 0x8001cc <overflow_count+0x3>
    10ba:	bf 91       	pop	r27
    10bc:	af 91       	pop	r26
    10be:	9f 91       	pop	r25
    10c0:	8f 91       	pop	r24
    10c2:	0f 90       	pop	r0
    10c4:	0f be       	out	0x3f, r0	; 63
    10c6:	0f 90       	pop	r0
    10c8:	1f 90       	pop	r1
    10ca:	18 95       	reti

000010cc <get_time_in_cycles>:
    10cc:	80 91 c9 01 	lds	r24, 0x01C9	; 0x8001c9 <overflow_count>
    10d0:	90 91 ca 01 	lds	r25, 0x01CA	; 0x8001ca <overflow_count+0x1>
    10d4:	a0 91 cb 01 	lds	r26, 0x01CB	; 0x8001cb <overflow_count+0x2>
    10d8:	b0 91 cc 01 	lds	r27, 0x01CC	; 0x8001cc <overflow_count+0x3>
    10dc:	2c b5       	in	r18, 0x2c	; 44
    10de:	3d b5       	in	r19, 0x2d	; 45
    10e0:	dc 01       	movw	r26, r24
    10e2:	99 27       	eor	r25, r25
    10e4:	88 27       	eor	r24, r24
    10e6:	bc 01       	movw	r22, r24
    10e8:	cd 01       	movw	r24, r26
    10ea:	62 0f       	add	r22, r18
    10ec:	73 1f       	adc	r23, r19
    10ee:	81 1d       	adc	r24, r1
    10f0:	91 1d       	adc	r25, r1
    10f2:	08 95       	ret

000010f4 <get_time_in_ms>:
    10f4:	0e 94 66 08 	call	0x10cc	; 0x10cc <get_time_in_cycles>
    10f8:	23 e3       	ldi	r18, 0x33	; 51
    10fa:	33 e1       	ldi	r19, 0x13	; 19
    10fc:	40 e0       	ldi	r20, 0x00	; 0
    10fe:	50 e0       	ldi	r21, 0x00	; 0
    1100:	0e 94 fb 08 	call	0x11f6	; 0x11f6 <__udivmodsi4>
    1104:	ca 01       	movw	r24, r20
    1106:	b9 01       	movw	r22, r18
    1108:	08 95       	ret

0000110a <setup_timer>:
    110a:	1f bc       	out	0x2f, r1	; 47
    110c:	81 e0       	ldi	r24, 0x01	; 1
    110e:	8e bd       	out	0x2e, r24	; 46
    1110:	80 e8       	ldi	r24, 0x80	; 128
    1112:	89 bf       	out	0x39, r24	; 57
    1114:	1d bc       	out	0x2d, r1	; 45
    1116:	1c bc       	out	0x2c, r1	; 44
    1118:	08 95       	ret

0000111a <restart_timer>:
    111a:	1d bc       	out	0x2d, r1	; 45
    111c:	1c bc       	out	0x2c, r1	; 44
    111e:	10 92 c9 01 	sts	0x01C9, r1	; 0x8001c9 <overflow_count>
    1122:	10 92 ca 01 	sts	0x01CA, r1	; 0x8001ca <overflow_count+0x1>
    1126:	10 92 cb 01 	sts	0x01CB, r1	; 0x8001cb <overflow_count+0x2>
    112a:	10 92 cc 01 	sts	0x01CC, r1	; 0x8001cc <overflow_count+0x3>
    112e:	08 95       	ret

00001130 <externalMemoryInit>:
    1130:	8f ef       	ldi	r24, 0xFF	; 255
    1132:	8a bb       	out	0x1a, r24	; 26
    1134:	8f e0       	ldi	r24, 0x0F	; 15
    1136:	84 bb       	out	0x14, r24	; 20
    1138:	8e 9a       	sbi	0x11, 6	; 17
    113a:	8f 9a       	sbi	0x11, 7	; 17
    113c:	31 9a       	sbi	0x06, 1	; 6
    113e:	85 b7       	in	r24, 0x35	; 53
    1140:	80 68       	ori	r24, 0x80	; 128
    1142:	85 bf       	out	0x35, r24	; 53
    1144:	10 be       	out	0x30, r1	; 48
    1146:	80 b7       	in	r24, 0x30	; 48
    1148:	80 62       	ori	r24, 0x20	; 32
    114a:	80 bf       	out	0x30, r24	; 48
    114c:	08 95       	ret

0000114e <SRAM_write>:
    114e:	cf 93       	push	r28
    1150:	df 93       	push	r29
    1152:	00 d0       	rcall	.+0      	; 0x1154 <SRAM_write+0x6>
    1154:	cd b7       	in	r28, 0x3d	; 61
    1156:	de b7       	in	r29, 0x3e	; 62
    1158:	9a 83       	std	Y+2, r25	; 0x02
    115a:	89 83       	std	Y+1, r24	; 0x01
    115c:	e9 81       	ldd	r30, Y+1	; 0x01
    115e:	fa 81       	ldd	r31, Y+2	; 0x02
    1160:	f8 5e       	subi	r31, 0xE8	; 232
    1162:	60 83       	st	Z, r22
    1164:	0f 90       	pop	r0
    1166:	0f 90       	pop	r0
    1168:	df 91       	pop	r29
    116a:	cf 91       	pop	r28
    116c:	08 95       	ret

0000116e <SRAM_read>:
    116e:	cf 93       	push	r28
    1170:	df 93       	push	r29
    1172:	00 d0       	rcall	.+0      	; 0x1174 <SRAM_read+0x6>
    1174:	cd b7       	in	r28, 0x3d	; 61
    1176:	de b7       	in	r29, 0x3e	; 62
    1178:	9a 83       	std	Y+2, r25	; 0x02
    117a:	89 83       	std	Y+1, r24	; 0x01
    117c:	e9 81       	ldd	r30, Y+1	; 0x01
    117e:	fa 81       	ldd	r31, Y+2	; 0x02
    1180:	f8 5e       	subi	r31, 0xE8	; 232
    1182:	80 81       	ld	r24, Z
    1184:	0f 90       	pop	r0
    1186:	0f 90       	pop	r0
    1188:	df 91       	pop	r29
    118a:	cf 91       	pop	r28
    118c:	08 95       	ret

0000118e <Universal_write>:
    118e:	cf 93       	push	r28
    1190:	df 93       	push	r29
    1192:	00 d0       	rcall	.+0      	; 0x1194 <Universal_write+0x6>
    1194:	cd b7       	in	r28, 0x3d	; 61
    1196:	de b7       	in	r29, 0x3e	; 62
    1198:	9a 83       	std	Y+2, r25	; 0x02
    119a:	89 83       	std	Y+1, r24	; 0x01
    119c:	e9 81       	ldd	r30, Y+1	; 0x01
    119e:	fa 81       	ldd	r31, Y+2	; 0x02
    11a0:	f0 5f       	subi	r31, 0xF0	; 240
    11a2:	60 83       	st	Z, r22
    11a4:	0f 90       	pop	r0
    11a6:	0f 90       	pop	r0
    11a8:	df 91       	pop	r29
    11aa:	cf 91       	pop	r28
    11ac:	08 95       	ret

000011ae <Universal_read>:
    11ae:	cf 93       	push	r28
    11b0:	df 93       	push	r29
    11b2:	00 d0       	rcall	.+0      	; 0x11b4 <Universal_read+0x6>
    11b4:	cd b7       	in	r28, 0x3d	; 61
    11b6:	de b7       	in	r29, 0x3e	; 62
    11b8:	9a 83       	std	Y+2, r25	; 0x02
    11ba:	89 83       	std	Y+1, r24	; 0x01
    11bc:	e9 81       	ldd	r30, Y+1	; 0x01
    11be:	fa 81       	ldd	r31, Y+2	; 0x02
    11c0:	f0 5f       	subi	r31, 0xF0	; 240
    11c2:	80 81       	ld	r24, Z
    11c4:	0f 90       	pop	r0
    11c6:	0f 90       	pop	r0
    11c8:	df 91       	pop	r29
    11ca:	cf 91       	pop	r28
    11cc:	08 95       	ret

000011ce <__divmodhi4>:
    11ce:	97 fb       	bst	r25, 7
    11d0:	07 2e       	mov	r0, r23
    11d2:	16 f4       	brtc	.+4      	; 0x11d8 <__divmodhi4+0xa>
    11d4:	00 94       	com	r0
    11d6:	07 d0       	rcall	.+14     	; 0x11e6 <__divmodhi4_neg1>
    11d8:	77 fd       	sbrc	r23, 7
    11da:	09 d0       	rcall	.+18     	; 0x11ee <__divmodhi4_neg2>
    11dc:	0e 94 1d 09 	call	0x123a	; 0x123a <__udivmodhi4>
    11e0:	07 fc       	sbrc	r0, 7
    11e2:	05 d0       	rcall	.+10     	; 0x11ee <__divmodhi4_neg2>
    11e4:	3e f4       	brtc	.+14     	; 0x11f4 <__divmodhi4_exit>

000011e6 <__divmodhi4_neg1>:
    11e6:	90 95       	com	r25
    11e8:	81 95       	neg	r24
    11ea:	9f 4f       	sbci	r25, 0xFF	; 255
    11ec:	08 95       	ret

000011ee <__divmodhi4_neg2>:
    11ee:	70 95       	com	r23
    11f0:	61 95       	neg	r22
    11f2:	7f 4f       	sbci	r23, 0xFF	; 255

000011f4 <__divmodhi4_exit>:
    11f4:	08 95       	ret

000011f6 <__udivmodsi4>:
    11f6:	a1 e2       	ldi	r26, 0x21	; 33
    11f8:	1a 2e       	mov	r1, r26
    11fa:	aa 1b       	sub	r26, r26
    11fc:	bb 1b       	sub	r27, r27
    11fe:	fd 01       	movw	r30, r26
    1200:	0d c0       	rjmp	.+26     	; 0x121c <__udivmodsi4_ep>

00001202 <__udivmodsi4_loop>:
    1202:	aa 1f       	adc	r26, r26
    1204:	bb 1f       	adc	r27, r27
    1206:	ee 1f       	adc	r30, r30
    1208:	ff 1f       	adc	r31, r31
    120a:	a2 17       	cp	r26, r18
    120c:	b3 07       	cpc	r27, r19
    120e:	e4 07       	cpc	r30, r20
    1210:	f5 07       	cpc	r31, r21
    1212:	20 f0       	brcs	.+8      	; 0x121c <__udivmodsi4_ep>
    1214:	a2 1b       	sub	r26, r18
    1216:	b3 0b       	sbc	r27, r19
    1218:	e4 0b       	sbc	r30, r20
    121a:	f5 0b       	sbc	r31, r21

0000121c <__udivmodsi4_ep>:
    121c:	66 1f       	adc	r22, r22
    121e:	77 1f       	adc	r23, r23
    1220:	88 1f       	adc	r24, r24
    1222:	99 1f       	adc	r25, r25
    1224:	1a 94       	dec	r1
    1226:	69 f7       	brne	.-38     	; 0x1202 <__udivmodsi4_loop>
    1228:	60 95       	com	r22
    122a:	70 95       	com	r23
    122c:	80 95       	com	r24
    122e:	90 95       	com	r25
    1230:	9b 01       	movw	r18, r22
    1232:	ac 01       	movw	r20, r24
    1234:	bd 01       	movw	r22, r26
    1236:	cf 01       	movw	r24, r30
    1238:	08 95       	ret

0000123a <__udivmodhi4>:
    123a:	aa 1b       	sub	r26, r26
    123c:	bb 1b       	sub	r27, r27
    123e:	51 e1       	ldi	r21, 0x11	; 17
    1240:	07 c0       	rjmp	.+14     	; 0x1250 <__udivmodhi4_ep>

00001242 <__udivmodhi4_loop>:
    1242:	aa 1f       	adc	r26, r26
    1244:	bb 1f       	adc	r27, r27
    1246:	a6 17       	cp	r26, r22
    1248:	b7 07       	cpc	r27, r23
    124a:	10 f0       	brcs	.+4      	; 0x1250 <__udivmodhi4_ep>
    124c:	a6 1b       	sub	r26, r22
    124e:	b7 0b       	sbc	r27, r23

00001250 <__udivmodhi4_ep>:
    1250:	88 1f       	adc	r24, r24
    1252:	99 1f       	adc	r25, r25
    1254:	5a 95       	dec	r21
    1256:	a9 f7       	brne	.-22     	; 0x1242 <__udivmodhi4_loop>
    1258:	80 95       	com	r24
    125a:	90 95       	com	r25
    125c:	bc 01       	movw	r22, r24
    125e:	cd 01       	movw	r24, r26
    1260:	08 95       	ret

00001262 <puts>:
    1262:	0f 93       	push	r16
    1264:	1f 93       	push	r17
    1266:	cf 93       	push	r28
    1268:	df 93       	push	r29
    126a:	e0 91 e1 01 	lds	r30, 0x01E1	; 0x8001e1 <__iob+0x2>
    126e:	f0 91 e2 01 	lds	r31, 0x01E2	; 0x8001e2 <__iob+0x3>
    1272:	23 81       	ldd	r18, Z+3	; 0x03
    1274:	21 ff       	sbrs	r18, 1
    1276:	1b c0       	rjmp	.+54     	; 0x12ae <puts+0x4c>
    1278:	8c 01       	movw	r16, r24
    127a:	d0 e0       	ldi	r29, 0x00	; 0
    127c:	c0 e0       	ldi	r28, 0x00	; 0
    127e:	f8 01       	movw	r30, r16
    1280:	81 91       	ld	r24, Z+
    1282:	8f 01       	movw	r16, r30
    1284:	60 91 e1 01 	lds	r22, 0x01E1	; 0x8001e1 <__iob+0x2>
    1288:	70 91 e2 01 	lds	r23, 0x01E2	; 0x8001e2 <__iob+0x3>
    128c:	db 01       	movw	r26, r22
    128e:	18 96       	adiw	r26, 0x08	; 8
    1290:	ed 91       	ld	r30, X+
    1292:	fc 91       	ld	r31, X
    1294:	19 97       	sbiw	r26, 0x09	; 9
    1296:	88 23       	and	r24, r24
    1298:	31 f0       	breq	.+12     	; 0x12a6 <puts+0x44>
    129a:	09 95       	icall
    129c:	89 2b       	or	r24, r25
    129e:	79 f3       	breq	.-34     	; 0x127e <puts+0x1c>
    12a0:	df ef       	ldi	r29, 0xFF	; 255
    12a2:	cf ef       	ldi	r28, 0xFF	; 255
    12a4:	ec cf       	rjmp	.-40     	; 0x127e <puts+0x1c>
    12a6:	8a e0       	ldi	r24, 0x0A	; 10
    12a8:	09 95       	icall
    12aa:	89 2b       	or	r24, r25
    12ac:	19 f0       	breq	.+6      	; 0x12b4 <puts+0x52>
    12ae:	8f ef       	ldi	r24, 0xFF	; 255
    12b0:	9f ef       	ldi	r25, 0xFF	; 255
    12b2:	02 c0       	rjmp	.+4      	; 0x12b8 <puts+0x56>
    12b4:	8d 2f       	mov	r24, r29
    12b6:	9c 2f       	mov	r25, r28
    12b8:	df 91       	pop	r29
    12ba:	cf 91       	pop	r28
    12bc:	1f 91       	pop	r17
    12be:	0f 91       	pop	r16
    12c0:	08 95       	ret

000012c2 <_exit>:
    12c2:	f8 94       	cli

000012c4 <__stop_program>:
    12c4:	ff cf       	rjmp	.-2      	; 0x12c4 <__stop_program>
