
ATmega162.elf:     file format elf32-avr

Sections:
Idx Name          Size      VMA       LMA       File off  Algn
  0 .data         00000148  00800100  00001fe6  0000207a  2**0
                  CONTENTS, ALLOC, LOAD, DATA
  1 .text         00001fe6  00000000  00000000  00000094  2**1
                  CONTENTS, ALLOC, LOAD, READONLY, CODE
  2 .bss          00000023  00800248  00800248  000021c2  2**0
                  ALLOC
  3 .comment      0000005c  00000000  00000000  000021c2  2**0
                  CONTENTS, READONLY
  4 .note.gnu.avr.deviceinfo 0000003c  00000000  00000000  00002220  2**2
                  CONTENTS, READONLY
  5 .debug_aranges 00000350  00000000  00000000  0000225c  2**0
                  CONTENTS, READONLY, DEBUGGING
  6 .debug_info   00003a82  00000000  00000000  000025ac  2**0
                  CONTENTS, READONLY, DEBUGGING
  7 .debug_abbrev 00001462  00000000  00000000  0000602e  2**0
                  CONTENTS, READONLY, DEBUGGING
  8 .debug_line   00001c0f  00000000  00000000  00007490  2**0
                  CONTENTS, READONLY, DEBUGGING
  9 .debug_frame  000009a8  00000000  00000000  000090a0  2**2
                  CONTENTS, READONLY, DEBUGGING
 10 .debug_str    00000ca3  00000000  00000000  00009a48  2**0
                  CONTENTS, READONLY, DEBUGGING
 11 .debug_loc    0000245d  00000000  00000000  0000a6eb  2**0
                  CONTENTS, READONLY, DEBUGGING
 12 .debug_ranges 00000320  00000000  00000000  0000cb48  2**0
                  CONTENTS, READONLY, DEBUGGING

Disassembly of section .text:

00000000 <__vectors>:
       0:	0c 94 f4 02 	jmp	0x5e8	; 0x5e8 <__ctors_end>
       4:	0c 94 11 03 	jmp	0x622	; 0x622 <__bad_interrupt>
       8:	0c 94 11 03 	jmp	0x622	; 0x622 <__bad_interrupt>
       c:	0c 94 11 03 	jmp	0x622	; 0x622 <__bad_interrupt>
      10:	0c 94 11 03 	jmp	0x622	; 0x622 <__bad_interrupt>
      14:	0c 94 11 03 	jmp	0x622	; 0x622 <__bad_interrupt>
      18:	0c 94 11 03 	jmp	0x622	; 0x622 <__bad_interrupt>
      1c:	0c 94 11 03 	jmp	0x622	; 0x622 <__bad_interrupt>
      20:	0c 94 11 03 	jmp	0x622	; 0x622 <__bad_interrupt>
      24:	0c 94 a5 0b 	jmp	0x174a	; 0x174a <__vector_9>
      28:	0c 94 11 03 	jmp	0x622	; 0x622 <__bad_interrupt>
      2c:	0c 94 11 03 	jmp	0x622	; 0x622 <__bad_interrupt>
      30:	0c 94 11 03 	jmp	0x622	; 0x622 <__bad_interrupt>
      34:	0c 94 11 03 	jmp	0x622	; 0x622 <__bad_interrupt>
      38:	0c 94 11 03 	jmp	0x622	; 0x622 <__bad_interrupt>
      3c:	0c 94 80 0b 	jmp	0x1700	; 0x1700 <__vector_15>
      40:	0c 94 11 03 	jmp	0x622	; 0x622 <__bad_interrupt>
      44:	0c 94 11 03 	jmp	0x622	; 0x622 <__bad_interrupt>
      48:	0c 94 11 03 	jmp	0x622	; 0x622 <__bad_interrupt>
      4c:	0c 94 34 04 	jmp	0x868	; 0x868 <__vector_19>
      50:	0c 94 11 03 	jmp	0x622	; 0x622 <__bad_interrupt>
      54:	0c 94 11 03 	jmp	0x622	; 0x622 <__bad_interrupt>
      58:	0c 94 11 03 	jmp	0x622	; 0x622 <__bad_interrupt>
      5c:	0c 94 11 03 	jmp	0x622	; 0x622 <__bad_interrupt>
      60:	0c 94 11 03 	jmp	0x622	; 0x622 <__bad_interrupt>
      64:	0c 94 11 03 	jmp	0x622	; 0x622 <__bad_interrupt>
      68:	0c 94 11 03 	jmp	0x622	; 0x622 <__bad_interrupt>
      6c:	0c 94 11 03 	jmp	0x622	; 0x622 <__bad_interrupt>

00000070 <__trampolines_end>:
      70:	20 53       	subi	r18, 0x30	; 48
      72:	6f 75       	andi	r22, 0x5F	; 95
      74:	6e 64       	ori	r22, 0x4E	; 78
      76:	20 20       	and	r2, r0
      78:	20 20       	and	r2, r0
      7a:	20 20       	and	r2, r0
      7c:	20 20       	and	r2, r0
      7e:	20 20       	and	r2, r0
      80:	20 42       	sbci	r18, 0x20	; 32
      82:	72 69       	ori	r23, 0x92	; 146
      84:	67 68       	ori	r22, 0x87	; 135
      86:	74 6e       	ori	r23, 0xE4	; 228
      88:	65 73       	andi	r22, 0x35	; 53
      8a:	73 20       	and	r7, r3
      8c:	20 20       	and	r2, r0
      8e:	20 20       	and	r2, r0
      90:	20 43       	sbci	r18, 0x30	; 48
      92:	6f 6e       	ori	r22, 0xEF	; 239
      94:	74 72       	andi	r23, 0x24	; 36
      96:	6f 6c       	ori	r22, 0xCF	; 207
      98:	73 20       	and	r7, r3
      9a:	20 20       	and	r2, r0
      9c:	20 20       	and	r2, r0
      9e:	20 20       	and	r2, r0
      a0:	20 42       	sbci	r18, 0x20	; 32
      a2:	61 63       	ori	r22, 0x31	; 49
      a4:	6b 20       	and	r6, r11
      a6:	20 20       	and	r2, r0
      a8:	20 20       	and	r2, r0
      aa:	20 20       	and	r2, r0
      ac:	20 20       	and	r2, r0
      ae:	20 20       	and	r2, r0

000000b0 <scrollMenuItems>:
      b0:	20 49 74 65 6d 20 31 20 20 42 41 43 4b 20 20 20      Item 1  BACK   
      c0:	20 49 74 65 6d 20 32 20 20 20 20 20 20 20 20 20      Item 2         
      d0:	20 49 74 65 6d 20 33 20 20 20 20 20 20 20 20 20      Item 3         
      e0:	20 49 74 65 6d 20 34 20 20 20 20 20 20 20 20 20      Item 4         
      f0:	20 49 74 65 6d 20 35 20 20 20 20 20 20 20 20 20      Item 5         
     100:	20 49 74 65 6d 20 36 20 20 20 20 20 20 20 20 20      Item 6         
     110:	20 49 74 65 6d 20 37 20 20 20 20 20 20 20 20 20      Item 7         
     120:	20 49 74 65 6d 20 38 20 20 20 20 20 20 20 20 20      Item 8         
     130:	20 49 74 65 6d 20 39 20 20 20 20 20 20 20 20 20      Item 9         
     140:	20 49 74 65 6d 20 31 30 20 20 20 20 20 20 20 20      Item 10        
     150:	20 49 74 65 6d 20 31 31 20 20 20 20 20 20 20 20      Item 11        
     160:	20 49 74 65 6d 20 31 32 20 20 20 20 20 20 20 20      Item 12        
     170:	20 49 74 65 6d 20 31 33 20 20 20 20 20 20 20 20      Item 13        
     180:	20 49 74 65 6d 20 31 34 20 20 20 20 20 20 20 20      Item 14        
     190:	20 49 74 65 6d 20 31 35 20 20 20 20 20 20 20 20      Item 15        
     1a0:	20 49 74 65 6d 20 31 36 20 20 20 20 20 20 20 20      Item 16        
     1b0:	20 49 74 65 6d 20 31 37 20 20 20 20 20 20 20 20      Item 17        
     1c0:	20 49 74 65 6d 20 31 38 20 20 20 20 20 20 20 20      Item 18        
     1d0:	20 49 74 65 6d 20 31 39 20 20 20 20 20 20 20 20      Item 19        
     1e0:	20 49 74 65 6d 20 32 30 20 20 20 20 20 20 20 20      Item 20        

000001f0 <mainMenuItems>:
     1f0:	20 53 74 61 72 74 20 47 61 6d 65 20 20 20 20 20      Start Game     
     200:	20 53 65 74 74 69 6e 67 73 20 20 20 20 20 20 20      Settings       
     210:	20 48 69 67 68 20 53 63 6f 72 65 73 20 20 20 20      High Scores    
     220:	20 43 72 65 64 69 74 73 20 20 20 20 20 20 20 20      Credits        
     230:	20 45 78 69 74 20 20 20 20 20 20 20 20 20 20 20      Exit           
	...

00000270 <solkors>:
     270:	20 20 20 79 61 70 40 40 40 2a 20 20 20 20 20 20        yap@@@*      
     280:	20 20 20 23 40 40 40 23 20 20 20 2a 23 20 20 20        #@@@#   *#   
     290:	20 20 23 40 40 40 2a 20 20 2a 40 40 40 40 23 20       #@@@*  *@@@@# 
     2a0:	2a 20 20 2b 23 40 40 40 40 40 40 20 20 40 40 40     *  +#@@@@@@  @@@
     2b0:	40 40 20 20 20 2b 40 40 40 40 2a 20 20 20 40 40     @@   +@@@@*   @@
     2c0:	40 40 40 25 25 40 40 40 40 40 40 20 2b 20 20 2a     @@@%%@@@@@@ +  *
     2d0:	20 23 40 40 40 40 2a 20 20 2a 40 40 40 23 20 20      #@@@@*  *@@@#  
     2e0:	20 20 20 23 23 20 20 20 23 40 40 40 23 20 20 20        ##   #@@@#   

000002f0 <font8x8_basic>:
	...
     2f8:	00 00 5f 00 00 00 00 00 00 07 00 07 00 00 00 00     .._.............
     308:	14 7f 14 7f 14 00 00 00 24 2a 7f 2a 12 00 00 00     ........$*.*....
     318:	23 13 08 64 62 00 00 00 36 49 56 20 50 00 00 00     #..db...6IV P...
     328:	00 08 07 03 00 00 00 00 00 1c 22 41 00 00 00 00     .........."A....
     338:	00 41 22 1c 00 00 00 00 14 08 3e 08 14 00 00 00     .A".......>.....
     348:	08 08 3e 08 08 00 00 00 00 50 30 00 00 00 00 00     ..>......P0.....
     358:	08 08 08 08 08 00 00 00 00 60 60 00 00 00 00 00     .........``.....
     368:	20 10 08 04 02 00 00 00 3e 51 49 45 3e 00 00 00      .......>QIE>...
     378:	00 42 7f 40 00 00 00 00 42 61 51 49 46 00 00 00     .B.@....BaQIF...
     388:	21 41 45 4b 31 00 00 00 18 14 12 7f 10 00 00 00     !AEK1...........
     398:	27 45 45 45 39 00 00 00 3c 4a 49 49 30 00 00 00     'EEE9...<JII0...
     3a8:	01 71 09 05 03 00 00 00 36 49 49 49 36 00 00 00     .q......6III6...
     3b8:	06 49 49 29 1e 00 00 00 00 36 36 00 00 00 00 00     .II).....66.....
     3c8:	00 56 36 00 00 00 00 00 08 14 22 41 00 00 00 00     .V6......."A....
     3d8:	14 14 14 14 14 14 00 00 41 22 14 08 00 00 00 00     ........A"......
     3e8:	02 01 51 09 06 00 00 00 3e 41 5d 5d 1e 00 00 00     ..Q.....>A]]....
     3f8:	7e 11 11 11 7e 00 00 00 7f 49 49 49 36 00 00 00     ~...~....III6...
     408:	3e 41 41 41 22 00 00 00 7f 41 41 22 1c 00 00 00     >AAA"....AA"....
     418:	7f 49 49 49 41 00 00 00 7f 09 09 09 01 00 00 00     .IIIA...........
     428:	3e 41 49 49 7a 00 00 00 7f 08 08 08 7f 00 00 00     >AIIz...........
     438:	00 41 7f 41 00 00 00 00 20 40 41 3f 01 00 00 00     .A.A.... @A?....
     448:	7f 08 14 22 41 00 00 00 7f 40 40 40 40 00 00 00     ..."A....@@@@...
     458:	7f 02 04 02 7f 00 00 00 7f 02 04 08 7f 00 00 00     ................
     468:	3e 41 41 41 3e 00 00 00 7f 09 09 09 06 00 00 00     >AAA>...........
     478:	3e 41 51 21 5e 00 00 00 7f 09 19 29 46 00 00 00     >AQ!^......)F...
     488:	46 49 49 49 31 00 00 00 01 01 7f 01 01 00 00 00     FIII1...........
     498:	3f 40 40 40 3f 00 00 00 1f 20 40 20 1f 00 00 00     ?@@@?.... @ ....
     4a8:	7f 20 18 20 7f 00 00 00 63 14 08 14 63 00 00 00     . . ....c...c...
     4b8:	03 04 78 04 03 00 00 00 61 51 49 45 43 00 00 00     ..x.....aQIEC...
     4c8:	00 3e 41 41 00 00 00 00 02 04 08 10 20 00 00 00     .>AA........ ...
     4d8:	00 41 41 3e 00 00 00 00 04 02 01 02 04 00 00 00     .AA>............
     4e8:	40 40 40 40 40 40 00 00 00 00 03 07 00 00 00 00     @@@@@@..........
     4f8:	20 54 54 54 78 00 00 00 7f 48 44 44 38 00 00 00      TTTx....HDD8...
     508:	38 44 44 44 20 00 00 00 38 44 44 48 7f 00 00 00     8DDD ...8DDH....
     518:	38 54 54 54 18 00 00 00 08 7e 09 01 02 00 00 00     8TTT.....~......
     528:	08 14 54 54 3c 00 00 00 7f 08 04 04 78 00 00 00     ..TT<.......x...
     538:	00 44 7d 40 00 00 00 00 20 40 44 3d 00 00 00 00     .D}@.... @D=....
     548:	00 7f 10 28 44 00 00 00 00 41 7f 40 00 00 00 00     ...(D....A.@....
     558:	7c 04 18 04 78 00 00 00 7c 08 04 04 78 00 00 00     |...x...|...x...
     568:	38 44 44 44 38 00 00 00 7c 14 14 14 08 00 00 00     8DDD8...|.......
     578:	08 14 14 18 7c 00 00 00 7c 08 04 04 08 00 00 00     ....|...|.......
     588:	48 54 54 54 20 00 00 00 04 3f 44 40 20 00 00 00     HTTT ....?D@ ...
     598:	3c 40 40 20 7c 00 00 00 1c 20 40 20 1c 00 00 00     <@@ |.... @ ....
     5a8:	3c 40 30 40 3c 00 00 00 44 28 10 28 44 00 00 00     <@0@<...D(.(D...
     5b8:	0c 50 50 50 3c 00 00 00 44 64 54 4c 44 00 00 00     .PPP<...DdTLD...
     5c8:	00 08 36 41 00 00 00 00 00 00 7f 00 00 00 00 00     ..6A............
     5d8:	00 41 36 08 00 00 00 00 08 04 08 10 08 00 00 00     .A6.............

000005e8 <__ctors_end>:
     5e8:	11 24       	eor	r1, r1
     5ea:	1f be       	out	0x3f, r1	; 63
     5ec:	cf ef       	ldi	r28, 0xFF	; 255
     5ee:	d4 e0       	ldi	r29, 0x04	; 4
     5f0:	de bf       	out	0x3e, r29	; 62
     5f2:	cd bf       	out	0x3d, r28	; 61

000005f4 <__do_copy_data>:
     5f4:	12 e0       	ldi	r17, 0x02	; 2
     5f6:	a0 e0       	ldi	r26, 0x00	; 0
     5f8:	b1 e0       	ldi	r27, 0x01	; 1
     5fa:	e6 ee       	ldi	r30, 0xE6	; 230
     5fc:	ff e1       	ldi	r31, 0x1F	; 31
     5fe:	02 c0       	rjmp	.+4      	; 0x604 <__do_copy_data+0x10>
     600:	05 90       	lpm	r0, Z+
     602:	0d 92       	st	X+, r0
     604:	a8 34       	cpi	r26, 0x48	; 72
     606:	b1 07       	cpc	r27, r17
     608:	d9 f7       	brne	.-10     	; 0x600 <__do_copy_data+0xc>

0000060a <__do_clear_bss>:
     60a:	22 e0       	ldi	r18, 0x02	; 2
     60c:	a8 e4       	ldi	r26, 0x48	; 72
     60e:	b2 e0       	ldi	r27, 0x02	; 2
     610:	01 c0       	rjmp	.+2      	; 0x614 <.do_clear_bss_start>

00000612 <.do_clear_bss_loop>:
     612:	1d 92       	st	X+, r1

00000614 <.do_clear_bss_start>:
     614:	ab 36       	cpi	r26, 0x6B	; 107
     616:	b2 07       	cpc	r27, r18
     618:	e1 f7       	brne	.-8      	; 0x612 <.do_clear_bss_loop>
     61a:	0e 94 41 04 	call	0x882	; 0x882 <main>
     61e:	0c 94 f1 0f 	jmp	0x1fe2	; 0x1fe2 <_exit>

00000622 <__bad_interrupt>:
     622:	0c 94 00 00 	jmp	0	; 0x0 <__vectors>

00000626 <CAN_Init>:

#include "DriverCAN.h"

void CAN_Init(void) {
	// Tilbakestill MCP2515 og sett i loopback-modus
	MCP2515_Reset();
     626:	0e 94 b5 03 	call	0x76a	; 0x76a <MCP2515_Reset>
	#else
		//round up by default
		__ticks_dc = (uint32_t)(ceil(fabs(__tmp)));
	#endif

	__builtin_avr_delay_cycles(__ticks_dc);
     62a:	8f ef       	ldi	r24, 0xFF	; 255
     62c:	9f e2       	ldi	r25, 0x2F	; 47
     62e:	01 97       	sbiw	r24, 0x01	; 1
     630:	f1 f7       	brne	.-4      	; 0x62e <CAN_Init+0x8>
     632:	00 c0       	rjmp	.+0      	; 0x634 <CAN_Init+0xe>
     634:	00 00       	nop
	_delay_ms(10);

	// Sett MCP2515 i konfigurasjonsmodus
	MCP2515_Write(0x0F, 0x80);  // CANCTRL register - Set config mode
     636:	60 e8       	ldi	r22, 0x80	; 128
     638:	8f e0       	ldi	r24, 0x0F	; 15
     63a:	0e 94 c9 03 	call	0x792	; 0x792 <MCP2515_Write>
	MCP2515_BitModify(0x2F, 0xE0, 0x40);  // Loopback mode
     63e:	40 e4       	ldi	r20, 0x40	; 64
     640:	60 ee       	ldi	r22, 0xE0	; 224
     642:	8f e2       	ldi	r24, 0x2F	; 47
     644:	0e 94 e1 03 	call	0x7c2	; 0x7c2 <MCP2515_BitModify>
     648:	08 95       	ret

0000064a <CAN_SendMessage>:
}

void CAN_SendMessage(CANMessage* msg) {
     64a:	0f 93       	push	r16
     64c:	1f 93       	push	r17
     64e:	cf 93       	push	r28
     650:	8c 01       	movw	r16, r24
	// Send CAN-melding til TX-buffer
	MCP2515_Write(0x31, msg->id >> 3);  // SIDH - Standard ID high
     652:	fc 01       	movw	r30, r24
     654:	60 81       	ld	r22, Z
     656:	71 81       	ldd	r23, Z+1	; 0x01
     658:	76 95       	lsr	r23
     65a:	67 95       	ror	r22
     65c:	76 95       	lsr	r23
     65e:	67 95       	ror	r22
     660:	76 95       	lsr	r23
     662:	67 95       	ror	r22
     664:	81 e3       	ldi	r24, 0x31	; 49
     666:	0e 94 c9 03 	call	0x792	; 0x792 <MCP2515_Write>
	MCP2515_Write(0x32, (msg->id << 5) & 0xE0);  // SIDL - Standard ID low
     66a:	f8 01       	movw	r30, r16
     66c:	60 81       	ld	r22, Z
     66e:	62 95       	swap	r22
     670:	66 0f       	add	r22, r22
     672:	60 7e       	andi	r22, 0xE0	; 224
     674:	82 e3       	ldi	r24, 0x32	; 50
     676:	0e 94 c9 03 	call	0x792	; 0x792 <MCP2515_Write>
	MCP2515_Write(0x35, msg->length);  // DLC - Data length code
     67a:	f8 01       	movw	r30, r16
     67c:	62 81       	ldd	r22, Z+2	; 0x02
     67e:	85 e3       	ldi	r24, 0x35	; 53
     680:	0e 94 c9 03 	call	0x792	; 0x792 <MCP2515_Write>
	for (uint8_t i = 0; i < msg->length; i++) {
     684:	f8 01       	movw	r30, r16
     686:	82 81       	ldd	r24, Z+2	; 0x02
     688:	88 23       	and	r24, r24
     68a:	71 f0       	breq	.+28     	; 0x6a8 <CAN_SendMessage+0x5e>
     68c:	c0 e0       	ldi	r28, 0x00	; 0
		MCP2515_Write(0x36 + i, msg->data[i]);  // Send data byte-by-byte
     68e:	f8 01       	movw	r30, r16
     690:	ec 0f       	add	r30, r28
     692:	f1 1d       	adc	r31, r1
     694:	63 81       	ldd	r22, Z+3	; 0x03
     696:	86 e3       	ldi	r24, 0x36	; 54
     698:	8c 0f       	add	r24, r28
     69a:	0e 94 c9 03 	call	0x792	; 0x792 <MCP2515_Write>
void CAN_SendMessage(CANMessage* msg) {
	// Send CAN-melding til TX-buffer
	MCP2515_Write(0x31, msg->id >> 3);  // SIDH - Standard ID high
	MCP2515_Write(0x32, (msg->id << 5) & 0xE0);  // SIDL - Standard ID low
	MCP2515_Write(0x35, msg->length);  // DLC - Data length code
	for (uint8_t i = 0; i < msg->length; i++) {
     69e:	cf 5f       	subi	r28, 0xFF	; 255
     6a0:	f8 01       	movw	r30, r16
     6a2:	82 81       	ldd	r24, Z+2	; 0x02
     6a4:	c8 17       	cp	r28, r24
     6a6:	98 f3       	brcs	.-26     	; 0x68e <CAN_SendMessage+0x44>
		MCP2515_Write(0x36 + i, msg->data[i]);  // Send data byte-by-byte
	}

	// Be MCP2515 om å sende meldingen
	MCP2515_RequestToSend(0x01);  // RTS TX buffer 0
     6a8:	81 e0       	ldi	r24, 0x01	; 1
     6aa:	0e 94 db 03 	call	0x7b6	; 0x7b6 <MCP2515_RequestToSend>
}
     6ae:	cf 91       	pop	r28
     6b0:	1f 91       	pop	r17
     6b2:	0f 91       	pop	r16
     6b4:	08 95       	ret

000006b6 <CAN_ReceiveMessage>:

CANMessage CAN_ReceiveMessage(void) {
     6b6:	9f 92       	push	r9
     6b8:	af 92       	push	r10
     6ba:	bf 92       	push	r11
     6bc:	cf 92       	push	r12
     6be:	df 92       	push	r13
     6c0:	ef 92       	push	r14
     6c2:	ff 92       	push	r15
     6c4:	0f 93       	push	r16
     6c6:	1f 93       	push	r17
     6c8:	cf 93       	push	r28
     6ca:	df 93       	push	r29
     6cc:	cd b7       	in	r28, 0x3d	; 61
     6ce:	de b7       	in	r29, 0x3e	; 62
     6d0:	2b 97       	sbiw	r28, 0x0b	; 11
     6d2:	0f b6       	in	r0, 0x3f	; 63
     6d4:	f8 94       	cli
     6d6:	de bf       	out	0x3e, r29	; 62
     6d8:	0f be       	out	0x3f, r0	; 63
     6da:	cd bf       	out	0x3d, r28	; 61
     6dc:	5c 01       	movw	r10, r24
	CANMessage msg;

	// Les ID og lengde
	msg.id = (MCP2515_Read(0x61) << 3) | (MCP2515_Read(0x62) >> 5);  // RX buffer 0
     6de:	81 e6       	ldi	r24, 0x61	; 97
     6e0:	0e 94 bb 03 	call	0x776	; 0x776 <MCP2515_Read>
     6e4:	c8 2e       	mov	r12, r24
     6e6:	82 e6       	ldi	r24, 0x62	; 98
     6e8:	0e 94 bb 03 	call	0x776	; 0x776 <MCP2515_Read>
     6ec:	d1 2c       	mov	r13, r1
     6ee:	cc 0c       	add	r12, r12
     6f0:	dd 1c       	adc	r13, r13
     6f2:	cc 0c       	add	r12, r12
     6f4:	dd 1c       	adc	r13, r13
     6f6:	cc 0c       	add	r12, r12
     6f8:	dd 1c       	adc	r13, r13
     6fa:	82 95       	swap	r24
     6fc:	86 95       	lsr	r24
     6fe:	87 70       	andi	r24, 0x07	; 7
     700:	c8 2a       	or	r12, r24
	msg.length = MCP2515_Read(0x65);  // RX buffer 0 DLC
     702:	85 e6       	ldi	r24, 0x65	; 101
     704:	0e 94 bb 03 	call	0x776	; 0x776 <MCP2515_Read>
     708:	98 2e       	mov	r9, r24

	// Les data
	for (uint8_t i = 0; i < msg.length; i++) {
     70a:	88 23       	and	r24, r24
     70c:	81 f0       	breq	.+32     	; 0x72e <CAN_ReceiveMessage+0x78>
     70e:	7e 01       	movw	r14, r28
     710:	84 e0       	ldi	r24, 0x04	; 4
     712:	e8 0e       	add	r14, r24
     714:	f1 1c       	adc	r15, r1
     716:	06 e6       	ldi	r16, 0x66	; 102
     718:	09 0d       	add	r16, r9
     71a:	16 e6       	ldi	r17, 0x66	; 102
		msg.data[i] = MCP2515_Read(0x66 + i);  // RX buffer 0 data
     71c:	81 2f       	mov	r24, r17
     71e:	0e 94 bb 03 	call	0x776	; 0x776 <MCP2515_Read>
     722:	f7 01       	movw	r30, r14
     724:	81 93       	st	Z+, r24
     726:	7f 01       	movw	r14, r30
     728:	1f 5f       	subi	r17, 0xFF	; 255
	// Les ID og lengde
	msg.id = (MCP2515_Read(0x61) << 3) | (MCP2515_Read(0x62) >> 5);  // RX buffer 0
	msg.length = MCP2515_Read(0x65);  // RX buffer 0 DLC

	// Les data
	for (uint8_t i = 0; i < msg.length; i++) {
     72a:	10 13       	cpse	r17, r16
     72c:	f7 cf       	rjmp	.-18     	; 0x71c <CAN_ReceiveMessage+0x66>
		msg.data[i] = MCP2515_Read(0x66 + i);  // RX buffer 0 data
	}

	return msg;
     72e:	da 82       	std	Y+2, r13	; 0x02
     730:	c9 82       	std	Y+1, r12	; 0x01
     732:	9b 82       	std	Y+3, r9	; 0x03
     734:	8b e0       	ldi	r24, 0x0B	; 11
     736:	fe 01       	movw	r30, r28
     738:	31 96       	adiw	r30, 0x01	; 1
     73a:	d5 01       	movw	r26, r10
     73c:	01 90       	ld	r0, Z+
     73e:	0d 92       	st	X+, r0
     740:	8a 95       	dec	r24
     742:	e1 f7       	brne	.-8      	; 0x73c <CAN_ReceiveMessage+0x86>
}
     744:	c5 01       	movw	r24, r10
     746:	2b 96       	adiw	r28, 0x0b	; 11
     748:	0f b6       	in	r0, 0x3f	; 63
     74a:	f8 94       	cli
     74c:	de bf       	out	0x3e, r29	; 62
     74e:	0f be       	out	0x3f, r0	; 63
     750:	cd bf       	out	0x3d, r28	; 61
     752:	df 91       	pop	r29
     754:	cf 91       	pop	r28
     756:	1f 91       	pop	r17
     758:	0f 91       	pop	r16
     75a:	ff 90       	pop	r15
     75c:	ef 90       	pop	r14
     75e:	df 90       	pop	r13
     760:	cf 90       	pop	r12
     762:	bf 90       	pop	r11
     764:	af 90       	pop	r10
     766:	9f 90       	pop	r9
     768:	08 95       	ret

0000076a <MCP2515_Reset>:
	SPI_Transmit(MCP2515_READ_STATUS);  // Send READ STATUS-kommandoen
	status = SPI_Receive();  // Les status
	setBit(PORTB, PB2);  // Sett SS høy igjen

	return status;
}
     76a:	c2 98       	cbi	0x18, 2	; 24
     76c:	80 ec       	ldi	r24, 0xC0	; 192
     76e:	0e 94 00 04 	call	0x800	; 0x800 <SPI_Transmit>
     772:	c2 9a       	sbi	0x18, 2	; 24
     774:	08 95       	ret

00000776 <MCP2515_Read>:
     776:	cf 93       	push	r28
     778:	c8 2f       	mov	r28, r24
     77a:	c2 98       	cbi	0x18, 2	; 24
     77c:	83 e0       	ldi	r24, 0x03	; 3
     77e:	0e 94 00 04 	call	0x800	; 0x800 <SPI_Transmit>
     782:	8c 2f       	mov	r24, r28
     784:	0e 94 00 04 	call	0x800	; 0x800 <SPI_Transmit>
     788:	0e 94 04 04 	call	0x808	; 0x808 <SPI_Receive>
     78c:	c2 9a       	sbi	0x18, 2	; 24
     78e:	cf 91       	pop	r28
     790:	08 95       	ret

00000792 <MCP2515_Write>:
     792:	cf 93       	push	r28
     794:	df 93       	push	r29
     796:	d8 2f       	mov	r29, r24
     798:	c6 2f       	mov	r28, r22
     79a:	c2 98       	cbi	0x18, 2	; 24
     79c:	82 e0       	ldi	r24, 0x02	; 2
     79e:	0e 94 00 04 	call	0x800	; 0x800 <SPI_Transmit>
     7a2:	8d 2f       	mov	r24, r29
     7a4:	0e 94 00 04 	call	0x800	; 0x800 <SPI_Transmit>
     7a8:	8c 2f       	mov	r24, r28
     7aa:	0e 94 00 04 	call	0x800	; 0x800 <SPI_Transmit>
     7ae:	c2 9a       	sbi	0x18, 2	; 24
     7b0:	df 91       	pop	r29
     7b2:	cf 91       	pop	r28
     7b4:	08 95       	ret

000007b6 <MCP2515_RequestToSend>:
     7b6:	c2 98       	cbi	0x18, 2	; 24
     7b8:	81 68       	ori	r24, 0x81	; 129
     7ba:	0e 94 00 04 	call	0x800	; 0x800 <SPI_Transmit>
     7be:	c2 9a       	sbi	0x18, 2	; 24
     7c0:	08 95       	ret

000007c2 <MCP2515_BitModify>:

// Endre spesifikke bit på MCP2515
void MCP2515_BitModify(uint8_t address, uint8_t mask, uint8_t data) {
     7c2:	1f 93       	push	r17
     7c4:	cf 93       	push	r28
     7c6:	df 93       	push	r29
     7c8:	18 2f       	mov	r17, r24
     7ca:	d6 2f       	mov	r29, r22
     7cc:	c4 2f       	mov	r28, r20
	clearBit(PORTB, PB2);  // Velg MCP2515 ved å sette SS lav
     7ce:	c2 98       	cbi	0x18, 2	; 24
	SPI_Transmit(MCP2515_BIT_MODIFY);  // Send BIT MODIFY-kommandoen
     7d0:	85 e0       	ldi	r24, 0x05	; 5
     7d2:	0e 94 00 04 	call	0x800	; 0x800 <SPI_Transmit>
	SPI_Transmit(address);  // Send adressen
     7d6:	81 2f       	mov	r24, r17
     7d8:	0e 94 00 04 	call	0x800	; 0x800 <SPI_Transmit>
	SPI_Transmit(mask);  // Send bitmask
     7dc:	8d 2f       	mov	r24, r29
     7de:	0e 94 00 04 	call	0x800	; 0x800 <SPI_Transmit>
	SPI_Transmit(data);  // Skriv nye bit-verdier
     7e2:	8c 2f       	mov	r24, r28
     7e4:	0e 94 00 04 	call	0x800	; 0x800 <SPI_Transmit>
	setBit(PORTB, PB2);  // Sett SS høy igjen
     7e8:	c2 9a       	sbi	0x18, 2	; 24
}
     7ea:	df 91       	pop	r29
     7ec:	cf 91       	pop	r28
     7ee:	1f 91       	pop	r17
     7f0:	08 95       	ret

000007f2 <SPI_Init>:

#include "DriverSPI.h"
// Initialiser SPI som master
void SPI_Init(void) {
	// Sett MOSI og SCK som output, MISO som input
	setBit(DDRB, PB3);  // MOSI
     7f2:	bb 9a       	sbi	0x17, 3	; 23
	setBit(DDRB, PB5);  // SCK
     7f4:	bd 9a       	sbi	0x17, 5	; 23
	clearBit(DDRB, PB4); // MISO
     7f6:	bc 98       	cbi	0x17, 4	; 23
	setBit(DDRB, PB2);  // SS som output
     7f8:	ba 9a       	sbi	0x17, 2	; 23

	// Aktiver SPI, sett som master, clock rate fosc/16
	SPCR = (1 << SPE) | (1 << MSTR) | (1 << SPR0);
     7fa:	81 e5       	ldi	r24, 0x51	; 81
     7fc:	8d b9       	out	0x0d, r24	; 13
     7fe:	08 95       	ret

00000800 <SPI_Transmit>:
}

// Sender byte via SPI
void SPI_Transmit(uint8_t data) {
	SPDR = data;  // Send data
     800:	8f b9       	out	0x0f, r24	; 15
	loopUntilBitIsSet(SPSR, SPIF);  // Vent til overføring er ferdig
     802:	77 9b       	sbis	0x0e, 7	; 14
     804:	fe cf       	rjmp	.-4      	; 0x802 <SPI_Transmit+0x2>
}
     806:	08 95       	ret

00000808 <SPI_Receive>:

// Mottar byte via SPI
uint8_t SPI_Receive(void) {
	SPI_Transmit(0xFF);  // Send dummy byte for å lese svar
     808:	8f ef       	ldi	r24, 0xFF	; 255
     80a:	0e 94 00 04 	call	0x800	; 0x800 <SPI_Transmit>
	return SPDR;  // Returner mottatt byte
     80e:	8f b1       	in	r24, 0x0f	; 15
     810:	08 95       	ret

00000812 <UART_Init>:
	setBit(UCSR0B, RXCIE0);
}

// Deaktiver avbrot for når data blir mottatt
void UART_DisableReceiveInterrupt(void) {
	clearBit(UCSR0B, RXCIE0);
     812:	90 bd       	out	0x20, r25	; 32
     814:	89 b9       	out	0x09, r24	; 9
     816:	54 9a       	sbi	0x0a, 4	; 10
     818:	53 9a       	sbi	0x0a, 3	; 10
     81a:	8e e8       	ldi	r24, 0x8E	; 142
     81c:	80 bd       	out	0x20, r24	; 32
     81e:	08 95       	ret

00000820 <UART_SendChar>:
     820:	5d 9b       	sbis	0x0b, 5	; 11
     822:	fe cf       	rjmp	.-4      	; 0x820 <UART_SendChar>
     824:	8c b9       	out	0x0c, r24	; 12
     826:	08 95       	ret

00000828 <UART_putChar>:
     828:	0e 94 10 04 	call	0x820	; 0x820 <UART_SendChar>
     82c:	80 e0       	ldi	r24, 0x00	; 0
     82e:	90 e0       	ldi	r25, 0x00	; 0
     830:	08 95       	ret

00000832 <UART_ReceiveChar>:
     832:	5f 9b       	sbis	0x0b, 7	; 11
     834:	fe cf       	rjmp	.-4      	; 0x832 <UART_ReceiveChar>
     836:	8c b1       	in	r24, 0x0c	; 12
     838:	08 95       	ret

0000083a <UART_getChar>:
     83a:	cf 93       	push	r28
     83c:	0e 94 19 04 	call	0x832	; 0x832 <UART_ReceiveChar>
     840:	c8 2f       	mov	r28, r24
     842:	0e 94 10 04 	call	0x820	; 0x820 <UART_SendChar>
     846:	8c 2f       	mov	r24, r28
     848:	90 e0       	ldi	r25, 0x00	; 0
     84a:	cf 91       	pop	r28
     84c:	08 95       	ret

0000084e <URAT_initStudio>:
     84e:	e5 e6       	ldi	r30, 0x65	; 101
     850:	f2 e0       	ldi	r31, 0x02	; 2
     852:	8e e0       	ldi	r24, 0x0E	; 14
     854:	91 e0       	ldi	r25, 0x01	; 1
     856:	93 83       	std	Z+3, r25	; 0x03
     858:	82 83       	std	Z+2, r24	; 0x02
     85a:	80 e0       	ldi	r24, 0x00	; 0
     85c:	91 e0       	ldi	r25, 0x01	; 1
     85e:	91 83       	std	Z+1, r25	; 0x01
     860:	80 83       	st	Z, r24
     862:	08 95       	ret

00000864 <UART_EnableReceiveInterrupt>:
     864:	57 9a       	sbi	0x0a, 7	; 10
     866:	08 95       	ret

00000868 <__vector_19>:
}

// UART mottaksavbrotvektor USART0_RX_vect
ISR(USART0_RXC_vect) {
     868:	1f 92       	push	r1
     86a:	0f 92       	push	r0
     86c:	0f b6       	in	r0, 0x3f	; 63
     86e:	0f 92       	push	r0
     870:	11 24       	eor	r1, r1
     872:	8f 93       	push	r24
	// Handter mottatt data
	char received = UDR0;
     874:	8c b1       	in	r24, 0x0c	; 12
}
     876:	8f 91       	pop	r24
     878:	0f 90       	pop	r0
     87a:	0f be       	out	0x3f, r0	; 63
     87c:	0f 90       	pop	r0
     87e:	1f 90       	pop	r1
     880:	18 95       	reti

00000882 <main>:
#include "DriverUART.h"
#include "SRAM.h"
#include "Menu_init.h"
#include "DriverCAN.h"

int main(void) {
     882:	cf 93       	push	r28
     884:	df 93       	push	r29
     886:	cd b7       	in	r28, 0x3d	; 61
     888:	de b7       	in	r29, 0x3e	; 62
     88a:	a8 97       	sbiw	r28, 0x28	; 40
     88c:	0f b6       	in	r0, 0x3f	; 63
     88e:	f8 94       	cli
     890:	de bf       	out	0x3e, r29	; 62
     892:	0f be       	out	0x3f, r0	; 63
     894:	cd bf       	out	0x3d, r28	; 61
	/*_________________INITIALISERINGER START______________________*/
	/*--- Initialiser UART ---*/
	UART_Init(MYUBBR);
     896:	8f e1       	ldi	r24, 0x1F	; 31
     898:	90 e0       	ldi	r25, 0x00	; 0
     89a:	0e 94 09 04 	call	0x812	; 0x812 <UART_Init>
	URAT_initStudio();
     89e:	0e 94 27 04 	call	0x84e	; 0x84e <URAT_initStudio>
	UART_EnableReceiveInterrupt();
     8a2:	0e 94 32 04 	call	0x864	; 0x864 <UART_EnableReceiveInterrupt>
    setup_timer();						// Start millisekundteljinga
     8a6:	0e 94 ca 0b 	call	0x1794	; 0x1794 <setup_timer>
	sei();								// Aktiver globale avbrot
     8aa:	78 94       	sei
	/*--- Ditta må (noko av det ihvertfall) vere etter sei() ---*/
	externalMemoryInit();				// Initialiser eksternt minne må vere etter sei
     8ac:	0e 94 30 0c 	call	0x1860	; 0x1860 <externalMemoryInit>
	initialize_menus();
     8b0:	0e 94 9b 07 	call	0xf36	; 0xf36 <initialize_menus>
	MultiBoard board;
	MultiBoard_Init(&board);			// Initialiser MultiBoard og kalibrer joystickens origo
     8b4:	ce 01       	movw	r24, r28
     8b6:	01 96       	adiw	r24, 0x01	; 1
     8b8:	0e 94 bd 07 	call	0xf7a	; 0xf7a <MultiBoard_Init>
	oled_init();						// Initialiser OLED-skjermen
     8bc:	0e 94 cc 08 	call	0x1198	; 0x1198 <oled_init>
			//setup_printf_for_oled();		
			//SRAM_test();
			
	/*_________________SPI_________________*/
	// Initialiser SPI og MCP2515 i loopback-modus
	SPI_Init();
     8c0:	0e 94 f9 03 	call	0x7f2	; 0x7f2 <SPI_Init>
	CAN_Init();
     8c4:	0e 94 13 03 	call	0x626	; 0x626 <CAN_Init>

	// CAN-melding å sende
	CANMessage msg_to_send;
	msg_to_send.id = 0x123;  // Eksempel-ID
     8c8:	83 e2       	ldi	r24, 0x23	; 35
     8ca:	91 e0       	ldi	r25, 0x01	; 1
     8cc:	9c 8b       	std	Y+20, r25	; 0x14
     8ce:	8b 8b       	std	Y+19, r24	; 0x13
	msg_to_send.length = 3;
     8d0:	83 e0       	ldi	r24, 0x03	; 3
     8d2:	8d 8b       	std	Y+21, r24	; 0x15
	msg_to_send.data[0] = 0x11;
     8d4:	81 e1       	ldi	r24, 0x11	; 17
     8d6:	8e 8b       	std	Y+22, r24	; 0x16
	msg_to_send.data[1] = 0x22;
     8d8:	82 e2       	ldi	r24, 0x22	; 34
     8da:	8f 8b       	std	Y+23, r24	; 0x17
	msg_to_send.data[2] = 0x33;
     8dc:	83 e3       	ldi	r24, 0x33	; 51
     8de:	88 8f       	std	Y+24, r24	; 0x18

	// Send CAN-melding
	CAN_SendMessage(&msg_to_send);
     8e0:	ce 01       	movw	r24, r28
     8e2:	43 96       	adiw	r24, 0x13	; 19
     8e4:	0e 94 25 03 	call	0x64a	; 0x64a <CAN_SendMessage>
     8e8:	2f ef       	ldi	r18, 0xFF	; 255
     8ea:	4f e7       	ldi	r20, 0x7F	; 127
     8ec:	51 e0       	ldi	r21, 0x01	; 1
     8ee:	21 50       	subi	r18, 0x01	; 1
     8f0:	40 40       	sbci	r20, 0x00	; 0
     8f2:	50 40       	sbci	r21, 0x00	; 0
     8f4:	e1 f7       	brne	.-8      	; 0x8ee <main+0x6c>
     8f6:	00 c0       	rjmp	.+0      	; 0x8f8 <main+0x76>
     8f8:	00 c0       	rjmp	.+0      	; 0x8fa <main+0x78>

	_delay_ms(100);  // Vent litt før vi prøver å lese meldingen (simuler en liten forsinkelse)

	// Mottak CAN-melding
	CANMessage received_msg = CAN_ReceiveMessage();
     8fa:	ce 01       	movw	r24, r28
     8fc:	4e 96       	adiw	r24, 0x1e	; 30
     8fe:	0e 94 5b 03 	call	0x6b6	; 0x6b6 <CAN_ReceiveMessage>
     902:	98 a1       	ldd	r25, Y+32	; 0x20

	// Sjekk om mottatt melding er lik som den sendte
	if (received_msg.id == msg_to_send.id && received_msg.length == msg_to_send.length) {
     904:	2b 89       	ldd	r18, Y+19	; 0x13
     906:	3c 89       	ldd	r19, Y+20	; 0x14
     908:	4e 8d       	ldd	r20, Y+30	; 0x1e
     90a:	5f 8d       	ldd	r21, Y+31	; 0x1f
     90c:	24 17       	cp	r18, r20
     90e:	35 07       	cpc	r19, r21
     910:	e9 f4       	brne	.+58     	; 0x94c <main+0xca>
     912:	8d 89       	ldd	r24, Y+21	; 0x15
     914:	89 13       	cpse	r24, r25
     916:	1a c0       	rjmp	.+52     	; 0x94c <main+0xca>
		uint8_t matching_data = 1;
		for (uint8_t i = 0; i < received_msg.length; i++) {
     918:	88 23       	and	r24, r24
     91a:	09 f4       	brne	.+2      	; 0x91e <main+0x9c>
     91c:	58 c0       	rjmp	.+176    	; 0x9ce <main+0x14c>
			if (received_msg.data[i] != msg_to_send.data[i]) {
     91e:	49 a1       	ldd	r20, Y+33	; 0x21
     920:	9e 89       	ldd	r25, Y+22	; 0x16
     922:	49 13       	cpse	r20, r25
     924:	6b c0       	rjmp	.+214    	; 0x9fc <main+0x17a>
     926:	fe 01       	movw	r30, r28
     928:	b2 96       	adiw	r30, 0x22	; 34
     92a:	de 01       	movw	r26, r28
     92c:	57 96       	adiw	r26, 0x17	; 23
     92e:	81 50       	subi	r24, 0x01	; 1
     930:	ae 01       	movw	r20, r28
     932:	48 0f       	add	r20, r24
     934:	51 1d       	adc	r21, r1
     936:	ca 01       	movw	r24, r20
     938:	82 96       	adiw	r24, 0x22	; 34
     93a:	04 c0       	rjmp	.+8      	; 0x944 <main+0xc2>
     93c:	51 91       	ld	r21, Z+
     93e:	4d 91       	ld	r20, X+
     940:	54 13       	cpse	r21, r20
     942:	5c c0       	rjmp	.+184    	; 0x9fc <main+0x17a>
	CANMessage received_msg = CAN_ReceiveMessage();

	// Sjekk om mottatt melding er lik som den sendte
	if (received_msg.id == msg_to_send.id && received_msg.length == msg_to_send.length) {
		uint8_t matching_data = 1;
		for (uint8_t i = 0; i < received_msg.length; i++) {
     944:	e8 17       	cp	r30, r24
     946:	f9 07       	cpc	r31, r25
     948:	c9 f7       	brne	.-14     	; 0x93c <main+0xba>
     94a:	41 c0       	rjmp	.+130    	; 0x9ce <main+0x14c>
			// Dataene samsvarer ikke
			printf("Loopback test failed! Data mismatch.\n");
		}
		} else {
		// ID eller lengde samsvarer ikke
		printf("Loopback test failed! ID or length mismatch.\n");
     94c:	8c e1       	ldi	r24, 0x1C	; 28
     94e:	91 e0       	ldi	r25, 0x01	; 1
     950:	0e 94 f9 0c 	call	0x19f2	; 0x19f2 <puts>
	}
		
	/*_______OLED + LOGO_______*/
	oled_clear_screen();
     954:	0e 94 78 0a 	call	0x14f0	; 0x14f0 <oled_clear_screen>
	/*- Den komboen her var heilt nydelig -*/
		oled_draw_line(10, 10, 100, 50);
     958:	22 e3       	ldi	r18, 0x32	; 50
     95a:	44 e6       	ldi	r20, 0x64	; 100
     95c:	6a e0       	ldi	r22, 0x0A	; 10
     95e:	8a e0       	ldi	r24, 0x0A	; 10
     960:	0e 94 88 0a 	call	0x1510	; 0x1510 <oled_draw_line>
		oled_draw_circle(64, 32, 20);
     964:	44 e1       	ldi	r20, 0x14	; 20
     966:	50 e0       	ldi	r21, 0x00	; 0
     968:	60 e2       	ldi	r22, 0x20	; 32
     96a:	70 e0       	ldi	r23, 0x00	; 0
     96c:	80 e4       	ldi	r24, 0x40	; 64
     96e:	90 e0       	ldi	r25, 0x00	; 0
     970:	0e 94 eb 0a 	call	0x15d6	; 0x15d6 <oled_draw_circle>
		oled_draw_square(20, 20, 40, 30);
     974:	2e e1       	ldi	r18, 0x1E	; 30
     976:	48 e2       	ldi	r20, 0x28	; 40
     978:	64 e1       	ldi	r22, 0x14	; 20
     97a:	84 e1       	ldi	r24, 0x14	; 20
     97c:	0e 94 5b 0b 	call	0x16b6	; 0x16b6 <oled_draw_square>
	oled_data_from_SRAM();
     980:	0e 94 0f 09 	call	0x121e	; 0x121e <oled_data_from_SRAM>
     984:	5f ef       	ldi	r21, 0xFF	; 255
     986:	8f e7       	ldi	r24, 0x7F	; 127
     988:	97 e0       	ldi	r25, 0x07	; 7
     98a:	51 50       	subi	r21, 0x01	; 1
     98c:	80 40       	sbci	r24, 0x00	; 0
     98e:	90 40       	sbci	r25, 0x00	; 0
     990:	e1 f7       	brne	.-8      	; 0x98a <main+0x108>
     992:	00 c0       	rjmp	.+0      	; 0x994 <main+0x112>
     994:	00 00       	nop
	_delay_ms(500);
	
	
	/*______MENY______*/
	current_menu = &mainMenu; //kan kanskje teste med å starte i ein anna meny
     996:	89 e5       	ldi	r24, 0x59	; 89
     998:	92 e0       	ldi	r25, 0x02	; 2
     99a:	90 93 49 02 	sts	0x0249, r25	; 0x800249 <__data_end+0x1>
     99e:	80 93 48 02 	sts	0x0248, r24	; 0x800248 <__data_end>
	write_menu_oled_to_SRAM(current_menu);
     9a2:	0e 94 69 05 	call	0xad2	; 0xad2 <write_menu_oled_to_SRAM>
	
	/*_______HOVUDLØKKE______*/
	 while (1) {

        menu_navigate(&board, current_menu);  // Kallar `menu_navigate` med referanse til gjeldande meny
     9a6:	60 91 48 02 	lds	r22, 0x0248	; 0x800248 <__data_end>
     9aa:	70 91 49 02 	lds	r23, 0x0249	; 0x800249 <__data_end+0x1>
     9ae:	ce 01       	movw	r24, r28
     9b0:	01 96       	adiw	r24, 0x01	; 1
     9b2:	0e 94 73 07 	call	0xee6	; 0xee6 <menu_navigate>
		
		16ms skal gi ich 60hz, gitt at resten av programmet kjører raskt nok...
		*/
		
		
		if (screen_ms() >= 16) {
     9b6:	0e 94 f3 0b 	call	0x17e6	; 0x17e6 <screen_ms>
     9ba:	60 31       	cpi	r22, 0x10	; 16
     9bc:	71 05       	cpc	r23, r1
     9be:	81 05       	cpc	r24, r1
     9c0:	91 05       	cpc	r25, r1
     9c2:	88 f3       	brcs	.-30     	; 0x9a6 <main+0x124>
			restart_screen_timer();
     9c4:	0e 94 fe 0b 	call	0x17fc	; 0x17fc <restart_screen_timer>
			oled_data_from_SRAM();
     9c8:	0e 94 0f 09 	call	0x121e	; 0x121e <oled_data_from_SRAM>
     9cc:	ec cf       	rjmp	.-40     	; 0x9a6 <main+0x124>
			}
		}

		if (matching_data) {
			// Meldingene samsvarer - loopback-testen er vellykket
			printf("Loopback test successful! Received ID: 0x%X, Data: %X %X %X\n", received_msg.id, received_msg.data[0], received_msg.data[1], received_msg.data[2]);
     9ce:	8b a1       	ldd	r24, Y+35	; 0x23
     9d0:	1f 92       	push	r1
     9d2:	8f 93       	push	r24
     9d4:	8a a1       	ldd	r24, Y+34	; 0x22
     9d6:	1f 92       	push	r1
     9d8:	8f 93       	push	r24
     9da:	89 a1       	ldd	r24, Y+33	; 0x21
     9dc:	1f 92       	push	r1
     9de:	8f 93       	push	r24
     9e0:	3f 93       	push	r19
     9e2:	2f 93       	push	r18
     9e4:	89 e4       	ldi	r24, 0x49	; 73
     9e6:	91 e0       	ldi	r25, 0x01	; 1
     9e8:	9f 93       	push	r25
     9ea:	8f 93       	push	r24
     9ec:	0e 94 e3 0c 	call	0x19c6	; 0x19c6 <printf>
     9f0:	0f b6       	in	r0, 0x3f	; 63
     9f2:	f8 94       	cli
     9f4:	de bf       	out	0x3e, r29	; 62
     9f6:	0f be       	out	0x3f, r0	; 63
     9f8:	cd bf       	out	0x3d, r28	; 61
     9fa:	ac cf       	rjmp	.-168    	; 0x954 <main+0xd2>
			} else {
			// Dataene samsvarer ikke
			printf("Loopback test failed! Data mismatch.\n");
     9fc:	86 e8       	ldi	r24, 0x86	; 134
     9fe:	91 e0       	ldi	r25, 0x01	; 1
     a00:	0e 94 f9 0c 	call	0x19f2	; 0x19f2 <puts>
     a04:	a7 cf       	rjmp	.-178    	; 0x954 <main+0xd2>

00000a06 <update_menu_position_from_joystick>:
     a06:	af 92       	push	r10
     a08:	bf 92       	push	r11
     a0a:	cf 92       	push	r12
     a0c:	df 92       	push	r13
     a0e:	ef 92       	push	r14
     a10:	ff 92       	push	r15
     a12:	0f 93       	push	r16
     a14:	1f 93       	push	r17
     a16:	cf 93       	push	r28
     a18:	df 93       	push	r29
     a1a:	ec 01       	movw	r28, r24
     a1c:	8b 01       	movw	r16, r22
     a1e:	ac 84       	ldd	r10, Y+12	; 0x0c
     a20:	bd 84       	ldd	r11, Y+13	; 0x0d
     a22:	0e 94 1f 0c 	call	0x183e	; 0x183e <general_ms>
     a26:	28 89       	ldd	r18, Y+16	; 0x10
     a28:	39 89       	ldd	r19, Y+17	; 0x11
     a2a:	6b 01       	movw	r12, r22
     a2c:	7c 01       	movw	r14, r24
     a2e:	c2 1a       	sub	r12, r18
     a30:	d3 0a       	sbc	r13, r19
     a32:	e1 08       	sbc	r14, r1
     a34:	f1 08       	sbc	r15, r1
     a36:	1a f4       	brpl	.+6      	; 0xa3e <update_menu_position_from_joystick+0x38>
     a38:	0e 94 1f 0c 	call	0x183e	; 0x183e <general_ms>
     a3c:	9b 01       	movw	r18, r22
     a3e:	39 8b       	std	Y+17, r19	; 0x11
     a40:	28 8b       	std	Y+16, r18	; 0x10
     a42:	85 e6       	ldi	r24, 0x65	; 101
     a44:	c8 16       	cp	r12, r24
     a46:	d1 04       	cpc	r13, r1
     a48:	e1 04       	cpc	r14, r1
     a4a:	f1 04       	cpc	r15, r1
     a4c:	bc f1       	brlt	.+110    	; 0xabc <update_menu_position_from_joystick+0xb6>
     a4e:	e3 e3       	ldi	r30, 0x33	; 51
     a50:	ae 16       	cp	r10, r30
     a52:	b1 04       	cpc	r11, r1
     a54:	8c f0       	brlt	.+34     	; 0xa78 <update_menu_position_from_joystick+0x72>
     a56:	f8 01       	movw	r30, r16
     a58:	82 81       	ldd	r24, Z+2	; 0x02
     a5a:	88 23       	and	r24, r24
     a5c:	79 f1       	breq	.+94     	; 0xabc <update_menu_position_from_joystick+0xb6>
     a5e:	83 83       	std	Z+3, r24	; 0x03
     a60:	81 50       	subi	r24, 0x01	; 1
     a62:	82 83       	std	Z+2, r24	; 0x02
     a64:	94 81       	ldd	r25, Z+4	; 0x04
     a66:	89 17       	cp	r24, r25
     a68:	10 f4       	brcc	.+4      	; 0xa6e <update_menu_position_from_joystick+0x68>
     a6a:	91 50       	subi	r25, 0x01	; 1
     a6c:	94 83       	std	Z+4, r25	; 0x04
     a6e:	0e 94 1f 0c 	call	0x183e	; 0x183e <general_ms>
     a72:	79 8b       	std	Y+17, r23	; 0x11
     a74:	68 8b       	std	Y+16, r22	; 0x10
     a76:	22 c0       	rjmp	.+68     	; 0xabc <update_menu_position_from_joystick+0xb6>
     a78:	fe ec       	ldi	r31, 0xCE	; 206
     a7a:	af 16       	cp	r10, r31
     a7c:	ff ef       	ldi	r31, 0xFF	; 255
     a7e:	bf 06       	cpc	r11, r31
     a80:	ec f4       	brge	.+58     	; 0xabc <update_menu_position_from_joystick+0xb6>
     a82:	f8 01       	movw	r30, r16
     a84:	82 81       	ldd	r24, Z+2	; 0x02
     a86:	48 2f       	mov	r20, r24
     a88:	50 e0       	ldi	r21, 0x00	; 0
     a8a:	25 81       	ldd	r18, Z+5	; 0x05
     a8c:	30 e0       	ldi	r19, 0x00	; 0
     a8e:	21 50       	subi	r18, 0x01	; 1
     a90:	31 09       	sbc	r19, r1
     a92:	42 17       	cp	r20, r18
     a94:	53 07       	cpc	r21, r19
     a96:	94 f4       	brge	.+36     	; 0xabc <update_menu_position_from_joystick+0xb6>
     a98:	83 83       	std	Z+3, r24	; 0x03
     a9a:	8f 5f       	subi	r24, 0xFF	; 255
     a9c:	82 83       	std	Z+2, r24	; 0x02
     a9e:	44 81       	ldd	r20, Z+4	; 0x04
     aa0:	90 e0       	ldi	r25, 0x00	; 0
     aa2:	24 2f       	mov	r18, r20
     aa4:	30 e0       	ldi	r19, 0x00	; 0
     aa6:	28 5f       	subi	r18, 0xF8	; 248
     aa8:	3f 4f       	sbci	r19, 0xFF	; 255
     aaa:	82 17       	cp	r24, r18
     aac:	93 07       	cpc	r25, r19
     aae:	14 f0       	brlt	.+4      	; 0xab4 <update_menu_position_from_joystick+0xae>
     ab0:	4f 5f       	subi	r20, 0xFF	; 255
     ab2:	44 83       	std	Z+4, r20	; 0x04
     ab4:	0e 94 1f 0c 	call	0x183e	; 0x183e <general_ms>
     ab8:	79 8b       	std	Y+17, r23	; 0x11
     aba:	68 8b       	std	Y+16, r22	; 0x10
     abc:	df 91       	pop	r29
     abe:	cf 91       	pop	r28
     ac0:	1f 91       	pop	r17
     ac2:	0f 91       	pop	r16
     ac4:	ff 90       	pop	r15
     ac6:	ef 90       	pop	r14
     ac8:	df 90       	pop	r13
     aca:	cf 90       	pop	r12
     acc:	bf 90       	pop	r11
     ace:	af 90       	pop	r10
     ad0:	08 95       	ret

00000ad2 <write_menu_oled_to_SRAM>:
     ad2:	2f 92       	push	r2
     ad4:	3f 92       	push	r3
     ad6:	4f 92       	push	r4
     ad8:	5f 92       	push	r5
     ada:	6f 92       	push	r6
     adc:	7f 92       	push	r7
     ade:	8f 92       	push	r8
     ae0:	9f 92       	push	r9
     ae2:	af 92       	push	r10
     ae4:	bf 92       	push	r11
     ae6:	cf 92       	push	r12
     ae8:	df 92       	push	r13
     aea:	ef 92       	push	r14
     aec:	ff 92       	push	r15
     aee:	0f 93       	push	r16
     af0:	1f 93       	push	r17
     af2:	cf 93       	push	r28
     af4:	df 93       	push	r29
     af6:	cd b7       	in	r28, 0x3d	; 61
     af8:	de b7       	in	r29, 0x3e	; 62
     afa:	2a 97       	sbiw	r28, 0x0a	; 10
     afc:	0f b6       	in	r0, 0x3f	; 63
     afe:	f8 94       	cli
     b00:	de bf       	out	0x3e, r29	; 62
     b02:	0f be       	out	0x3f, r0	; 63
     b04:	cd bf       	out	0x3d, r28	; 61
     b06:	7c 01       	movw	r14, r24
     b08:	dc 01       	movw	r26, r24
     b0a:	15 96       	adiw	r26, 0x05	; 5
     b0c:	8c 91       	ld	r24, X
     b0e:	89 30       	cpi	r24, 0x09	; 9
     b10:	08 f0       	brcs	.+2      	; 0xb14 <write_menu_oled_to_SRAM+0x42>
     b12:	bb c0       	rjmp	.+374    	; 0xc8a <write_menu_oled_to_SRAM+0x1b8>
     b14:	e8 2f       	mov	r30, r24
     b16:	f0 e0       	ldi	r31, 0x00	; 0
     b18:	f8 87       	std	Y+8, r31	; 0x08
     b1a:	ef 83       	std	Y+7, r30	; 0x07
     b1c:	e2 95       	swap	r30
     b1e:	f2 95       	swap	r31
     b20:	f0 7f       	andi	r31, 0xF0	; 240
     b22:	fe 27       	eor	r31, r30
     b24:	e0 7f       	andi	r30, 0xF0	; 240
     b26:	fe 27       	eor	r31, r30
     b28:	fc 83       	std	Y+4, r31	; 0x04
     b2a:	eb 83       	std	Y+3, r30	; 0x03
     b2c:	fe 83       	std	Y+6, r31	; 0x06
     b2e:	ed 83       	std	Y+5, r30	; 0x05
     b30:	ef 2b       	or	r30, r31
     b32:	09 f4       	brne	.+2      	; 0xb36 <write_menu_oled_to_SRAM+0x64>
     b34:	6d c0       	rjmp	.+218    	; 0xc10 <write_menu_oled_to_SRAM+0x13e>
     b36:	1a 82       	std	Y+2, r1	; 0x02
     b38:	19 82       	std	Y+1, r1	; 0x01
     b3a:	41 2c       	mov	r4, r1
     b3c:	51 2c       	mov	r5, r1
     b3e:	0f 2e       	mov	r0, r31
     b40:	f8 ee       	ldi	r31, 0xE8	; 232
     b42:	8f 2e       	mov	r8, r31
     b44:	f3 e0       	ldi	r31, 0x03	; 3
     b46:	9f 2e       	mov	r9, r31
     b48:	f0 2d       	mov	r31, r0
     b4a:	33 24       	eor	r3, r3
     b4c:	33 94       	inc	r3
     b4e:	21 2c       	mov	r2, r1
     b50:	d7 01       	movw	r26, r14
     b52:	ed 91       	ld	r30, X+
     b54:	fc 91       	ld	r31, X
     b56:	e4 0d       	add	r30, r4
     b58:	f5 1d       	adc	r31, r5
     b5a:	84 91       	lpm	r24, Z
     b5c:	32 01       	movw	r6, r4
     b5e:	76 94       	lsr	r7
     b60:	67 94       	ror	r6
     b62:	76 94       	lsr	r7
     b64:	67 94       	ror	r6
     b66:	76 94       	lsr	r7
     b68:	67 94       	ror	r6
     b6a:	76 94       	lsr	r7
     b6c:	67 94       	ror	r6
     b6e:	c8 2e       	mov	r12, r24
     b70:	d1 2c       	mov	r13, r1
     b72:	c6 01       	movw	r24, r12
     b74:	88 0f       	add	r24, r24
     b76:	99 1f       	adc	r25, r25
     b78:	88 0f       	add	r24, r24
     b7a:	99 1f       	adc	r25, r25
     b7c:	88 0f       	add	r24, r24
     b7e:	99 1f       	adc	r25, r25
     b80:	e0 ee       	ldi	r30, 0xE0	; 224
     b82:	f3 e0       	ldi	r31, 0x03	; 3
     b84:	fa 87       	std	Y+10, r31	; 0x0a
     b86:	e9 87       	std	Y+9, r30	; 0x09
     b88:	09 81       	ldd	r16, Y+1	; 0x01
     b8a:	1a 81       	ldd	r17, Y+2	; 0x02
     b8c:	52 01       	movw	r10, r4
     b8e:	ff e0       	ldi	r31, 0x0F	; 15
     b90:	af 22       	and	r10, r31
     b92:	bb 24       	eor	r11, r11
     b94:	9c 01       	movw	r18, r24
     b96:	20 5f       	subi	r18, 0xF0	; 240
     b98:	31 40       	sbci	r19, 0x01	; 1
     b9a:	69 01       	movw	r12, r18
     b9c:	83 2d       	mov	r24, r3
     b9e:	a1 14       	cp	r10, r1
     ba0:	b1 04       	cpc	r11, r1
     ba2:	09 f0       	breq	.+2      	; 0xba6 <write_menu_oled_to_SRAM+0xd4>
     ba4:	82 2d       	mov	r24, r2
     ba6:	88 23       	and	r24, r24
     ba8:	91 f0       	breq	.+36     	; 0xbce <write_menu_oled_to_SRAM+0xfc>
     baa:	d7 01       	movw	r26, r14
     bac:	12 96       	adiw	r26, 0x02	; 2
     bae:	8c 91       	ld	r24, X
     bb0:	90 e0       	ldi	r25, 0x00	; 0
     bb2:	23 2d       	mov	r18, r3
     bb4:	86 15       	cp	r24, r6
     bb6:	97 05       	cpc	r25, r7
     bb8:	09 f0       	breq	.+2      	; 0xbbc <write_menu_oled_to_SRAM+0xea>
     bba:	22 2d       	mov	r18, r2
     bbc:	22 23       	and	r18, r18
     bbe:	39 f0       	breq	.+14     	; 0xbce <write_menu_oled_to_SRAM+0xfc>
     bc0:	e9 85       	ldd	r30, Y+9	; 0x09
     bc2:	fa 85       	ldd	r31, Y+10	; 0x0a
     bc4:	64 91       	lpm	r22, Z
     bc6:	c8 01       	movw	r24, r16
     bc8:	0e 94 3f 0c 	call	0x187e	; 0x187e <SRAM_write>
     bcc:	08 c0       	rjmp	.+16     	; 0xbde <write_menu_oled_to_SRAM+0x10c>
     bce:	e9 85       	ldd	r30, Y+9	; 0x09
     bd0:	fa 85       	ldd	r31, Y+10	; 0x0a
     bd2:	ec 0d       	add	r30, r12
     bd4:	fd 1d       	adc	r31, r13
     bd6:	64 91       	lpm	r22, Z
     bd8:	c8 01       	movw	r24, r16
     bda:	0e 94 3f 0c 	call	0x187e	; 0x187e <SRAM_write>
     bde:	29 85       	ldd	r18, Y+9	; 0x09
     be0:	3a 85       	ldd	r19, Y+10	; 0x0a
     be2:	2f 5f       	subi	r18, 0xFF	; 255
     be4:	3f 4f       	sbci	r19, 0xFF	; 255
     be6:	3a 87       	std	Y+10, r19	; 0x0a
     be8:	29 87       	std	Y+9, r18	; 0x09
     bea:	0f 5f       	subi	r16, 0xFF	; 255
     bec:	1f 4f       	sbci	r17, 0xFF	; 255
     bee:	82 16       	cp	r8, r18
     bf0:	93 06       	cpc	r9, r19
     bf2:	a1 f6       	brne	.-88     	; 0xb9c <write_menu_oled_to_SRAM+0xca>
     bf4:	3f ef       	ldi	r19, 0xFF	; 255
     bf6:	43 1a       	sub	r4, r19
     bf8:	53 0a       	sbc	r5, r19
     bfa:	89 81       	ldd	r24, Y+1	; 0x01
     bfc:	9a 81       	ldd	r25, Y+2	; 0x02
     bfe:	08 96       	adiw	r24, 0x08	; 8
     c00:	9a 83       	std	Y+2, r25	; 0x02
     c02:	89 83       	std	Y+1, r24	; 0x01
     c04:	ad 81       	ldd	r26, Y+5	; 0x05
     c06:	be 81       	ldd	r27, Y+6	; 0x06
     c08:	4a 16       	cp	r4, r26
     c0a:	5b 06       	cpc	r5, r27
     c0c:	09 f0       	breq	.+2      	; 0xc10 <write_menu_oled_to_SRAM+0x13e>
     c0e:	a0 cf       	rjmp	.-192    	; 0xb50 <write_menu_oled_to_SRAM+0x7e>
     c10:	08 e0       	ldi	r16, 0x08	; 8
     c12:	10 e0       	ldi	r17, 0x00	; 0
     c14:	ef 81       	ldd	r30, Y+7	; 0x07
     c16:	f8 85       	ldd	r31, Y+8	; 0x08
     c18:	0e 1b       	sub	r16, r30
     c1a:	1f 0b       	sbc	r17, r31
     c1c:	02 95       	swap	r16
     c1e:	12 95       	swap	r17
     c20:	10 7f       	andi	r17, 0xF0	; 240
     c22:	10 27       	eor	r17, r16
     c24:	00 7f       	andi	r16, 0xF0	; 240
     c26:	10 27       	eor	r17, r16
     c28:	10 16       	cp	r1, r16
     c2a:	11 06       	cpc	r1, r17
     c2c:	c4 f0       	brlt	.+48     	; 0xc5e <write_menu_oled_to_SRAM+0x18c>
     c2e:	a7 c0       	rjmp	.+334    	; 0xd7e <write_menu_oled_to_SRAM+0x2ac>
     c30:	60 e0       	ldi	r22, 0x00	; 0
     c32:	89 81       	ldd	r24, Y+1	; 0x01
     c34:	9a 81       	ldd	r25, Y+2	; 0x02
     c36:	0e 94 3f 0c 	call	0x187e	; 0x187e <SRAM_write>
     c3a:	29 81       	ldd	r18, Y+1	; 0x01
     c3c:	3a 81       	ldd	r19, Y+2	; 0x02
     c3e:	2f 5f       	subi	r18, 0xFF	; 255
     c40:	3f 4f       	sbci	r19, 0xFF	; 255
     c42:	3a 83       	std	Y+2, r19	; 0x02
     c44:	29 83       	std	Y+1, r18	; 0x01
     c46:	2e 15       	cp	r18, r14
     c48:	3f 05       	cpc	r19, r15
     c4a:	91 f7       	brne	.-28     	; 0xc30 <write_menu_oled_to_SRAM+0x15e>
     c4c:	d3 94       	inc	r13
     c4e:	8d 2d       	mov	r24, r13
     c50:	90 e0       	ldi	r25, 0x00	; 0
     c52:	9a 83       	std	Y+2, r25	; 0x02
     c54:	89 83       	std	Y+1, r24	; 0x01
     c56:	80 17       	cp	r24, r16
     c58:	91 07       	cpc	r25, r17
     c5a:	24 f0       	brlt	.+8      	; 0xc64 <write_menu_oled_to_SRAM+0x192>
     c5c:	90 c0       	rjmp	.+288    	; 0xd7e <write_menu_oled_to_SRAM+0x2ac>
     c5e:	1a 82       	std	Y+2, r1	; 0x02
     c60:	19 82       	std	Y+1, r1	; 0x01
     c62:	d1 2c       	mov	r13, r1
     c64:	a9 81       	ldd	r26, Y+1	; 0x01
     c66:	ba 81       	ldd	r27, Y+2	; 0x02
     c68:	eb 81       	ldd	r30, Y+3	; 0x03
     c6a:	fc 81       	ldd	r31, Y+4	; 0x04
     c6c:	ae 0f       	add	r26, r30
     c6e:	bf 1f       	adc	r27, r31
     c70:	aa 0f       	add	r26, r26
     c72:	bb 1f       	adc	r27, r27
     c74:	aa 0f       	add	r26, r26
     c76:	bb 1f       	adc	r27, r27
     c78:	aa 0f       	add	r26, r26
     c7a:	bb 1f       	adc	r27, r27
     c7c:	ba 83       	std	Y+2, r27	; 0x02
     c7e:	a9 83       	std	Y+1, r26	; 0x01
     c80:	7d 01       	movw	r14, r26
     c82:	f8 e0       	ldi	r31, 0x08	; 8
     c84:	ef 0e       	add	r14, r31
     c86:	f1 1c       	adc	r15, r1
     c88:	d3 cf       	rjmp	.-90     	; 0xc30 <write_menu_oled_to_SRAM+0x15e>
     c8a:	1a 82       	std	Y+2, r1	; 0x02
     c8c:	19 82       	std	Y+1, r1	; 0x01
     c8e:	41 2c       	mov	r4, r1
     c90:	51 2c       	mov	r5, r1
     c92:	0f 2e       	mov	r0, r31
     c94:	f8 ee       	ldi	r31, 0xE8	; 232
     c96:	8f 2e       	mov	r8, r31
     c98:	f3 e0       	ldi	r31, 0x03	; 3
     c9a:	9f 2e       	mov	r9, r31
     c9c:	f0 2d       	mov	r31, r0
     c9e:	33 24       	eor	r3, r3
     ca0:	33 94       	inc	r3
     ca2:	21 2c       	mov	r2, r1
     ca4:	d7 01       	movw	r26, r14
     ca6:	14 96       	adiw	r26, 0x04	; 4
     ca8:	8c 91       	ld	r24, X
     caa:	14 97       	sbiw	r26, 0x04	; 4
     cac:	f2 01       	movw	r30, r4
     cae:	20 e1       	ldi	r18, 0x10	; 16
     cb0:	82 9f       	mul	r24, r18
     cb2:	e0 0d       	add	r30, r0
     cb4:	f1 1d       	adc	r31, r1
     cb6:	11 24       	eor	r1, r1
     cb8:	cf 01       	movw	r24, r30
     cba:	ed 91       	ld	r30, X+
     cbc:	fc 91       	ld	r31, X
     cbe:	e8 0f       	add	r30, r24
     cc0:	f9 1f       	adc	r31, r25
     cc2:	c4 90       	lpm	r12, Z
     cc4:	52 01       	movw	r10, r4
     cc6:	b6 94       	lsr	r11
     cc8:	a7 94       	ror	r10
     cca:	b6 94       	lsr	r11
     ccc:	a7 94       	ror	r10
     cce:	b6 94       	lsr	r11
     cd0:	a7 94       	ror	r10
     cd2:	b6 94       	lsr	r11
     cd4:	a7 94       	ror	r10
     cd6:	d1 2c       	mov	r13, r1
     cd8:	c6 01       	movw	r24, r12
     cda:	88 0f       	add	r24, r24
     cdc:	99 1f       	adc	r25, r25
     cde:	88 0f       	add	r24, r24
     ce0:	99 1f       	adc	r25, r25
     ce2:	88 0f       	add	r24, r24
     ce4:	99 1f       	adc	r25, r25
     ce6:	a0 ee       	ldi	r26, 0xE0	; 224
     ce8:	b3 e0       	ldi	r27, 0x03	; 3
     cea:	bc 83       	std	Y+4, r27	; 0x04
     cec:	ab 83       	std	Y+3, r26	; 0x03
     cee:	09 81       	ldd	r16, Y+1	; 0x01
     cf0:	1a 81       	ldd	r17, Y+2	; 0x02
     cf2:	fc 01       	movw	r30, r24
     cf4:	e0 5f       	subi	r30, 0xF0	; 240
     cf6:	f1 40       	sbci	r31, 0x01	; 1
     cf8:	6f 01       	movw	r12, r30
     cfa:	32 01       	movw	r6, r4
     cfc:	ff e0       	ldi	r31, 0x0F	; 15
     cfe:	6f 22       	and	r6, r31
     d00:	77 24       	eor	r7, r7
     d02:	d7 01       	movw	r26, r14
     d04:	12 96       	adiw	r26, 0x02	; 2
     d06:	8c 91       	ld	r24, X
     d08:	12 97       	sbiw	r26, 0x02	; 2
     d0a:	90 e0       	ldi	r25, 0x00	; 0
     d0c:	14 96       	adiw	r26, 0x04	; 4
     d0e:	2c 91       	ld	r18, X
     d10:	82 1b       	sub	r24, r18
     d12:	91 09       	sbc	r25, r1
     d14:	23 2d       	mov	r18, r3
     d16:	8a 15       	cp	r24, r10
     d18:	9b 05       	cpc	r25, r11
     d1a:	09 f0       	breq	.+2      	; 0xd1e <write_menu_oled_to_SRAM+0x24c>
     d1c:	22 2d       	mov	r18, r2
     d1e:	22 23       	and	r18, r18
     d20:	71 f0       	breq	.+28     	; 0xd3e <write_menu_oled_to_SRAM+0x26c>
     d22:	83 2d       	mov	r24, r3
     d24:	61 14       	cp	r6, r1
     d26:	71 04       	cpc	r7, r1
     d28:	09 f0       	breq	.+2      	; 0xd2c <write_menu_oled_to_SRAM+0x25a>
     d2a:	82 2d       	mov	r24, r2
     d2c:	88 23       	and	r24, r24
     d2e:	39 f0       	breq	.+14     	; 0xd3e <write_menu_oled_to_SRAM+0x26c>
     d30:	eb 81       	ldd	r30, Y+3	; 0x03
     d32:	fc 81       	ldd	r31, Y+4	; 0x04
     d34:	64 91       	lpm	r22, Z
     d36:	c8 01       	movw	r24, r16
     d38:	0e 94 3f 0c 	call	0x187e	; 0x187e <SRAM_write>
     d3c:	08 c0       	rjmp	.+16     	; 0xd4e <write_menu_oled_to_SRAM+0x27c>
     d3e:	eb 81       	ldd	r30, Y+3	; 0x03
     d40:	fc 81       	ldd	r31, Y+4	; 0x04
     d42:	ec 0d       	add	r30, r12
     d44:	fd 1d       	adc	r31, r13
     d46:	64 91       	lpm	r22, Z
     d48:	c8 01       	movw	r24, r16
     d4a:	0e 94 3f 0c 	call	0x187e	; 0x187e <SRAM_write>
     d4e:	2b 81       	ldd	r18, Y+3	; 0x03
     d50:	3c 81       	ldd	r19, Y+4	; 0x04
     d52:	2f 5f       	subi	r18, 0xFF	; 255
     d54:	3f 4f       	sbci	r19, 0xFF	; 255
     d56:	3c 83       	std	Y+4, r19	; 0x04
     d58:	2b 83       	std	Y+3, r18	; 0x03
     d5a:	0f 5f       	subi	r16, 0xFF	; 255
     d5c:	1f 4f       	sbci	r17, 0xFF	; 255
     d5e:	28 15       	cp	r18, r8
     d60:	39 05       	cpc	r19, r9
     d62:	79 f6       	brne	.-98     	; 0xd02 <write_menu_oled_to_SRAM+0x230>
     d64:	3f ef       	ldi	r19, 0xFF	; 255
     d66:	43 1a       	sub	r4, r19
     d68:	53 0a       	sbc	r5, r19
     d6a:	89 81       	ldd	r24, Y+1	; 0x01
     d6c:	9a 81       	ldd	r25, Y+2	; 0x02
     d6e:	08 96       	adiw	r24, 0x08	; 8
     d70:	9a 83       	std	Y+2, r25	; 0x02
     d72:	89 83       	std	Y+1, r24	; 0x01
     d74:	90 e8       	ldi	r25, 0x80	; 128
     d76:	49 16       	cp	r4, r25
     d78:	51 04       	cpc	r5, r1
     d7a:	09 f0       	breq	.+2      	; 0xd7e <write_menu_oled_to_SRAM+0x2ac>
     d7c:	93 cf       	rjmp	.-218    	; 0xca4 <write_menu_oled_to_SRAM+0x1d2>
     d7e:	2a 96       	adiw	r28, 0x0a	; 10
     d80:	0f b6       	in	r0, 0x3f	; 63
     d82:	f8 94       	cli
     d84:	de bf       	out	0x3e, r29	; 62
     d86:	0f be       	out	0x3f, r0	; 63
     d88:	cd bf       	out	0x3d, r28	; 61
     d8a:	df 91       	pop	r29
     d8c:	cf 91       	pop	r28
     d8e:	1f 91       	pop	r17
     d90:	0f 91       	pop	r16
     d92:	ff 90       	pop	r15
     d94:	ef 90       	pop	r14
     d96:	df 90       	pop	r13
     d98:	cf 90       	pop	r12
     d9a:	bf 90       	pop	r11
     d9c:	af 90       	pop	r10
     d9e:	9f 90       	pop	r9
     da0:	8f 90       	pop	r8
     da2:	7f 90       	pop	r7
     da4:	6f 90       	pop	r6
     da6:	5f 90       	pop	r5
     da8:	4f 90       	pop	r4
     daa:	3f 90       	pop	r3
     dac:	2f 90       	pop	r2
     dae:	08 95       	ret

00000db0 <handleMenuSelection>:
     db0:	cf 93       	push	r28
     db2:	df 93       	push	r29
     db4:	eb 01       	movw	r28, r22
     db6:	0e 94 78 0a 	call	0x14f0	; 0x14f0 <oled_clear_screen>
     dba:	80 91 4a 02 	lds	r24, 0x024A	; 0x80024a <currentMenuState>
     dbe:	81 30       	cpi	r24, 0x01	; 1
     dc0:	09 f4       	brne	.+2      	; 0xdc4 <handleMenuSelection+0x14>
     dc2:	6f c0       	rjmp	.+222    	; 0xea2 <handleMenuSelection+0xf2>
     dc4:	20 f0       	brcs	.+8      	; 0xdce <handleMenuSelection+0x1e>
     dc6:	82 30       	cpi	r24, 0x02	; 2
     dc8:	09 f4       	brne	.+2      	; 0xdcc <handleMenuSelection+0x1c>
     dca:	41 c0       	rjmp	.+130    	; 0xe4e <handleMenuSelection+0x9e>
     dcc:	89 c0       	rjmp	.+274    	; 0xee0 <handleMenuSelection+0x130>
     dce:	8a 81       	ldd	r24, Y+2	; 0x02
     dd0:	82 30       	cpi	r24, 0x02	; 2
     dd2:	e9 f0       	breq	.+58     	; 0xe0e <handleMenuSelection+0x5e>
     dd4:	28 f4       	brcc	.+10     	; 0xde0 <handleMenuSelection+0x30>
     dd6:	88 23       	and	r24, r24
     dd8:	41 f0       	breq	.+16     	; 0xdea <handleMenuSelection+0x3a>
     dda:	81 30       	cpi	r24, 0x01	; 1
     ddc:	71 f0       	breq	.+28     	; 0xdfa <handleMenuSelection+0x4a>
     dde:	31 c0       	rjmp	.+98     	; 0xe42 <handleMenuSelection+0x92>
     de0:	83 30       	cpi	r24, 0x03	; 3
     de2:	f9 f0       	breq	.+62     	; 0xe22 <handleMenuSelection+0x72>
     de4:	84 30       	cpi	r24, 0x04	; 4
     de6:	39 f1       	breq	.+78     	; 0xe36 <handleMenuSelection+0x86>
     de8:	2c c0       	rjmp	.+88     	; 0xe42 <handleMenuSelection+0x92>
     dea:	6b ea       	ldi	r22, 0xAB	; 171
     dec:	71 e0       	ldi	r23, 0x01	; 1
     dee:	80 e0       	ldi	r24, 0x00	; 0
     df0:	0e 94 cc 09 	call	0x1398	; 0x1398 <oled_write_line_to_SRAM>
     df4:	0e 94 0f 09 	call	0x121e	; 0x121e <oled_data_from_SRAM>
     df8:	73 c0       	rjmp	.+230    	; 0xee0 <handleMenuSelection+0x130>
     dfa:	82 e0       	ldi	r24, 0x02	; 2
     dfc:	80 93 4a 02 	sts	0x024A, r24	; 0x80024a <currentMenuState>
     e00:	83 e5       	ldi	r24, 0x53	; 83
     e02:	92 e0       	ldi	r25, 0x02	; 2
     e04:	90 93 49 02 	sts	0x0249, r25	; 0x800249 <__data_end+0x1>
     e08:	80 93 48 02 	sts	0x0248, r24	; 0x800248 <__data_end>
     e0c:	69 c0       	rjmp	.+210    	; 0xee0 <handleMenuSelection+0x130>
     e0e:	81 e0       	ldi	r24, 0x01	; 1
     e10:	80 93 4a 02 	sts	0x024A, r24	; 0x80024a <currentMenuState>
     e14:	8f e5       	ldi	r24, 0x5F	; 95
     e16:	92 e0       	ldi	r25, 0x02	; 2
     e18:	90 93 49 02 	sts	0x0249, r25	; 0x800249 <__data_end+0x1>
     e1c:	80 93 48 02 	sts	0x0248, r24	; 0x800248 <__data_end>
     e20:	5f c0       	rjmp	.+190    	; 0xee0 <handleMenuSelection+0x130>
     e22:	6d eb       	ldi	r22, 0xBD	; 189
     e24:	71 e0       	ldi	r23, 0x01	; 1
     e26:	80 e0       	ldi	r24, 0x00	; 0
     e28:	0e 94 cc 09 	call	0x1398	; 0x1398 <oled_write_line_to_SRAM>
     e2c:	80 e7       	ldi	r24, 0x70	; 112
     e2e:	92 e0       	ldi	r25, 0x02	; 2
     e30:	0e 94 61 09 	call	0x12c2	; 0x12c2 <oled_write_screen_to_SRAM>
     e34:	55 c0       	rjmp	.+170    	; 0xee0 <handleMenuSelection+0x130>
     e36:	60 ed       	ldi	r22, 0xD0	; 208
     e38:	71 e0       	ldi	r23, 0x01	; 1
     e3a:	80 e0       	ldi	r24, 0x00	; 0
     e3c:	0e 94 cc 09 	call	0x1398	; 0x1398 <oled_write_line_to_SRAM>
     e40:	4f c0       	rjmp	.+158    	; 0xee0 <handleMenuSelection+0x130>
     e42:	6d ed       	ldi	r22, 0xDD	; 221
     e44:	71 e0       	ldi	r23, 0x01	; 1
     e46:	80 e0       	ldi	r24, 0x00	; 0
     e48:	0e 94 cc 09 	call	0x1398	; 0x1398 <oled_write_line_to_SRAM>
     e4c:	49 c0       	rjmp	.+146    	; 0xee0 <handleMenuSelection+0x130>
     e4e:	8a 81       	ldd	r24, Y+2	; 0x02
     e50:	81 30       	cpi	r24, 0x01	; 1
     e52:	61 f0       	breq	.+24     	; 0xe6c <handleMenuSelection+0xbc>
     e54:	28 f0       	brcs	.+10     	; 0xe60 <handleMenuSelection+0xb0>
     e56:	82 30       	cpi	r24, 0x02	; 2
     e58:	79 f0       	breq	.+30     	; 0xe78 <handleMenuSelection+0xc8>
     e5a:	83 30       	cpi	r24, 0x03	; 3
     e5c:	99 f0       	breq	.+38     	; 0xe84 <handleMenuSelection+0xd4>
     e5e:	1b c0       	rjmp	.+54     	; 0xe96 <handleMenuSelection+0xe6>
     e60:	6a ee       	ldi	r22, 0xEA	; 234
     e62:	71 e0       	ldi	r23, 0x01	; 1
     e64:	80 e0       	ldi	r24, 0x00	; 0
     e66:	0e 94 cc 09 	call	0x1398	; 0x1398 <oled_write_line_to_SRAM>
     e6a:	3a c0       	rjmp	.+116    	; 0xee0 <handleMenuSelection+0x130>
     e6c:	65 e0       	ldi	r22, 0x05	; 5
     e6e:	72 e0       	ldi	r23, 0x02	; 2
     e70:	80 e0       	ldi	r24, 0x00	; 0
     e72:	0e 94 cc 09 	call	0x1398	; 0x1398 <oled_write_line_to_SRAM>
     e76:	34 c0       	rjmp	.+104    	; 0xee0 <handleMenuSelection+0x130>
     e78:	69 e1       	ldi	r22, 0x19	; 25
     e7a:	72 e0       	ldi	r23, 0x02	; 2
     e7c:	80 e0       	ldi	r24, 0x00	; 0
     e7e:	0e 94 cc 09 	call	0x1398	; 0x1398 <oled_write_line_to_SRAM>
     e82:	2e c0       	rjmp	.+92     	; 0xee0 <handleMenuSelection+0x130>
     e84:	10 92 4a 02 	sts	0x024A, r1	; 0x80024a <currentMenuState>
     e88:	89 e5       	ldi	r24, 0x59	; 89
     e8a:	92 e0       	ldi	r25, 0x02	; 2
     e8c:	90 93 49 02 	sts	0x0249, r25	; 0x800249 <__data_end+0x1>
     e90:	80 93 48 02 	sts	0x0248, r24	; 0x800248 <__data_end>
     e94:	25 c0       	rjmp	.+74     	; 0xee0 <handleMenuSelection+0x130>
     e96:	6d ed       	ldi	r22, 0xDD	; 221
     e98:	71 e0       	ldi	r23, 0x01	; 1
     e9a:	80 e0       	ldi	r24, 0x00	; 0
     e9c:	0e 94 cc 09 	call	0x1398	; 0x1398 <oled_write_line_to_SRAM>
     ea0:	1f c0       	rjmp	.+62     	; 0xee0 <handleMenuSelection+0x130>
     ea2:	8a 81       	ldd	r24, Y+2	; 0x02
     ea4:	88 23       	and	r24, r24
     ea6:	19 f0       	breq	.+6      	; 0xeae <handleMenuSelection+0xfe>
     ea8:	81 30       	cpi	r24, 0x01	; 1
     eaa:	79 f0       	breq	.+30     	; 0xeca <handleMenuSelection+0x11a>
     eac:	14 c0       	rjmp	.+40     	; 0xed6 <handleMenuSelection+0x126>
     eae:	6e e2       	ldi	r22, 0x2E	; 46
     eb0:	72 e0       	ldi	r23, 0x02	; 2
     eb2:	80 e0       	ldi	r24, 0x00	; 0
     eb4:	0e 94 cc 09 	call	0x1398	; 0x1398 <oled_write_line_to_SRAM>
     eb8:	10 92 4a 02 	sts	0x024A, r1	; 0x80024a <currentMenuState>
     ebc:	89 e5       	ldi	r24, 0x59	; 89
     ebe:	92 e0       	ldi	r25, 0x02	; 2
     ec0:	90 93 49 02 	sts	0x0249, r25	; 0x800249 <__data_end+0x1>
     ec4:	80 93 48 02 	sts	0x0248, r24	; 0x800248 <__data_end>
     ec8:	0b c0       	rjmp	.+22     	; 0xee0 <handleMenuSelection+0x130>
     eca:	6b e3       	ldi	r22, 0x3B	; 59
     ecc:	72 e0       	ldi	r23, 0x02	; 2
     ece:	80 e0       	ldi	r24, 0x00	; 0
     ed0:	0e 94 cc 09 	call	0x1398	; 0x1398 <oled_write_line_to_SRAM>
     ed4:	05 c0       	rjmp	.+10     	; 0xee0 <handleMenuSelection+0x130>
     ed6:	6d ed       	ldi	r22, 0xDD	; 221
     ed8:	71 e0       	ldi	r23, 0x01	; 1
     eda:	80 e0       	ldi	r24, 0x00	; 0
     edc:	0e 94 cc 09 	call	0x1398	; 0x1398 <oled_write_line_to_SRAM>
     ee0:	df 91       	pop	r29
     ee2:	cf 91       	pop	r28
     ee4:	08 95       	ret

00000ee6 <menu_navigate>:
     ee6:	0f 93       	push	r16
     ee8:	1f 93       	push	r17
     eea:	cf 93       	push	r28
     eec:	df 93       	push	r29
     eee:	ec 01       	movw	r28, r24
     ef0:	8b 01       	movw	r16, r22
     ef2:	0e 94 56 08 	call	0x10ac	; 0x10ac <MultiBoard_Update>
     ef6:	b8 01       	movw	r22, r16
     ef8:	ce 01       	movw	r24, r28
     efa:	0e 94 03 05 	call	0xa06	; 0xa06 <update_menu_position_from_joystick>
     efe:	21 e0       	ldi	r18, 0x01	; 1
     f00:	30 e0       	ldi	r19, 0x00	; 0
     f02:	8f 81       	ldd	r24, Y+7	; 0x07
     f04:	88 23       	and	r24, r24
     f06:	11 f0       	breq	.+4      	; 0xf0c <menu_navigate+0x26>
     f08:	20 e0       	ldi	r18, 0x00	; 0
     f0a:	30 e0       	ldi	r19, 0x00	; 0
     f0c:	9e 81       	ldd	r25, Y+6	; 0x06
     f0e:	89 2f       	mov	r24, r25
     f10:	90 e0       	ldi	r25, 0x00	; 0
     f12:	82 23       	and	r24, r18
     f14:	93 23       	and	r25, r19
     f16:	89 2b       	or	r24, r25
     f18:	21 f0       	breq	.+8      	; 0xf22 <menu_navigate+0x3c>
     f1a:	b8 01       	movw	r22, r16
     f1c:	ce 01       	movw	r24, r28
     f1e:	0e 94 d8 06 	call	0xdb0	; 0xdb0 <handleMenuSelection>
     f22:	c8 01       	movw	r24, r16
     f24:	0e 94 69 05 	call	0xad2	; 0xad2 <write_menu_oled_to_SRAM>
     f28:	8e 81       	ldd	r24, Y+6	; 0x06
     f2a:	8f 83       	std	Y+7, r24	; 0x07
     f2c:	df 91       	pop	r29
     f2e:	cf 91       	pop	r28
     f30:	1f 91       	pop	r17
     f32:	0f 91       	pop	r16
     f34:	08 95       	ret

00000f36 <initialize_menus>:
	/*
	Hadde det vert penare å initialisere main menue her i staden for i main?
	*/
	
	
	mainMenu.items = &mainMenuItems;
     f36:	e9 e5       	ldi	r30, 0x59	; 89
     f38:	f2 e0       	ldi	r31, 0x02	; 2
     f3a:	80 ef       	ldi	r24, 0xF0	; 240
     f3c:	91 e0       	ldi	r25, 0x01	; 1
     f3e:	91 83       	std	Z+1, r25	; 0x01
     f40:	80 83       	st	Z, r24
	mainMenu.num_items = 5;
     f42:	85 e0       	ldi	r24, 0x05	; 5
     f44:	85 83       	std	Z+5, r24	; 0x05
	mainMenu.current_position = 0;
     f46:	12 82       	std	Z+2, r1	; 0x02
	mainMenu.prev_position = 0;
     f48:	13 82       	std	Z+3, r1	; 0x03
	mainMenu.scroll_offset = 0;
     f4a:	14 82       	std	Z+4, r1	; 0x04

	scrollMenu.items = &scrollMenuItems;
     f4c:	ef e5       	ldi	r30, 0x5F	; 95
     f4e:	f2 e0       	ldi	r31, 0x02	; 2
     f50:	80 eb       	ldi	r24, 0xB0	; 176
     f52:	90 e0       	ldi	r25, 0x00	; 0
     f54:	91 83       	std	Z+1, r25	; 0x01
     f56:	80 83       	st	Z, r24
	scrollMenu.num_items = 20;
     f58:	84 e1       	ldi	r24, 0x14	; 20
     f5a:	85 83       	std	Z+5, r24	; 0x05
	scrollMenu.current_position = 0;
     f5c:	12 82       	std	Z+2, r1	; 0x02
	scrollMenu.prev_position = 0;
     f5e:	13 82       	std	Z+3, r1	; 0x03
	scrollMenu.scroll_offset = 0;
     f60:	14 82       	std	Z+4, r1	; 0x04

	settingsMenu.items = &settingsMenuItems;
     f62:	e3 e5       	ldi	r30, 0x53	; 83
     f64:	f2 e0       	ldi	r31, 0x02	; 2
     f66:	80 e7       	ldi	r24, 0x70	; 112
     f68:	90 e0       	ldi	r25, 0x00	; 0
     f6a:	91 83       	std	Z+1, r25	; 0x01
     f6c:	80 83       	st	Z, r24
	settingsMenu.num_items = 4;
     f6e:	84 e0       	ldi	r24, 0x04	; 4
     f70:	85 83       	std	Z+5, r24	; 0x05
	settingsMenu.current_position = 0;
     f72:	12 82       	std	Z+2, r1	; 0x02
	settingsMenu.prev_position = 0;
     f74:	13 82       	std	Z+3, r1	; 0x03
	settingsMenu.scroll_offset = 0;
     f76:	14 82       	std	Z+4, r1	; 0x04
     f78:	08 95       	ret

00000f7a <MultiBoard_Init>:
     f7a:	cf 93       	push	r28
     f7c:	df 93       	push	r29
     f7e:	ec 01       	movw	r28, r24
     f80:	8c 98       	cbi	0x11, 4	; 17
     f82:	bb 98       	cbi	0x17, 3	; 23
     f84:	ba 98       	cbi	0x17, 2	; 23
     f86:	b9 98       	cbi	0x17, 1	; 23
     f88:	c2 9a       	sbi	0x18, 2	; 24
     f8a:	60 e8       	ldi	r22, 0x80	; 128
     f8c:	80 e0       	ldi	r24, 0x00	; 0
     f8e:	94 e1       	ldi	r25, 0x14	; 20
     f90:	0e 94 5f 0c 	call	0x18be	; 0x18be <Universal_write>
     f94:	b1 99       	sbic	0x16, 1	; 22
     f96:	fe cf       	rjmp	.-4      	; 0xf94 <MultiBoard_Init+0x1a>
     f98:	80 e0       	ldi	r24, 0x00	; 0
     f9a:	94 e1       	ldi	r25, 0x14	; 20
     f9c:	0e 94 6f 0c 	call	0x18de	; 0x18de <Universal_read>
     fa0:	89 87       	std	Y+9, r24	; 0x09
     fa2:	80 e0       	ldi	r24, 0x00	; 0
     fa4:	94 e1       	ldi	r25, 0x14	; 20
     fa6:	0e 94 6f 0c 	call	0x18de	; 0x18de <Universal_read>
     faa:	88 87       	std	Y+8, r24	; 0x08
     fac:	1a 82       	std	Y+2, r1	; 0x02
     fae:	1b 82       	std	Y+3, r1	; 0x03
     fb0:	1c 82       	std	Y+4, r1	; 0x04
     fb2:	1d 82       	std	Y+5, r1	; 0x05
     fb4:	19 82       	std	Y+1, r1	; 0x01
     fb6:	18 82       	st	Y, r1
     fb8:	1b 86       	std	Y+11, r1	; 0x0b
     fba:	1a 86       	std	Y+10, r1	; 0x0a
     fbc:	1d 86       	std	Y+13, r1	; 0x0d
     fbe:	1c 86       	std	Y+12, r1	; 0x0c
     fc0:	1f 86       	std	Y+15, r1	; 0x0f
     fc2:	1e 86       	std	Y+14, r1	; 0x0e
     fc4:	1e 82       	std	Y+6, r1	; 0x06
     fc6:	1f 82       	std	Y+7, r1	; 0x07
     fc8:	19 8a       	std	Y+17, r1	; 0x11
     fca:	18 8a       	std	Y+16, r1	; 0x10
     fcc:	df 91       	pop	r29
     fce:	cf 91       	pop	r28
     fd0:	08 95       	ret

00000fd2 <MultiBoard_UpdateJoystickAngle>:
     fd2:	fc 01       	movw	r30, r24
     fd4:	62 85       	ldd	r22, Z+10	; 0x0a
     fd6:	73 85       	ldd	r23, Z+11	; 0x0b
     fd8:	44 85       	ldd	r20, Z+12	; 0x0c
     fda:	55 85       	ldd	r21, Z+13	; 0x0d
     fdc:	cb 01       	movw	r24, r22
     fde:	05 96       	adiw	r24, 0x05	; 5
     fe0:	0b 97       	sbiw	r24, 0x0b	; 11
     fe2:	38 f4       	brcc	.+14     	; 0xff2 <MultiBoard_UpdateJoystickAngle+0x20>
     fe4:	ca 01       	movw	r24, r20
     fe6:	05 96       	adiw	r24, 0x05	; 5
     fe8:	0b 97       	sbiw	r24, 0x0b	; 11
     fea:	18 f4       	brcc	.+6      	; 0xff2 <MultiBoard_UpdateJoystickAngle+0x20>
     fec:	17 86       	std	Z+15, r1	; 0x0f
     fee:	16 86       	std	Z+14, r1	; 0x0e
     ff0:	08 95       	ret
     ff2:	87 2f       	mov	r24, r23
     ff4:	80 95       	com	r24
     ff6:	88 1f       	adc	r24, r24
     ff8:	88 27       	eor	r24, r24
     ffa:	88 1f       	adc	r24, r24
     ffc:	90 e0       	ldi	r25, 0x00	; 0
     ffe:	88 0f       	add	r24, r24
    1000:	99 1f       	adc	r25, r25
    1002:	25 2f       	mov	r18, r21
    1004:	20 95       	com	r18
    1006:	22 1f       	adc	r18, r18
    1008:	22 27       	eor	r18, r18
    100a:	22 1f       	adc	r18, r18
    100c:	82 2b       	or	r24, r18
    100e:	81 30       	cpi	r24, 0x01	; 1
    1010:	91 05       	cpc	r25, r1
    1012:	b9 f0       	breq	.+46     	; 0x1042 <MultiBoard_UpdateJoystickAngle+0x70>
    1014:	1c f4       	brge	.+6      	; 0x101c <MultiBoard_UpdateJoystickAngle+0x4a>
    1016:	89 2b       	or	r24, r25
    1018:	29 f1       	breq	.+74     	; 0x1064 <MultiBoard_UpdateJoystickAngle+0x92>
    101a:	45 c0       	rjmp	.+138    	; 0x10a6 <MultiBoard_UpdateJoystickAngle+0xd4>
    101c:	82 30       	cpi	r24, 0x02	; 2
    101e:	91 05       	cpc	r25, r1
    1020:	99 f1       	breq	.+102    	; 0x1088 <MultiBoard_UpdateJoystickAngle+0xb6>
    1022:	03 97       	sbiw	r24, 0x03	; 3
    1024:	09 f0       	breq	.+2      	; 0x1028 <MultiBoard_UpdateJoystickAngle+0x56>
    1026:	3f c0       	rjmp	.+126    	; 0x10a6 <MultiBoard_UpdateJoystickAngle+0xd4>
    1028:	2a e5       	ldi	r18, 0x5A	; 90
    102a:	24 9f       	mul	r18, r20
    102c:	c0 01       	movw	r24, r0
    102e:	25 9f       	mul	r18, r21
    1030:	90 0d       	add	r25, r0
    1032:	11 24       	eor	r1, r1
    1034:	64 0f       	add	r22, r20
    1036:	75 1f       	adc	r23, r21
    1038:	0e 94 7f 0c 	call	0x18fe	; 0x18fe <__divmodhi4>
    103c:	77 87       	std	Z+15, r23	; 0x0f
    103e:	66 87       	std	Z+14, r22	; 0x0e
    1040:	08 95       	ret
    1042:	26 ea       	ldi	r18, 0xA6	; 166
    1044:	26 03       	mulsu	r18, r22
    1046:	c0 01       	movw	r24, r0
    1048:	27 9f       	mul	r18, r23
    104a:	90 0d       	add	r25, r0
    104c:	11 24       	eor	r1, r1
    104e:	9a 01       	movw	r18, r20
    1050:	26 1b       	sub	r18, r22
    1052:	37 0b       	sbc	r19, r23
    1054:	b9 01       	movw	r22, r18
    1056:	0e 94 7f 0c 	call	0x18fe	; 0x18fe <__divmodhi4>
    105a:	66 5a       	subi	r22, 0xA6	; 166
    105c:	7f 4f       	sbci	r23, 0xFF	; 255
    105e:	77 87       	std	Z+15, r23	; 0x0f
    1060:	66 87       	std	Z+14, r22	; 0x0e
    1062:	08 95       	ret
    1064:	26 ea       	ldi	r18, 0xA6	; 166
    1066:	24 03       	mulsu	r18, r20
    1068:	c0 01       	movw	r24, r0
    106a:	25 9f       	mul	r18, r21
    106c:	90 0d       	add	r25, r0
    106e:	11 24       	eor	r1, r1
    1070:	71 95       	neg	r23
    1072:	61 95       	neg	r22
    1074:	71 09       	sbc	r23, r1
    1076:	64 1b       	sub	r22, r20
    1078:	75 0b       	sbc	r23, r21
    107a:	0e 94 7f 0c 	call	0x18fe	; 0x18fe <__divmodhi4>
    107e:	6c 54       	subi	r22, 0x4C	; 76
    1080:	7f 4f       	sbci	r23, 0xFF	; 255
    1082:	77 87       	std	Z+15, r23	; 0x0f
    1084:	66 87       	std	Z+14, r22	; 0x0e
    1086:	08 95       	ret
    1088:	2a e5       	ldi	r18, 0x5A	; 90
    108a:	26 9f       	mul	r18, r22
    108c:	c0 01       	movw	r24, r0
    108e:	27 9f       	mul	r18, r23
    1090:	90 0d       	add	r25, r0
    1092:	11 24       	eor	r1, r1
    1094:	64 1b       	sub	r22, r20
    1096:	75 0b       	sbc	r23, r21
    1098:	0e 94 7f 0c 	call	0x18fe	; 0x18fe <__divmodhi4>
    109c:	62 5f       	subi	r22, 0xF2	; 242
    109e:	7e 4f       	sbci	r23, 0xFE	; 254
    10a0:	77 87       	std	Z+15, r23	; 0x0f
    10a2:	66 87       	std	Z+14, r22	; 0x0e
    10a4:	08 95       	ret
    10a6:	17 86       	std	Z+15, r1	; 0x0f
    10a8:	16 86       	std	Z+14, r1	; 0x0e
    10aa:	08 95       	ret

000010ac <MultiBoard_Update>:
    10ac:	cf 93       	push	r28
    10ae:	df 93       	push	r29
    10b0:	ec 01       	movw	r28, r24
    10b2:	60 e0       	ldi	r22, 0x00	; 0
    10b4:	80 e0       	ldi	r24, 0x00	; 0
    10b6:	94 e1       	ldi	r25, 0x14	; 20
    10b8:	0e 94 5f 0c 	call	0x18be	; 0x18be <Universal_write>
    10bc:	b1 99       	sbic	0x16, 1	; 22
    10be:	fe cf       	rjmp	.-4      	; 0x10bc <MultiBoard_Update+0x10>
    10c0:	80 e0       	ldi	r24, 0x00	; 0
    10c2:	94 e1       	ldi	r25, 0x14	; 20
    10c4:	0e 94 6f 0c 	call	0x18de	; 0x18de <Universal_read>
    10c8:	88 83       	st	Y, r24
    10ca:	80 e0       	ldi	r24, 0x00	; 0
    10cc:	94 e1       	ldi	r25, 0x14	; 20
    10ce:	0e 94 6f 0c 	call	0x18de	; 0x18de <Universal_read>
    10d2:	89 83       	std	Y+1, r24	; 0x01
    10d4:	80 e0       	ldi	r24, 0x00	; 0
    10d6:	94 e1       	ldi	r25, 0x14	; 20
    10d8:	0e 94 6f 0c 	call	0x18de	; 0x18de <Universal_read>
    10dc:	8b 83       	std	Y+3, r24	; 0x03
    10de:	80 e0       	ldi	r24, 0x00	; 0
    10e0:	94 e1       	ldi	r25, 0x14	; 20
    10e2:	0e 94 6f 0c 	call	0x18de	; 0x18de <Universal_read>
    10e6:	8a 83       	std	Y+2, r24	; 0x02
    10e8:	81 e0       	ldi	r24, 0x01	; 1
    10ea:	84 9b       	sbis	0x10, 4	; 16
    10ec:	80 e0       	ldi	r24, 0x00	; 0
    10ee:	8c 83       	std	Y+4, r24	; 0x04
    10f0:	81 e0       	ldi	r24, 0x01	; 1
    10f2:	b3 9b       	sbis	0x16, 3	; 22
    10f4:	80 e0       	ldi	r24, 0x00	; 0
    10f6:	8d 83       	std	Y+5, r24	; 0x05
    10f8:	81 e0       	ldi	r24, 0x01	; 1
    10fa:	b2 99       	sbic	0x16, 2	; 22
    10fc:	80 e0       	ldi	r24, 0x00	; 0
    10fe:	8e 83       	std	Y+6, r24	; 0x06
    1100:	88 81       	ld	r24, Y
    1102:	90 e0       	ldi	r25, 0x00	; 0
    1104:	29 85       	ldd	r18, Y+9	; 0x09
    1106:	82 1b       	sub	r24, r18
    1108:	91 09       	sbc	r25, r1
    110a:	9d 87       	std	Y+13, r25	; 0x0d
    110c:	8c 87       	std	Y+12, r24	; 0x0c
    110e:	89 81       	ldd	r24, Y+1	; 0x01
    1110:	90 e0       	ldi	r25, 0x00	; 0
    1112:	28 85       	ldd	r18, Y+8	; 0x08
    1114:	82 1b       	sub	r24, r18
    1116:	91 09       	sbc	r25, r1
    1118:	9b 87       	std	Y+11, r25	; 0x0b
    111a:	8a 87       	std	Y+10, r24	; 0x0a
    111c:	ce 01       	movw	r24, r28
    111e:	0e 94 e9 07 	call	0xfd2	; 0xfd2 <MultiBoard_UpdateJoystickAngle>
    1122:	df 91       	pop	r29
    1124:	cf 91       	pop	r28
    1126:	08 95       	ret

00001128 <oled_write_command>:
    1128:	68 2f       	mov	r22, r24
    112a:	80 e0       	ldi	r24, 0x00	; 0
    112c:	90 e0       	ldi	r25, 0x00	; 0
    112e:	0e 94 5f 0c 	call	0x18be	; 0x18be <Universal_write>
    1132:	08 95       	ret

00001134 <oled_write_data>:
    1134:	ef 92       	push	r14
    1136:	ff 92       	push	r15
    1138:	0f 93       	push	r16
    113a:	1f 93       	push	r17
    113c:	cf 93       	push	r28
    113e:	df 93       	push	r29
    1140:	61 15       	cp	r22, r1
    1142:	71 05       	cpc	r23, r1
    1144:	81 f0       	breq	.+32     	; 0x1166 <oled_write_data+0x32>
    1146:	7c 01       	movw	r14, r24
    1148:	8c 01       	movw	r16, r24
    114a:	e6 0e       	add	r14, r22
    114c:	f7 1e       	adc	r15, r23
    114e:	c0 e0       	ldi	r28, 0x00	; 0
    1150:	d2 e0       	ldi	r29, 0x02	; 2
    1152:	f8 01       	movw	r30, r16
    1154:	61 91       	ld	r22, Z+
    1156:	8f 01       	movw	r16, r30
    1158:	ce 01       	movw	r24, r28
    115a:	0e 94 5f 0c 	call	0x18be	; 0x18be <Universal_write>
    115e:	21 96       	adiw	r28, 0x01	; 1
    1160:	0e 15       	cp	r16, r14
    1162:	1f 05       	cpc	r17, r15
    1164:	b1 f7       	brne	.-20     	; 0x1152 <oled_write_data+0x1e>
    1166:	df 91       	pop	r29
    1168:	cf 91       	pop	r28
    116a:	1f 91       	pop	r17
    116c:	0f 91       	pop	r16
    116e:	ff 90       	pop	r15
    1170:	ef 90       	pop	r14
    1172:	08 95       	ret

00001174 <oled_set_page>:
    1174:	87 70       	andi	r24, 0x07	; 7
    1176:	80 6b       	ori	r24, 0xB0	; 176
    1178:	0e 94 94 08 	call	0x1128	; 0x1128 <oled_write_command>
    117c:	08 95       	ret

0000117e <oled_set_column>:
    117e:	cf 93       	push	r28
    1180:	c8 2f       	mov	r28, r24
    1182:	82 95       	swap	r24
    1184:	8f 70       	andi	r24, 0x0F	; 15
    1186:	80 61       	ori	r24, 0x10	; 16
    1188:	0e 94 94 08 	call	0x1128	; 0x1128 <oled_write_command>
    118c:	8c 2f       	mov	r24, r28
    118e:	8f 70       	andi	r24, 0x0F	; 15
    1190:	0e 94 94 08 	call	0x1128	; 0x1128 <oled_write_command>
    1194:	cf 91       	pop	r28
    1196:	08 95       	ret

00001198 <oled_init>:
    1198:	8e ea       	ldi	r24, 0xAE	; 174
    119a:	0e 94 94 08 	call	0x1128	; 0x1128 <oled_write_command>
    119e:	81 ea       	ldi	r24, 0xA1	; 161
    11a0:	0e 94 94 08 	call	0x1128	; 0x1128 <oled_write_command>
    11a4:	8a ed       	ldi	r24, 0xDA	; 218
    11a6:	0e 94 94 08 	call	0x1128	; 0x1128 <oled_write_command>
    11aa:	82 e1       	ldi	r24, 0x12	; 18
    11ac:	0e 94 94 08 	call	0x1128	; 0x1128 <oled_write_command>
    11b0:	88 ec       	ldi	r24, 0xC8	; 200
    11b2:	0e 94 94 08 	call	0x1128	; 0x1128 <oled_write_command>
    11b6:	88 ea       	ldi	r24, 0xA8	; 168
    11b8:	0e 94 94 08 	call	0x1128	; 0x1128 <oled_write_command>
    11bc:	8f e3       	ldi	r24, 0x3F	; 63
    11be:	0e 94 94 08 	call	0x1128	; 0x1128 <oled_write_command>
    11c2:	85 ed       	ldi	r24, 0xD5	; 213
    11c4:	0e 94 94 08 	call	0x1128	; 0x1128 <oled_write_command>
    11c8:	80 e8       	ldi	r24, 0x80	; 128
    11ca:	0e 94 94 08 	call	0x1128	; 0x1128 <oled_write_command>
    11ce:	81 e8       	ldi	r24, 0x81	; 129
    11d0:	0e 94 94 08 	call	0x1128	; 0x1128 <oled_write_command>
    11d4:	80 e5       	ldi	r24, 0x50	; 80
    11d6:	0e 94 94 08 	call	0x1128	; 0x1128 <oled_write_command>
    11da:	89 ed       	ldi	r24, 0xD9	; 217
    11dc:	0e 94 94 08 	call	0x1128	; 0x1128 <oled_write_command>
    11e0:	81 e2       	ldi	r24, 0x21	; 33
    11e2:	0e 94 94 08 	call	0x1128	; 0x1128 <oled_write_command>
    11e6:	80 e2       	ldi	r24, 0x20	; 32
    11e8:	0e 94 94 08 	call	0x1128	; 0x1128 <oled_write_command>
    11ec:	82 e0       	ldi	r24, 0x02	; 2
    11ee:	0e 94 94 08 	call	0x1128	; 0x1128 <oled_write_command>
    11f2:	8b ed       	ldi	r24, 0xDB	; 219
    11f4:	0e 94 94 08 	call	0x1128	; 0x1128 <oled_write_command>
    11f8:	80 e3       	ldi	r24, 0x30	; 48
    11fa:	0e 94 94 08 	call	0x1128	; 0x1128 <oled_write_command>
    11fe:	8d ea       	ldi	r24, 0xAD	; 173
    1200:	0e 94 94 08 	call	0x1128	; 0x1128 <oled_write_command>
    1204:	80 e0       	ldi	r24, 0x00	; 0
    1206:	0e 94 94 08 	call	0x1128	; 0x1128 <oled_write_command>
    120a:	84 ea       	ldi	r24, 0xA4	; 164
    120c:	0e 94 94 08 	call	0x1128	; 0x1128 <oled_write_command>
    1210:	86 ea       	ldi	r24, 0xA6	; 166
    1212:	0e 94 94 08 	call	0x1128	; 0x1128 <oled_write_command>
    1216:	8f ea       	ldi	r24, 0xAF	; 175
    1218:	0e 94 94 08 	call	0x1128	; 0x1128 <oled_write_command>
    121c:	08 95       	ret

0000121e <oled_data_from_SRAM>:
    121e:	8f 92       	push	r8
    1220:	9f 92       	push	r9
    1222:	bf 92       	push	r11
    1224:	cf 92       	push	r12
    1226:	df 92       	push	r13
    1228:	ef 92       	push	r14
    122a:	ff 92       	push	r15
    122c:	0f 93       	push	r16
    122e:	1f 93       	push	r17
    1230:	cf 93       	push	r28
    1232:	df 93       	push	r29
    1234:	cd b7       	in	r28, 0x3d	; 61
    1236:	de b7       	in	r29, 0x3e	; 62
    1238:	c0 58       	subi	r28, 0x80	; 128
    123a:	d1 09       	sbc	r29, r1
    123c:	0f b6       	in	r0, 0x3f	; 63
    123e:	f8 94       	cli
    1240:	de bf       	out	0x3e, r29	; 62
    1242:	0f be       	out	0x3f, r0	; 63
    1244:	cd bf       	out	0x3d, r28	; 61
    1246:	ce 01       	movw	r24, r28
    1248:	01 96       	adiw	r24, 0x01	; 1
    124a:	4c 01       	movw	r8, r24
    124c:	ee 24       	eor	r14, r14
    124e:	ff 24       	eor	r15, r15
    1250:	e8 1a       	sub	r14, r24
    1252:	f9 0a       	sbc	r15, r25
    1254:	b1 2c       	mov	r11, r1
    1256:	6e 01       	movw	r12, r28
    1258:	91 e8       	ldi	r25, 0x81	; 129
    125a:	c9 0e       	add	r12, r25
    125c:	d1 1c       	adc	r13, r1
    125e:	8b 2d       	mov	r24, r11
    1260:	0e 94 ba 08 	call	0x1174	; 0x1174 <oled_set_page>
    1264:	80 e0       	ldi	r24, 0x00	; 0
    1266:	0e 94 bf 08 	call	0x117e	; 0x117e <oled_set_column>
    126a:	84 01       	movw	r16, r8
    126c:	c8 01       	movw	r24, r16
    126e:	8e 0d       	add	r24, r14
    1270:	9f 1d       	adc	r25, r15
    1272:	0e 94 4f 0c 	call	0x189e	; 0x189e <SRAM_read>
    1276:	f8 01       	movw	r30, r16
    1278:	81 93       	st	Z+, r24
    127a:	8f 01       	movw	r16, r30
    127c:	ec 15       	cp	r30, r12
    127e:	fd 05       	cpc	r31, r13
    1280:	a9 f7       	brne	.-22     	; 0x126c <oled_data_from_SRAM+0x4e>
    1282:	60 e8       	ldi	r22, 0x80	; 128
    1284:	70 e0       	ldi	r23, 0x00	; 0
    1286:	ce 01       	movw	r24, r28
    1288:	01 96       	adiw	r24, 0x01	; 1
    128a:	0e 94 9a 08 	call	0x1134	; 0x1134 <oled_write_data>
    128e:	b3 94       	inc	r11
    1290:	f0 e8       	ldi	r31, 0x80	; 128
    1292:	ef 0e       	add	r14, r31
    1294:	f1 1c       	adc	r15, r1
    1296:	88 e0       	ldi	r24, 0x08	; 8
    1298:	b8 12       	cpse	r11, r24
    129a:	e1 cf       	rjmp	.-62     	; 0x125e <oled_data_from_SRAM+0x40>
    129c:	c0 58       	subi	r28, 0x80	; 128
    129e:	df 4f       	sbci	r29, 0xFF	; 255
    12a0:	0f b6       	in	r0, 0x3f	; 63
    12a2:	f8 94       	cli
    12a4:	de bf       	out	0x3e, r29	; 62
    12a6:	0f be       	out	0x3f, r0	; 63
    12a8:	cd bf       	out	0x3d, r28	; 61
    12aa:	df 91       	pop	r29
    12ac:	cf 91       	pop	r28
    12ae:	1f 91       	pop	r17
    12b0:	0f 91       	pop	r16
    12b2:	ff 90       	pop	r15
    12b4:	ef 90       	pop	r14
    12b6:	df 90       	pop	r13
    12b8:	cf 90       	pop	r12
    12ba:	bf 90       	pop	r11
    12bc:	9f 90       	pop	r9
    12be:	8f 90       	pop	r8
    12c0:	08 95       	ret

000012c2 <oled_write_screen_to_SRAM>:
    12c2:	6f 92       	push	r6
    12c4:	7f 92       	push	r7
    12c6:	8f 92       	push	r8
    12c8:	9f 92       	push	r9
    12ca:	af 92       	push	r10
    12cc:	bf 92       	push	r11
    12ce:	cf 92       	push	r12
    12d0:	df 92       	push	r13
    12d2:	ef 92       	push	r14
    12d4:	ff 92       	push	r15
    12d6:	0f 93       	push	r16
    12d8:	1f 93       	push	r17
    12da:	cf 93       	push	r28
    12dc:	df 93       	push	r29
    12de:	4c 01       	movw	r8, r24
    12e0:	e1 2c       	mov	r14, r1
    12e2:	f1 2c       	mov	r15, r1
    12e4:	0f 2e       	mov	r0, r31
    12e6:	f0 ef       	ldi	r31, 0xF0	; 240
    12e8:	6f 2e       	mov	r6, r31
    12ea:	f2 e0       	ldi	r31, 0x02	; 2
    12ec:	7f 2e       	mov	r7, r31
    12ee:	f0 2d       	mov	r31, r0
    12f0:	0f 2e       	mov	r0, r31
    12f2:	f8 ef       	ldi	r31, 0xF8	; 248
    12f4:	af 2e       	mov	r10, r31
    12f6:	f2 e0       	ldi	r31, 0x02	; 2
    12f8:	bf 2e       	mov	r11, r31
    12fa:	f0 2d       	mov	r31, r0
    12fc:	f4 01       	movw	r30, r8
    12fe:	04 91       	lpm	r16, Z
    1300:	80 ee       	ldi	r24, 0xE0	; 224
    1302:	80 0f       	add	r24, r16
    1304:	80 36       	cpi	r24, 0x60	; 96
    1306:	f0 f4       	brcc	.+60     	; 0x1344 <oled_write_screen_to_SRAM+0x82>
    1308:	10 e0       	ldi	r17, 0x00	; 0
    130a:	00 52       	subi	r16, 0x20	; 32
    130c:	11 09       	sbc	r17, r1
    130e:	00 0f       	add	r16, r16
    1310:	11 1f       	adc	r17, r17
    1312:	00 0f       	add	r16, r16
    1314:	11 1f       	adc	r17, r17
    1316:	00 0f       	add	r16, r16
    1318:	11 1f       	adc	r17, r17
    131a:	67 01       	movw	r12, r14
    131c:	f8 e0       	ldi	r31, 0x08	; 8
    131e:	cf 0e       	add	r12, r31
    1320:	d1 1c       	adc	r13, r1
    1322:	e7 01       	movw	r28, r14
    1324:	0e 19       	sub	r16, r14
    1326:	1f 09       	sbc	r17, r15
    1328:	f8 01       	movw	r30, r16
    132a:	ec 0f       	add	r30, r28
    132c:	fd 1f       	adc	r31, r29
    132e:	e0 51       	subi	r30, 0x10	; 16
    1330:	fd 4f       	sbci	r31, 0xFD	; 253
    1332:	64 91       	lpm	r22, Z
    1334:	ce 01       	movw	r24, r28
    1336:	0e 94 3f 0c 	call	0x187e	; 0x187e <SRAM_write>
    133a:	21 96       	adiw	r28, 0x01	; 1
    133c:	cc 16       	cp	r12, r28
    133e:	dd 06       	cpc	r13, r29
    1340:	99 f7       	brne	.-26     	; 0x1328 <oled_write_screen_to_SRAM+0x66>
    1342:	10 c0       	rjmp	.+32     	; 0x1364 <oled_write_screen_to_SRAM+0xa2>
    1344:	c0 ef       	ldi	r28, 0xF0	; 240
    1346:	d2 e0       	ldi	r29, 0x02	; 2
    1348:	87 01       	movw	r16, r14
    134a:	06 19       	sub	r16, r6
    134c:	17 09       	sbc	r17, r7
    134e:	fe 01       	movw	r30, r28
    1350:	64 91       	lpm	r22, Z
    1352:	c8 01       	movw	r24, r16
    1354:	8c 0f       	add	r24, r28
    1356:	9d 1f       	adc	r25, r29
    1358:	0e 94 3f 0c 	call	0x187e	; 0x187e <SRAM_write>
    135c:	21 96       	adiw	r28, 0x01	; 1
    135e:	ca 15       	cp	r28, r10
    1360:	db 05       	cpc	r29, r11
    1362:	a9 f7       	brne	.-22     	; 0x134e <oled_write_screen_to_SRAM+0x8c>
    1364:	ff ef       	ldi	r31, 0xFF	; 255
    1366:	8f 1a       	sub	r8, r31
    1368:	9f 0a       	sbc	r9, r31
    136a:	88 e0       	ldi	r24, 0x08	; 8
    136c:	e8 0e       	add	r14, r24
    136e:	f1 1c       	adc	r15, r1
    1370:	e1 14       	cp	r14, r1
    1372:	e4 e0       	ldi	r30, 0x04	; 4
    1374:	fe 06       	cpc	r15, r30
    1376:	09 f0       	breq	.+2      	; 0x137a <oled_write_screen_to_SRAM+0xb8>
    1378:	c1 cf       	rjmp	.-126    	; 0x12fc <oled_write_screen_to_SRAM+0x3a>
    137a:	df 91       	pop	r29
    137c:	cf 91       	pop	r28
    137e:	1f 91       	pop	r17
    1380:	0f 91       	pop	r16
    1382:	ff 90       	pop	r15
    1384:	ef 90       	pop	r14
    1386:	df 90       	pop	r13
    1388:	cf 90       	pop	r12
    138a:	bf 90       	pop	r11
    138c:	af 90       	pop	r10
    138e:	9f 90       	pop	r9
    1390:	8f 90       	pop	r8
    1392:	7f 90       	pop	r7
    1394:	6f 90       	pop	r6
    1396:	08 95       	ret

00001398 <oled_write_line_to_SRAM>:
    1398:	8f 92       	push	r8
    139a:	9f 92       	push	r9
    139c:	bf 92       	push	r11
    139e:	cf 92       	push	r12
    13a0:	df 92       	push	r13
    13a2:	ef 92       	push	r14
    13a4:	ff 92       	push	r15
    13a6:	0f 93       	push	r16
    13a8:	1f 93       	push	r17
    13aa:	cf 93       	push	r28
    13ac:	df 93       	push	r29
    13ae:	88 30       	cpi	r24, 0x08	; 8
    13b0:	08 f0       	brcs	.+2      	; 0x13b4 <oled_write_line_to_SRAM+0x1c>
    13b2:	5e c0       	rjmp	.+188    	; 0x1470 <oled_write_line_to_SRAM+0xd8>
    13b4:	fb 01       	movw	r30, r22
    13b6:	90 e8       	ldi	r25, 0x80	; 128
    13b8:	89 9f       	mul	r24, r25
    13ba:	60 01       	movw	r12, r0
    13bc:	11 24       	eor	r1, r1
    13be:	80 81       	ld	r24, Z
    13c0:	88 23       	and	r24, r24
    13c2:	09 f4       	brne	.+2      	; 0x13c6 <oled_write_line_to_SRAM+0x2e>
    13c4:	47 c0       	rjmp	.+142    	; 0x1454 <oled_write_line_to_SRAM+0xbc>
    13c6:	76 01       	movw	r14, r12
    13c8:	8b 01       	movw	r16, r22
    13ca:	b1 2c       	mov	r11, r1
    13cc:	0a c0       	rjmp	.+20     	; 0x13e2 <oled_write_line_to_SRAM+0x4a>
    13ce:	0f 5f       	subi	r16, 0xFF	; 255
    13d0:	1f 4f       	sbci	r17, 0xFF	; 255
    13d2:	a8 e0       	ldi	r26, 0x08	; 8
    13d4:	ea 0e       	add	r14, r26
    13d6:	f1 1c       	adc	r15, r1
    13d8:	f8 01       	movw	r30, r16
    13da:	80 81       	ld	r24, Z
    13dc:	88 23       	and	r24, r24
    13de:	09 f4       	brne	.+2      	; 0x13e2 <oled_write_line_to_SRAM+0x4a>
    13e0:	3a c0       	rjmp	.+116    	; 0x1456 <oled_write_line_to_SRAM+0xbe>
    13e2:	c0 e0       	ldi	r28, 0x00	; 0
    13e4:	d0 e0       	ldi	r29, 0x00	; 0
    13e6:	d8 01       	movw	r26, r16
    13e8:	ec 91       	ld	r30, X
    13ea:	f0 e0       	ldi	r31, 0x00	; 0
    13ec:	b0 97       	sbiw	r30, 0x20	; 32
    13ee:	ee 0f       	add	r30, r30
    13f0:	ff 1f       	adc	r31, r31
    13f2:	ee 0f       	add	r30, r30
    13f4:	ff 1f       	adc	r31, r31
    13f6:	ee 0f       	add	r30, r30
    13f8:	ff 1f       	adc	r31, r31
    13fa:	ec 0f       	add	r30, r28
    13fc:	fd 1f       	adc	r31, r29
    13fe:	e0 51       	subi	r30, 0x10	; 16
    1400:	fd 4f       	sbci	r31, 0xFD	; 253
    1402:	64 91       	lpm	r22, Z
    1404:	c7 01       	movw	r24, r14
    1406:	8c 0f       	add	r24, r28
    1408:	9d 1f       	adc	r25, r29
    140a:	0e 94 3f 0c 	call	0x187e	; 0x187e <SRAM_write>
    140e:	21 96       	adiw	r28, 0x01	; 1
    1410:	c8 30       	cpi	r28, 0x08	; 8
    1412:	d1 05       	cpc	r29, r1
    1414:	41 f7       	brne	.-48     	; 0x13e6 <oled_write_line_to_SRAM+0x4e>
    1416:	b3 94       	inc	r11
    1418:	b0 e1       	ldi	r27, 0x10	; 16
    141a:	bb 12       	cpse	r11, r27
    141c:	d8 cf       	rjmp	.-80     	; 0x13ce <oled_write_line_to_SRAM+0x36>
    141e:	28 c0       	rjmp	.+80     	; 0x1470 <oled_write_line_to_SRAM+0xd8>
    1420:	fe 01       	movw	r30, r28
    1422:	64 91       	lpm	r22, Z
    1424:	c8 01       	movw	r24, r16
    1426:	8c 0f       	add	r24, r28
    1428:	9d 1f       	adc	r25, r29
    142a:	0e 94 3f 0c 	call	0x187e	; 0x187e <SRAM_write>
    142e:	21 96       	adiw	r28, 0x01	; 1
    1430:	ce 15       	cp	r28, r14
    1432:	df 05       	cpc	r29, r15
    1434:	a9 f7       	brne	.-22     	; 0x1420 <oled_write_line_to_SRAM+0x88>
    1436:	b3 94       	inc	r11
    1438:	ff e0       	ldi	r31, 0x0F	; 15
    143a:	fb 15       	cp	r31, r11
    143c:	c8 f0       	brcs	.+50     	; 0x1470 <oled_write_line_to_SRAM+0xd8>
    143e:	c0 ef       	ldi	r28, 0xF0	; 240
    1440:	d2 e0       	ldi	r29, 0x02	; 2
    1442:	86 01       	movw	r16, r12
    1444:	88 e0       	ldi	r24, 0x08	; 8
    1446:	b8 9e       	mul	r11, r24
    1448:	00 0d       	add	r16, r0
    144a:	11 1d       	adc	r17, r1
    144c:	11 24       	eor	r1, r1
    144e:	08 19       	sub	r16, r8
    1450:	19 09       	sbc	r17, r9
    1452:	e6 cf       	rjmp	.-52     	; 0x1420 <oled_write_line_to_SRAM+0x88>
    1454:	b1 2c       	mov	r11, r1
    1456:	0f 2e       	mov	r0, r31
    1458:	f0 ef       	ldi	r31, 0xF0	; 240
    145a:	8f 2e       	mov	r8, r31
    145c:	f2 e0       	ldi	r31, 0x02	; 2
    145e:	9f 2e       	mov	r9, r31
    1460:	f0 2d       	mov	r31, r0
    1462:	0f 2e       	mov	r0, r31
    1464:	f8 ef       	ldi	r31, 0xF8	; 248
    1466:	ef 2e       	mov	r14, r31
    1468:	f2 e0       	ldi	r31, 0x02	; 2
    146a:	ff 2e       	mov	r15, r31
    146c:	f0 2d       	mov	r31, r0
    146e:	e7 cf       	rjmp	.-50     	; 0x143e <oled_write_line_to_SRAM+0xa6>
    1470:	df 91       	pop	r29
    1472:	cf 91       	pop	r28
    1474:	1f 91       	pop	r17
    1476:	0f 91       	pop	r16
    1478:	ff 90       	pop	r15
    147a:	ef 90       	pop	r14
    147c:	df 90       	pop	r13
    147e:	cf 90       	pop	r12
    1480:	bf 90       	pop	r11
    1482:	9f 90       	pop	r9
    1484:	8f 90       	pop	r8
    1486:	08 95       	ret

00001488 <oled_write_pixel_to_SRAM>:
    1488:	0f 93       	push	r16
    148a:	1f 93       	push	r17
    148c:	cf 93       	push	r28
    148e:	df 93       	push	r29
    1490:	80 34       	cpi	r24, 0x40	; 64
    1492:	48 f5       	brcc	.+82     	; 0x14e6 <oled_write_pixel_to_SRAM+0x5e>
    1494:	66 23       	and	r22, r22
    1496:	3c f1       	brlt	.+78     	; 0x14e6 <oled_write_pixel_to_SRAM+0x5e>
    1498:	04 2f       	mov	r16, r20
    149a:	18 2f       	mov	r17, r24
    149c:	86 95       	lsr	r24
    149e:	86 95       	lsr	r24
    14a0:	86 95       	lsr	r24
    14a2:	c6 2f       	mov	r28, r22
    14a4:	d0 e0       	ldi	r29, 0x00	; 0
    14a6:	90 e8       	ldi	r25, 0x80	; 128
    14a8:	89 9f       	mul	r24, r25
    14aa:	c0 0d       	add	r28, r0
    14ac:	d1 1d       	adc	r29, r1
    14ae:	11 24       	eor	r1, r1
    14b0:	ce 01       	movw	r24, r28
    14b2:	0e 94 4f 0c 	call	0x189e	; 0x189e <SRAM_read>
    14b6:	17 70       	andi	r17, 0x07	; 7
    14b8:	00 23       	and	r16, r16
    14ba:	49 f0       	breq	.+18     	; 0x14ce <oled_write_pixel_to_SRAM+0x46>
    14bc:	61 e0       	ldi	r22, 0x01	; 1
    14be:	70 e0       	ldi	r23, 0x00	; 0
    14c0:	02 c0       	rjmp	.+4      	; 0x14c6 <oled_write_pixel_to_SRAM+0x3e>
    14c2:	66 0f       	add	r22, r22
    14c4:	77 1f       	adc	r23, r23
    14c6:	1a 95       	dec	r17
    14c8:	e2 f7       	brpl	.-8      	; 0x14c2 <oled_write_pixel_to_SRAM+0x3a>
    14ca:	68 2b       	or	r22, r24
    14cc:	09 c0       	rjmp	.+18     	; 0x14e0 <oled_write_pixel_to_SRAM+0x58>
    14ce:	61 e0       	ldi	r22, 0x01	; 1
    14d0:	70 e0       	ldi	r23, 0x00	; 0
    14d2:	02 c0       	rjmp	.+4      	; 0x14d8 <oled_write_pixel_to_SRAM+0x50>
    14d4:	66 0f       	add	r22, r22
    14d6:	77 1f       	adc	r23, r23
    14d8:	1a 95       	dec	r17
    14da:	e2 f7       	brpl	.-8      	; 0x14d4 <oled_write_pixel_to_SRAM+0x4c>
    14dc:	60 95       	com	r22
    14de:	68 23       	and	r22, r24
    14e0:	ce 01       	movw	r24, r28
    14e2:	0e 94 3f 0c 	call	0x187e	; 0x187e <SRAM_write>
    14e6:	df 91       	pop	r29
    14e8:	cf 91       	pop	r28
    14ea:	1f 91       	pop	r17
    14ec:	0f 91       	pop	r16
    14ee:	08 95       	ret

000014f0 <oled_clear_screen>:
    14f0:	cf 93       	push	r28
    14f2:	df 93       	push	r29
    14f4:	c0 e0       	ldi	r28, 0x00	; 0
    14f6:	d0 e0       	ldi	r29, 0x00	; 0
    14f8:	60 e0       	ldi	r22, 0x00	; 0
    14fa:	ce 01       	movw	r24, r28
    14fc:	0e 94 3f 0c 	call	0x187e	; 0x187e <SRAM_write>
    1500:	21 96       	adiw	r28, 0x01	; 1
    1502:	c1 15       	cp	r28, r1
    1504:	84 e0       	ldi	r24, 0x04	; 4
    1506:	d8 07       	cpc	r29, r24
    1508:	b9 f7       	brne	.-18     	; 0x14f8 <oled_clear_screen+0x8>
    150a:	df 91       	pop	r29
    150c:	cf 91       	pop	r28
    150e:	08 95       	ret

00001510 <oled_draw_line>:
    1510:	6f 92       	push	r6
    1512:	7f 92       	push	r7
    1514:	8f 92       	push	r8
    1516:	9f 92       	push	r9
    1518:	af 92       	push	r10
    151a:	bf 92       	push	r11
    151c:	cf 92       	push	r12
    151e:	df 92       	push	r13
    1520:	ef 92       	push	r14
    1522:	ff 92       	push	r15
    1524:	0f 93       	push	r16
    1526:	1f 93       	push	r17
    1528:	cf 93       	push	r28
    152a:	df 93       	push	r29
    152c:	c8 2f       	mov	r28, r24
    152e:	d6 2f       	mov	r29, r22
    1530:	94 2e       	mov	r9, r20
    1532:	62 2e       	mov	r6, r18
    1534:	84 2f       	mov	r24, r20
    1536:	90 e0       	ldi	r25, 0x00	; 0
    1538:	8c 1b       	sub	r24, r28
    153a:	91 09       	sbc	r25, r1
    153c:	7c 01       	movw	r14, r24
    153e:	22 f4       	brpl	.+8      	; 0x1548 <oled_draw_line+0x38>
    1540:	ee 24       	eor	r14, r14
    1542:	ff 24       	eor	r15, r15
    1544:	e8 1a       	sub	r14, r24
    1546:	f9 0a       	sbc	r15, r25
    1548:	86 2d       	mov	r24, r6
    154a:	90 e0       	ldi	r25, 0x00	; 0
    154c:	8d 1b       	sub	r24, r29
    154e:	91 09       	sbc	r25, r1
    1550:	5c 01       	movw	r10, r24
    1552:	22 f4       	brpl	.+8      	; 0x155c <oled_draw_line+0x4c>
    1554:	aa 24       	eor	r10, r10
    1556:	bb 24       	eor	r11, r11
    1558:	a8 1a       	sub	r10, r24
    155a:	b9 0a       	sbc	r11, r25
    155c:	c9 15       	cp	r28, r9
    155e:	18 f0       	brcs	.+6      	; 0x1566 <oled_draw_line+0x56>
    1560:	88 24       	eor	r8, r8
    1562:	8a 94       	dec	r8
    1564:	02 c0       	rjmp	.+4      	; 0x156a <oled_draw_line+0x5a>
    1566:	88 24       	eor	r8, r8
    1568:	83 94       	inc	r8
    156a:	d6 15       	cp	r29, r6
    156c:	18 f0       	brcs	.+6      	; 0x1574 <oled_draw_line+0x64>
    156e:	77 24       	eor	r7, r7
    1570:	7a 94       	dec	r7
    1572:	02 c0       	rjmp	.+4      	; 0x1578 <oled_draw_line+0x68>
    1574:	77 24       	eor	r7, r7
    1576:	73 94       	inc	r7
    1578:	87 01       	movw	r16, r14
    157a:	0a 19       	sub	r16, r10
    157c:	1b 09       	sbc	r17, r11
    157e:	cc 24       	eor	r12, r12
    1580:	dd 24       	eor	r13, r13
    1582:	ca 18       	sub	r12, r10
    1584:	db 08       	sbc	r13, r11
    1586:	41 e0       	ldi	r20, 0x01	; 1
    1588:	6c 2f       	mov	r22, r28
    158a:	8d 2f       	mov	r24, r29
    158c:	0e 94 44 0a 	call	0x1488	; 0x1488 <oled_write_pixel_to_SRAM>
    1590:	c9 11       	cpse	r28, r9
    1592:	02 c0       	rjmp	.+4      	; 0x1598 <oled_draw_line+0x88>
    1594:	d6 15       	cp	r29, r6
    1596:	81 f0       	breq	.+32     	; 0x15b8 <oled_draw_line+0xa8>
    1598:	c8 01       	movw	r24, r16
    159a:	88 0f       	add	r24, r24
    159c:	99 1f       	adc	r25, r25
    159e:	c8 16       	cp	r12, r24
    15a0:	d9 06       	cpc	r13, r25
    15a2:	1c f4       	brge	.+6      	; 0x15aa <oled_draw_line+0x9a>
    15a4:	0a 19       	sub	r16, r10
    15a6:	1b 09       	sbc	r17, r11
    15a8:	c8 0d       	add	r28, r8
    15aa:	8e 15       	cp	r24, r14
    15ac:	9f 05       	cpc	r25, r15
    15ae:	5c f7       	brge	.-42     	; 0x1586 <oled_draw_line+0x76>
    15b0:	0e 0d       	add	r16, r14
    15b2:	1f 1d       	adc	r17, r15
    15b4:	d7 0d       	add	r29, r7
    15b6:	e7 cf       	rjmp	.-50     	; 0x1586 <oled_draw_line+0x76>
    15b8:	df 91       	pop	r29
    15ba:	cf 91       	pop	r28
    15bc:	1f 91       	pop	r17
    15be:	0f 91       	pop	r16
    15c0:	ff 90       	pop	r15
    15c2:	ef 90       	pop	r14
    15c4:	df 90       	pop	r13
    15c6:	cf 90       	pop	r12
    15c8:	bf 90       	pop	r11
    15ca:	af 90       	pop	r10
    15cc:	9f 90       	pop	r9
    15ce:	8f 90       	pop	r8
    15d0:	7f 90       	pop	r7
    15d2:	6f 90       	pop	r6
    15d4:	08 95       	ret

000015d6 <oled_draw_circle>:
    15d6:	9f 92       	push	r9
    15d8:	af 92       	push	r10
    15da:	bf 92       	push	r11
    15dc:	cf 92       	push	r12
    15de:	df 92       	push	r13
    15e0:	ef 92       	push	r14
    15e2:	ff 92       	push	r15
    15e4:	0f 93       	push	r16
    15e6:	1f 93       	push	r17
    15e8:	cf 93       	push	r28
    15ea:	df 93       	push	r29
    15ec:	98 2e       	mov	r9, r24
    15ee:	c6 2e       	mov	r12, r22
    15f0:	c4 2f       	mov	r28, r20
    15f2:	d0 e0       	ldi	r29, 0x00	; 0
    15f4:	a1 2c       	mov	r10, r1
    15f6:	b1 2c       	mov	r11, r1
    15f8:	00 e0       	ldi	r16, 0x00	; 0
    15fa:	10 e0       	ldi	r17, 0x00	; 0
    15fc:	41 e0       	ldi	r20, 0x01	; 1
    15fe:	fc 2e       	mov	r15, r28
    1600:	f9 0c       	add	r15, r9
    1602:	6f 2d       	mov	r22, r15
    1604:	dc 2c       	mov	r13, r12
    1606:	d0 0e       	add	r13, r16
    1608:	8d 2d       	mov	r24, r13
    160a:	0e 94 44 0a 	call	0x1488	; 0x1488 <oled_write_pixel_to_SRAM>
    160e:	41 e0       	ldi	r20, 0x01	; 1
    1610:	e9 2c       	mov	r14, r9
    1612:	ec 1a       	sub	r14, r28
    1614:	6e 2d       	mov	r22, r14
    1616:	8d 2d       	mov	r24, r13
    1618:	0e 94 44 0a 	call	0x1488	; 0x1488 <oled_write_pixel_to_SRAM>
    161c:	41 e0       	ldi	r20, 0x01	; 1
    161e:	6f 2d       	mov	r22, r15
    1620:	fc 2c       	mov	r15, r12
    1622:	f0 1a       	sub	r15, r16
    1624:	8f 2d       	mov	r24, r15
    1626:	0e 94 44 0a 	call	0x1488	; 0x1488 <oled_write_pixel_to_SRAM>
    162a:	41 e0       	ldi	r20, 0x01	; 1
    162c:	6e 2d       	mov	r22, r14
    162e:	8f 2d       	mov	r24, r15
    1630:	0e 94 44 0a 	call	0x1488	; 0x1488 <oled_write_pixel_to_SRAM>
    1634:	41 e0       	ldi	r20, 0x01	; 1
    1636:	f9 2c       	mov	r15, r9
    1638:	f0 0e       	add	r15, r16
    163a:	6f 2d       	mov	r22, r15
    163c:	dc 2e       	mov	r13, r28
    163e:	dc 0c       	add	r13, r12
    1640:	8d 2d       	mov	r24, r13
    1642:	0e 94 44 0a 	call	0x1488	; 0x1488 <oled_write_pixel_to_SRAM>
    1646:	41 e0       	ldi	r20, 0x01	; 1
    1648:	e9 2c       	mov	r14, r9
    164a:	e0 1a       	sub	r14, r16
    164c:	6e 2d       	mov	r22, r14
    164e:	8d 2d       	mov	r24, r13
    1650:	0e 94 44 0a 	call	0x1488	; 0x1488 <oled_write_pixel_to_SRAM>
    1654:	41 e0       	ldi	r20, 0x01	; 1
    1656:	6f 2d       	mov	r22, r15
    1658:	fc 2c       	mov	r15, r12
    165a:	fc 1a       	sub	r15, r28
    165c:	8f 2d       	mov	r24, r15
    165e:	0e 94 44 0a 	call	0x1488	; 0x1488 <oled_write_pixel_to_SRAM>
    1662:	41 e0       	ldi	r20, 0x01	; 1
    1664:	6e 2d       	mov	r22, r14
    1666:	8f 2d       	mov	r24, r15
    1668:	0e 94 44 0a 	call	0x1488	; 0x1488 <oled_write_pixel_to_SRAM>
    166c:	1a 14       	cp	r1, r10
    166e:	1b 04       	cpc	r1, r11
    1670:	5c f0       	brlt	.+22     	; 0x1688 <oled_draw_circle+0xb2>
    1672:	0f 5f       	subi	r16, 0xFF	; 255
    1674:	1f 4f       	sbci	r17, 0xFF	; 255
    1676:	c8 01       	movw	r24, r16
    1678:	88 0f       	add	r24, r24
    167a:	99 1f       	adc	r25, r25
    167c:	01 96       	adiw	r24, 0x01	; 1
    167e:	a8 0e       	add	r10, r24
    1680:	b9 1e       	adc	r11, r25
    1682:	1a 14       	cp	r1, r10
    1684:	1b 04       	cpc	r1, r11
    1686:	3c f4       	brge	.+14     	; 0x1696 <oled_draw_circle+0xc0>
    1688:	21 97       	sbiw	r28, 0x01	; 1
    168a:	ce 01       	movw	r24, r28
    168c:	88 0f       	add	r24, r24
    168e:	99 1f       	adc	r25, r25
    1690:	01 96       	adiw	r24, 0x01	; 1
    1692:	a8 1a       	sub	r10, r24
    1694:	b9 0a       	sbc	r11, r25
    1696:	c0 17       	cp	r28, r16
    1698:	d1 07       	cpc	r29, r17
    169a:	0c f0       	brlt	.+2      	; 0x169e <oled_draw_circle+0xc8>
    169c:	af cf       	rjmp	.-162    	; 0x15fc <oled_draw_circle+0x26>
    169e:	df 91       	pop	r29
    16a0:	cf 91       	pop	r28
    16a2:	1f 91       	pop	r17
    16a4:	0f 91       	pop	r16
    16a6:	ff 90       	pop	r15
    16a8:	ef 90       	pop	r14
    16aa:	df 90       	pop	r13
    16ac:	cf 90       	pop	r12
    16ae:	bf 90       	pop	r11
    16b0:	af 90       	pop	r10
    16b2:	9f 90       	pop	r9
    16b4:	08 95       	ret

000016b6 <oled_draw_square>:
    16b6:	0f 93       	push	r16
    16b8:	1f 93       	push	r17
    16ba:	cf 93       	push	r28
    16bc:	df 93       	push	r29
    16be:	08 2f       	mov	r16, r24
    16c0:	16 2f       	mov	r17, r22
    16c2:	d2 2f       	mov	r29, r18
    16c4:	c8 2f       	mov	r28, r24
    16c6:	c4 0f       	add	r28, r20
    16c8:	26 2f       	mov	r18, r22
    16ca:	4c 2f       	mov	r20, r28
    16cc:	0e 94 88 0a 	call	0x1510	; 0x1510 <oled_draw_line>
    16d0:	d1 0f       	add	r29, r17
    16d2:	2d 2f       	mov	r18, r29
    16d4:	4c 2f       	mov	r20, r28
    16d6:	6d 2f       	mov	r22, r29
    16d8:	80 2f       	mov	r24, r16
    16da:	0e 94 88 0a 	call	0x1510	; 0x1510 <oled_draw_line>
    16de:	2d 2f       	mov	r18, r29
    16e0:	40 2f       	mov	r20, r16
    16e2:	61 2f       	mov	r22, r17
    16e4:	80 2f       	mov	r24, r16
    16e6:	0e 94 88 0a 	call	0x1510	; 0x1510 <oled_draw_line>
    16ea:	2d 2f       	mov	r18, r29
    16ec:	4c 2f       	mov	r20, r28
    16ee:	61 2f       	mov	r22, r17
    16f0:	8c 2f       	mov	r24, r28
    16f2:	0e 94 88 0a 	call	0x1510	; 0x1510 <oled_draw_line>
    16f6:	df 91       	pop	r29
    16f8:	cf 91       	pop	r28
    16fa:	1f 91       	pop	r17
    16fc:	0f 91       	pop	r16
    16fe:	08 95       	ret

00001700 <__vector_15>:
    1700:	1f 92       	push	r1
    1702:	0f 92       	push	r0
    1704:	0f b6       	in	r0, 0x3f	; 63
    1706:	0f 92       	push	r0
    1708:	11 24       	eor	r1, r1
    170a:	8f 93       	push	r24
    170c:	9f 93       	push	r25
    170e:	af 93       	push	r26
    1710:	bf 93       	push	r27
    1712:	80 91 4f 02 	lds	r24, 0x024F	; 0x80024f <overflow_count1>
    1716:	90 91 50 02 	lds	r25, 0x0250	; 0x800250 <overflow_count1+0x1>
    171a:	a0 91 51 02 	lds	r26, 0x0251	; 0x800251 <overflow_count1+0x2>
    171e:	b0 91 52 02 	lds	r27, 0x0252	; 0x800252 <overflow_count1+0x3>
    1722:	01 96       	adiw	r24, 0x01	; 1
    1724:	a1 1d       	adc	r26, r1
    1726:	b1 1d       	adc	r27, r1
    1728:	80 93 4f 02 	sts	0x024F, r24	; 0x80024f <overflow_count1>
    172c:	90 93 50 02 	sts	0x0250, r25	; 0x800250 <overflow_count1+0x1>
    1730:	a0 93 51 02 	sts	0x0251, r26	; 0x800251 <overflow_count1+0x2>
    1734:	b0 93 52 02 	sts	0x0252, r27	; 0x800252 <overflow_count1+0x3>
    1738:	bf 91       	pop	r27
    173a:	af 91       	pop	r26
    173c:	9f 91       	pop	r25
    173e:	8f 91       	pop	r24
    1740:	0f 90       	pop	r0
    1742:	0f be       	out	0x3f, r0	; 63
    1744:	0f 90       	pop	r0
    1746:	1f 90       	pop	r1
    1748:	18 95       	reti

0000174a <__vector_9>:
    174a:	1f 92       	push	r1
    174c:	0f 92       	push	r0
    174e:	0f b6       	in	r0, 0x3f	; 63
    1750:	0f 92       	push	r0
    1752:	11 24       	eor	r1, r1
    1754:	8f 93       	push	r24
    1756:	9f 93       	push	r25
    1758:	af 93       	push	r26
    175a:	bf 93       	push	r27
    175c:	80 91 4b 02 	lds	r24, 0x024B	; 0x80024b <overflow_count3>
    1760:	90 91 4c 02 	lds	r25, 0x024C	; 0x80024c <overflow_count3+0x1>
    1764:	a0 91 4d 02 	lds	r26, 0x024D	; 0x80024d <overflow_count3+0x2>
    1768:	b0 91 4e 02 	lds	r27, 0x024E	; 0x80024e <overflow_count3+0x3>
    176c:	01 96       	adiw	r24, 0x01	; 1
    176e:	a1 1d       	adc	r26, r1
    1770:	b1 1d       	adc	r27, r1
    1772:	80 93 4b 02 	sts	0x024B, r24	; 0x80024b <overflow_count3>
    1776:	90 93 4c 02 	sts	0x024C, r25	; 0x80024c <overflow_count3+0x1>
    177a:	a0 93 4d 02 	sts	0x024D, r26	; 0x80024d <overflow_count3+0x2>
    177e:	b0 93 4e 02 	sts	0x024E, r27	; 0x80024e <overflow_count3+0x3>
    1782:	bf 91       	pop	r27
    1784:	af 91       	pop	r26
    1786:	9f 91       	pop	r25
    1788:	8f 91       	pop	r24
    178a:	0f 90       	pop	r0
    178c:	0f be       	out	0x3f, r0	; 63
    178e:	0f 90       	pop	r0
    1790:	1f 90       	pop	r1
    1792:	18 95       	reti

00001794 <setup_timer>:
    1794:	1f bc       	out	0x2f, r1	; 47
    1796:	81 e0       	ldi	r24, 0x01	; 1
    1798:	8e bd       	out	0x2e, r24	; 46
    179a:	89 b7       	in	r24, 0x39	; 57
    179c:	80 68       	ori	r24, 0x80	; 128
    179e:	89 bf       	out	0x39, r24	; 57
    17a0:	1d bc       	out	0x2d, r1	; 45
    17a2:	1c bc       	out	0x2c, r1	; 44
    17a4:	10 92 8b 00 	sts	0x008B, r1	; 0x80008b <__DATA_REGION_ORIGIN__+0x2b>
    17a8:	85 e0       	ldi	r24, 0x05	; 5
    17aa:	80 93 8a 00 	sts	0x008A, r24	; 0x80008a <__DATA_REGION_ORIGIN__+0x2a>
    17ae:	89 b7       	in	r24, 0x39	; 57
    17b0:	84 60       	ori	r24, 0x04	; 4
    17b2:	89 bf       	out	0x39, r24	; 57
    17b4:	10 92 89 00 	sts	0x0089, r1	; 0x800089 <__DATA_REGION_ORIGIN__+0x29>
    17b8:	10 92 88 00 	sts	0x0088, r1	; 0x800088 <__DATA_REGION_ORIGIN__+0x28>
    17bc:	08 95       	ret

000017be <screen_cycles>:
    17be:	80 91 4f 02 	lds	r24, 0x024F	; 0x80024f <overflow_count1>
    17c2:	90 91 50 02 	lds	r25, 0x0250	; 0x800250 <overflow_count1+0x1>
    17c6:	a0 91 51 02 	lds	r26, 0x0251	; 0x800251 <overflow_count1+0x2>
    17ca:	b0 91 52 02 	lds	r27, 0x0252	; 0x800252 <overflow_count1+0x3>
    17ce:	2c b5       	in	r18, 0x2c	; 44
    17d0:	3d b5       	in	r19, 0x2d	; 45
    17d2:	dc 01       	movw	r26, r24
    17d4:	99 27       	eor	r25, r25
    17d6:	88 27       	eor	r24, r24
    17d8:	bc 01       	movw	r22, r24
    17da:	cd 01       	movw	r24, r26
    17dc:	62 0f       	add	r22, r18
    17de:	73 1f       	adc	r23, r19
    17e0:	81 1d       	adc	r24, r1
    17e2:	91 1d       	adc	r25, r1
    17e4:	08 95       	ret

000017e6 <screen_ms>:
    17e6:	0e 94 df 0b 	call	0x17be	; 0x17be <screen_cycles>
    17ea:	23 e3       	ldi	r18, 0x33	; 51
    17ec:	33 e1       	ldi	r19, 0x13	; 19
    17ee:	40 e0       	ldi	r20, 0x00	; 0
    17f0:	50 e0       	ldi	r21, 0x00	; 0
    17f2:	0e 94 93 0c 	call	0x1926	; 0x1926 <__udivmodsi4>
    17f6:	ca 01       	movw	r24, r20
    17f8:	b9 01       	movw	r22, r18
    17fa:	08 95       	ret

000017fc <restart_screen_timer>:
    17fc:	1d bc       	out	0x2d, r1	; 45
    17fe:	1c bc       	out	0x2c, r1	; 44
    1800:	10 92 4f 02 	sts	0x024F, r1	; 0x80024f <overflow_count1>
    1804:	10 92 50 02 	sts	0x0250, r1	; 0x800250 <overflow_count1+0x1>
    1808:	10 92 51 02 	sts	0x0251, r1	; 0x800251 <overflow_count1+0x2>
    180c:	10 92 52 02 	sts	0x0252, r1	; 0x800252 <overflow_count1+0x3>
    1810:	08 95       	ret

00001812 <general_cycles>:
    1812:	80 91 4b 02 	lds	r24, 0x024B	; 0x80024b <overflow_count3>
    1816:	90 91 4c 02 	lds	r25, 0x024C	; 0x80024c <overflow_count3+0x1>
    181a:	a0 91 4d 02 	lds	r26, 0x024D	; 0x80024d <overflow_count3+0x2>
    181e:	b0 91 4e 02 	lds	r27, 0x024E	; 0x80024e <overflow_count3+0x3>
    1822:	20 91 88 00 	lds	r18, 0x0088	; 0x800088 <__DATA_REGION_ORIGIN__+0x28>
    1826:	30 91 89 00 	lds	r19, 0x0089	; 0x800089 <__DATA_REGION_ORIGIN__+0x29>
    182a:	dc 01       	movw	r26, r24
    182c:	99 27       	eor	r25, r25
    182e:	88 27       	eor	r24, r24
    1830:	bc 01       	movw	r22, r24
    1832:	cd 01       	movw	r24, r26
    1834:	62 0f       	add	r22, r18
    1836:	73 1f       	adc	r23, r19
    1838:	81 1d       	adc	r24, r1
    183a:	91 1d       	adc	r25, r1
    183c:	08 95       	ret

0000183e <general_ms>:
    183e:	0e 94 09 0c 	call	0x1812	; 0x1812 <general_cycles>
    1842:	9b 01       	movw	r18, r22
    1844:	ac 01       	movw	r20, r24
    1846:	a8 ee       	ldi	r26, 0xE8	; 232
    1848:	b3 e0       	ldi	r27, 0x03	; 3
    184a:	0e 94 b5 0c 	call	0x196a	; 0x196a <__muluhisi3>
    184e:	20 ec       	ldi	r18, 0xC0	; 192
    1850:	32 e1       	ldi	r19, 0x12	; 18
    1852:	40 e0       	ldi	r20, 0x00	; 0
    1854:	50 e0       	ldi	r21, 0x00	; 0
    1856:	0e 94 93 0c 	call	0x1926	; 0x1926 <__udivmodsi4>
    185a:	ca 01       	movw	r24, r20
    185c:	b9 01       	movw	r22, r18
    185e:	08 95       	ret

00001860 <externalMemoryInit>:
 */ 
#include "XMEM_Decode.h"
// Funksjon for ï¿½ initialisere det eksterne minnet (SRAM + latch)
void externalMemoryInit(void) {
	// Set Port A (AD0-AD7) og Port C (A8-A15) som utgang for adresse- og databuss
	DDRA = 0xFF;  // PA0-PA7 som utgang
    1860:	8f ef       	ldi	r24, 0xFF	; 255
    1862:	8a bb       	out	0x1a, r24	; 26
	DDRC = 0x0F ;  // PC0-PC3 som utgang
    1864:	8f e0       	ldi	r24, 0x0F	; 15
    1866:	84 bb       	out	0x14, r24	; 20
	
	// Set Port D (PD6 og PD7) som utgang for WR og RD signal
	setBit(DDRD, PD6);  // WR
    1868:	8e 9a       	sbi	0x11, 6	; 17
	setBit(DDRD, PD7);  // RD
    186a:	8f 9a       	sbi	0x11, 7	; 17

	// Set Port E (PE1) som utgang for ALE
	setBit(DDRE, PE1);  // ALE
    186c:	31 9a       	sbi	0x06, 1	; 6

	// Aktivere ekstern minnegrensesnitt
	setBit(MCUCR, SRE);   // Enable external SRAM interface
    186e:	85 b7       	in	r24, 0x35	; 53
    1870:	80 68       	ori	r24, 0x80	; 128
    1872:	85 bf       	out	0x35, r24	; 53
	SFIOR = 0x00;         // No wait state
    1874:	10 be       	out	0x30, r1	; 48
	
	//Maskes pc4-pc7 (disables as output) (s32 ATmega datasheet)
	setBit(SFIOR, XMM2);
    1876:	80 b7       	in	r24, 0x30	; 48
    1878:	80 62       	ori	r24, 0x20	; 32
    187a:	80 bf       	out	0x30, r24	; 48
    187c:	08 95       	ret

0000187e <SRAM_write>:
}


// Funksjon for ï¿½ skrive data til SRAM
void SRAM_write(volatile uint16_t addr, uint8_t data) {
    187e:	cf 93       	push	r28
    1880:	df 93       	push	r29
    1882:	00 d0       	rcall	.+0      	; 0x1884 <SRAM_write+0x6>
    1884:	cd b7       	in	r28, 0x3d	; 61
    1886:	de b7       	in	r29, 0x3e	; 62
    1888:	9a 83       	std	Y+2, r25	; 0x02
    188a:	89 83       	std	Y+1, r24	; 0x01
	volatile char *ext_ram = (char *) SRAM_START; // Startadresse for SRAM
	uint16_t ext_ram_size = SRAM_SIZE; // Stï¿½rrelsen pï¿½ SRAM (2 KB) - kan fjernast
	ext_ram[addr] = data;
    188c:	e9 81       	ldd	r30, Y+1	; 0x01
    188e:	fa 81       	ldd	r31, Y+2	; 0x02
    1890:	f8 5e       	subi	r31, 0xE8	; 232
    1892:	60 83       	st	Z, r22
}
    1894:	0f 90       	pop	r0
    1896:	0f 90       	pop	r0
    1898:	df 91       	pop	r29
    189a:	cf 91       	pop	r28
    189c:	08 95       	ret

0000189e <SRAM_read>:

// Funksjon for ï¿½ lese data frï¿½ SRAM
uint8_t SRAM_read(volatile uint16_t addr) {
    189e:	cf 93       	push	r28
    18a0:	df 93       	push	r29
    18a2:	00 d0       	rcall	.+0      	; 0x18a4 <SRAM_read+0x6>
    18a4:	cd b7       	in	r28, 0x3d	; 61
    18a6:	de b7       	in	r29, 0x3e	; 62
    18a8:	9a 83       	std	Y+2, r25	; 0x02
    18aa:	89 83       	std	Y+1, r24	; 0x01
	volatile char *ext_ram = (char *) SRAM_START; // Startadresse for SRAM
	uint16_t ext_ram_size = SRAM_SIZE; // Stï¿½rrelsen pï¿½ SRAM (2 KB) - kan fjernast
	uint8_t data = ext_ram[addr];
    18ac:	e9 81       	ldd	r30, Y+1	; 0x01
    18ae:	fa 81       	ldd	r31, Y+2	; 0x02
    18b0:	f8 5e       	subi	r31, 0xE8	; 232
    18b2:	80 81       	ld	r24, Z
	
	return data;
}
    18b4:	0f 90       	pop	r0
    18b6:	0f 90       	pop	r0
    18b8:	df 91       	pop	r29
    18ba:	cf 91       	pop	r28
    18bc:	08 95       	ret

000018be <Universal_write>:

// Funksjon for ï¿½ skrive data til SRAM
void Universal_write(volatile uint16_t addr, uint8_t data) {
    18be:	cf 93       	push	r28
    18c0:	df 93       	push	r29
    18c2:	00 d0       	rcall	.+0      	; 0x18c4 <Universal_write+0x6>
    18c4:	cd b7       	in	r28, 0x3d	; 61
    18c6:	de b7       	in	r29, 0x3e	; 62
    18c8:	9a 83       	std	Y+2, r25	; 0x02
    18ca:	89 83       	std	Y+1, r24	; 0x01
	volatile char *ext_ram = (char *) OLED_START; // Startadresse for SRAM
	ext_ram[addr] = data;
    18cc:	e9 81       	ldd	r30, Y+1	; 0x01
    18ce:	fa 81       	ldd	r31, Y+2	; 0x02
    18d0:	f0 5f       	subi	r31, 0xF0	; 240
    18d2:	60 83       	st	Z, r22
		
}
    18d4:	0f 90       	pop	r0
    18d6:	0f 90       	pop	r0
    18d8:	df 91       	pop	r29
    18da:	cf 91       	pop	r28
    18dc:	08 95       	ret

000018de <Universal_read>:

// Funksjon for ï¿½ lese data frï¿½ SRAM
uint8_t Universal_read(volatile uint16_t addr) {
    18de:	cf 93       	push	r28
    18e0:	df 93       	push	r29
    18e2:	00 d0       	rcall	.+0      	; 0x18e4 <Universal_read+0x6>
    18e4:	cd b7       	in	r28, 0x3d	; 61
    18e6:	de b7       	in	r29, 0x3e	; 62
    18e8:	9a 83       	std	Y+2, r25	; 0x02
    18ea:	89 83       	std	Y+1, r24	; 0x01
	volatile char *ext_ram = (char *) OLED_START; // Startadresse for SRAM
	uint8_t data = ext_ram[addr];
    18ec:	e9 81       	ldd	r30, Y+1	; 0x01
    18ee:	fa 81       	ldd	r31, Y+2	; 0x02
    18f0:	f0 5f       	subi	r31, 0xF0	; 240
    18f2:	80 81       	ld	r24, Z
	
	return data;
}
    18f4:	0f 90       	pop	r0
    18f6:	0f 90       	pop	r0
    18f8:	df 91       	pop	r29
    18fa:	cf 91       	pop	r28
    18fc:	08 95       	ret

000018fe <__divmodhi4>:
    18fe:	97 fb       	bst	r25, 7
    1900:	07 2e       	mov	r0, r23
    1902:	16 f4       	brtc	.+4      	; 0x1908 <__divmodhi4+0xa>
    1904:	00 94       	com	r0
    1906:	07 d0       	rcall	.+14     	; 0x1916 <__divmodhi4_neg1>
    1908:	77 fd       	sbrc	r23, 7
    190a:	09 d0       	rcall	.+18     	; 0x191e <__divmodhi4_neg2>
    190c:	0e 94 c0 0c 	call	0x1980	; 0x1980 <__udivmodhi4>
    1910:	07 fc       	sbrc	r0, 7
    1912:	05 d0       	rcall	.+10     	; 0x191e <__divmodhi4_neg2>
    1914:	3e f4       	brtc	.+14     	; 0x1924 <__divmodhi4_exit>

00001916 <__divmodhi4_neg1>:
    1916:	90 95       	com	r25
    1918:	81 95       	neg	r24
    191a:	9f 4f       	sbci	r25, 0xFF	; 255
    191c:	08 95       	ret

0000191e <__divmodhi4_neg2>:
    191e:	70 95       	com	r23
    1920:	61 95       	neg	r22
    1922:	7f 4f       	sbci	r23, 0xFF	; 255

00001924 <__divmodhi4_exit>:
    1924:	08 95       	ret

00001926 <__udivmodsi4>:
    1926:	a1 e2       	ldi	r26, 0x21	; 33
    1928:	1a 2e       	mov	r1, r26
    192a:	aa 1b       	sub	r26, r26
    192c:	bb 1b       	sub	r27, r27
    192e:	fd 01       	movw	r30, r26
    1930:	0d c0       	rjmp	.+26     	; 0x194c <__udivmodsi4_ep>

00001932 <__udivmodsi4_loop>:
    1932:	aa 1f       	adc	r26, r26
    1934:	bb 1f       	adc	r27, r27
    1936:	ee 1f       	adc	r30, r30
    1938:	ff 1f       	adc	r31, r31
    193a:	a2 17       	cp	r26, r18
    193c:	b3 07       	cpc	r27, r19
    193e:	e4 07       	cpc	r30, r20
    1940:	f5 07       	cpc	r31, r21
    1942:	20 f0       	brcs	.+8      	; 0x194c <__udivmodsi4_ep>
    1944:	a2 1b       	sub	r26, r18
    1946:	b3 0b       	sbc	r27, r19
    1948:	e4 0b       	sbc	r30, r20
    194a:	f5 0b       	sbc	r31, r21

0000194c <__udivmodsi4_ep>:
    194c:	66 1f       	adc	r22, r22
    194e:	77 1f       	adc	r23, r23
    1950:	88 1f       	adc	r24, r24
    1952:	99 1f       	adc	r25, r25
    1954:	1a 94       	dec	r1
    1956:	69 f7       	brne	.-38     	; 0x1932 <__udivmodsi4_loop>
    1958:	60 95       	com	r22
    195a:	70 95       	com	r23
    195c:	80 95       	com	r24
    195e:	90 95       	com	r25
    1960:	9b 01       	movw	r18, r22
    1962:	ac 01       	movw	r20, r24
    1964:	bd 01       	movw	r22, r26
    1966:	cf 01       	movw	r24, r30
    1968:	08 95       	ret

0000196a <__muluhisi3>:
    196a:	0e 94 d4 0c 	call	0x19a8	; 0x19a8 <__umulhisi3>
    196e:	a5 9f       	mul	r26, r21
    1970:	90 0d       	add	r25, r0
    1972:	b4 9f       	mul	r27, r20
    1974:	90 0d       	add	r25, r0
    1976:	a4 9f       	mul	r26, r20
    1978:	80 0d       	add	r24, r0
    197a:	91 1d       	adc	r25, r1
    197c:	11 24       	eor	r1, r1
    197e:	08 95       	ret

00001980 <__udivmodhi4>:
    1980:	aa 1b       	sub	r26, r26
    1982:	bb 1b       	sub	r27, r27
    1984:	51 e1       	ldi	r21, 0x11	; 17
    1986:	07 c0       	rjmp	.+14     	; 0x1996 <__udivmodhi4_ep>

00001988 <__udivmodhi4_loop>:
    1988:	aa 1f       	adc	r26, r26
    198a:	bb 1f       	adc	r27, r27
    198c:	a6 17       	cp	r26, r22
    198e:	b7 07       	cpc	r27, r23
    1990:	10 f0       	brcs	.+4      	; 0x1996 <__udivmodhi4_ep>
    1992:	a6 1b       	sub	r26, r22
    1994:	b7 0b       	sbc	r27, r23

00001996 <__udivmodhi4_ep>:
    1996:	88 1f       	adc	r24, r24
    1998:	99 1f       	adc	r25, r25
    199a:	5a 95       	dec	r21
    199c:	a9 f7       	brne	.-22     	; 0x1988 <__udivmodhi4_loop>
    199e:	80 95       	com	r24
    19a0:	90 95       	com	r25
    19a2:	bc 01       	movw	r22, r24
    19a4:	cd 01       	movw	r24, r26
    19a6:	08 95       	ret

000019a8 <__umulhisi3>:
    19a8:	a2 9f       	mul	r26, r18
    19aa:	b0 01       	movw	r22, r0
    19ac:	b3 9f       	mul	r27, r19
    19ae:	c0 01       	movw	r24, r0
    19b0:	a3 9f       	mul	r26, r19
    19b2:	70 0d       	add	r23, r0
    19b4:	81 1d       	adc	r24, r1
    19b6:	11 24       	eor	r1, r1
    19b8:	91 1d       	adc	r25, r1
    19ba:	b2 9f       	mul	r27, r18
    19bc:	70 0d       	add	r23, r0
    19be:	81 1d       	adc	r24, r1
    19c0:	11 24       	eor	r1, r1
    19c2:	91 1d       	adc	r25, r1
    19c4:	08 95       	ret

000019c6 <printf>:
    19c6:	a0 e0       	ldi	r26, 0x00	; 0
    19c8:	b0 e0       	ldi	r27, 0x00	; 0
    19ca:	e9 ee       	ldi	r30, 0xE9	; 233
    19cc:	fc e0       	ldi	r31, 0x0C	; 12
    19ce:	0c 94 ca 0f 	jmp	0x1f94	; 0x1f94 <__prologue_saves__+0x20>
    19d2:	ae 01       	movw	r20, r28
    19d4:	4b 5f       	subi	r20, 0xFB	; 251
    19d6:	5f 4f       	sbci	r21, 0xFF	; 255
    19d8:	fa 01       	movw	r30, r20
    19da:	61 91       	ld	r22, Z+
    19dc:	71 91       	ld	r23, Z+
    19de:	af 01       	movw	r20, r30
    19e0:	80 91 67 02 	lds	r24, 0x0267	; 0x800267 <__iob+0x2>
    19e4:	90 91 68 02 	lds	r25, 0x0268	; 0x800268 <__iob+0x3>
    19e8:	0e 94 29 0d 	call	0x1a52	; 0x1a52 <vfprintf>
    19ec:	e2 e0       	ldi	r30, 0x02	; 2
    19ee:	0c 94 e6 0f 	jmp	0x1fcc	; 0x1fcc <__epilogue_restores__+0x20>

000019f2 <puts>:
    19f2:	0f 93       	push	r16
    19f4:	1f 93       	push	r17
    19f6:	cf 93       	push	r28
    19f8:	df 93       	push	r29
    19fa:	e0 91 67 02 	lds	r30, 0x0267	; 0x800267 <__iob+0x2>
    19fe:	f0 91 68 02 	lds	r31, 0x0268	; 0x800268 <__iob+0x3>
    1a02:	23 81       	ldd	r18, Z+3	; 0x03
    1a04:	21 ff       	sbrs	r18, 1
    1a06:	1b c0       	rjmp	.+54     	; 0x1a3e <puts+0x4c>
    1a08:	8c 01       	movw	r16, r24
    1a0a:	d0 e0       	ldi	r29, 0x00	; 0
    1a0c:	c0 e0       	ldi	r28, 0x00	; 0
    1a0e:	f8 01       	movw	r30, r16
    1a10:	81 91       	ld	r24, Z+
    1a12:	8f 01       	movw	r16, r30
    1a14:	60 91 67 02 	lds	r22, 0x0267	; 0x800267 <__iob+0x2>
    1a18:	70 91 68 02 	lds	r23, 0x0268	; 0x800268 <__iob+0x3>
    1a1c:	db 01       	movw	r26, r22
    1a1e:	18 96       	adiw	r26, 0x08	; 8
    1a20:	ed 91       	ld	r30, X+
    1a22:	fc 91       	ld	r31, X
    1a24:	19 97       	sbiw	r26, 0x09	; 9
    1a26:	88 23       	and	r24, r24
    1a28:	31 f0       	breq	.+12     	; 0x1a36 <puts+0x44>
    1a2a:	09 95       	icall
    1a2c:	89 2b       	or	r24, r25
    1a2e:	79 f3       	breq	.-34     	; 0x1a0e <puts+0x1c>
    1a30:	df ef       	ldi	r29, 0xFF	; 255
    1a32:	cf ef       	ldi	r28, 0xFF	; 255
    1a34:	ec cf       	rjmp	.-40     	; 0x1a0e <puts+0x1c>
    1a36:	8a e0       	ldi	r24, 0x0A	; 10
    1a38:	09 95       	icall
    1a3a:	89 2b       	or	r24, r25
    1a3c:	19 f0       	breq	.+6      	; 0x1a44 <puts+0x52>
    1a3e:	8f ef       	ldi	r24, 0xFF	; 255
    1a40:	9f ef       	ldi	r25, 0xFF	; 255
    1a42:	02 c0       	rjmp	.+4      	; 0x1a48 <puts+0x56>
    1a44:	8d 2f       	mov	r24, r29
    1a46:	9c 2f       	mov	r25, r28
    1a48:	df 91       	pop	r29
    1a4a:	cf 91       	pop	r28
    1a4c:	1f 91       	pop	r17
    1a4e:	0f 91       	pop	r16
    1a50:	08 95       	ret

00001a52 <vfprintf>:
    1a52:	ab e0       	ldi	r26, 0x0B	; 11
    1a54:	b0 e0       	ldi	r27, 0x00	; 0
    1a56:	ef e2       	ldi	r30, 0x2F	; 47
    1a58:	fd e0       	ldi	r31, 0x0D	; 13
    1a5a:	0c 94 ba 0f 	jmp	0x1f74	; 0x1f74 <__prologue_saves__>
    1a5e:	6c 01       	movw	r12, r24
    1a60:	7b 01       	movw	r14, r22
    1a62:	8a 01       	movw	r16, r20
    1a64:	fc 01       	movw	r30, r24
    1a66:	17 82       	std	Z+7, r1	; 0x07
    1a68:	16 82       	std	Z+6, r1	; 0x06
    1a6a:	83 81       	ldd	r24, Z+3	; 0x03
    1a6c:	81 ff       	sbrs	r24, 1
    1a6e:	cc c1       	rjmp	.+920    	; 0x1e08 <vfprintf+0x3b6>
    1a70:	ce 01       	movw	r24, r28
    1a72:	01 96       	adiw	r24, 0x01	; 1
    1a74:	3c 01       	movw	r6, r24
    1a76:	f6 01       	movw	r30, r12
    1a78:	93 81       	ldd	r25, Z+3	; 0x03
    1a7a:	f7 01       	movw	r30, r14
    1a7c:	93 fd       	sbrc	r25, 3
    1a7e:	85 91       	lpm	r24, Z+
    1a80:	93 ff       	sbrs	r25, 3
    1a82:	81 91       	ld	r24, Z+
    1a84:	7f 01       	movw	r14, r30
    1a86:	88 23       	and	r24, r24
    1a88:	09 f4       	brne	.+2      	; 0x1a8c <vfprintf+0x3a>
    1a8a:	ba c1       	rjmp	.+884    	; 0x1e00 <vfprintf+0x3ae>
    1a8c:	85 32       	cpi	r24, 0x25	; 37
    1a8e:	39 f4       	brne	.+14     	; 0x1a9e <vfprintf+0x4c>
    1a90:	93 fd       	sbrc	r25, 3
    1a92:	85 91       	lpm	r24, Z+
    1a94:	93 ff       	sbrs	r25, 3
    1a96:	81 91       	ld	r24, Z+
    1a98:	7f 01       	movw	r14, r30
    1a9a:	85 32       	cpi	r24, 0x25	; 37
    1a9c:	29 f4       	brne	.+10     	; 0x1aa8 <vfprintf+0x56>
    1a9e:	b6 01       	movw	r22, r12
    1aa0:	90 e0       	ldi	r25, 0x00	; 0
    1aa2:	0e 94 20 0f 	call	0x1e40	; 0x1e40 <fputc>
    1aa6:	e7 cf       	rjmp	.-50     	; 0x1a76 <vfprintf+0x24>
    1aa8:	91 2c       	mov	r9, r1
    1aaa:	21 2c       	mov	r2, r1
    1aac:	31 2c       	mov	r3, r1
    1aae:	ff e1       	ldi	r31, 0x1F	; 31
    1ab0:	f3 15       	cp	r31, r3
    1ab2:	d8 f0       	brcs	.+54     	; 0x1aea <vfprintf+0x98>
    1ab4:	8b 32       	cpi	r24, 0x2B	; 43
    1ab6:	79 f0       	breq	.+30     	; 0x1ad6 <vfprintf+0x84>
    1ab8:	38 f4       	brcc	.+14     	; 0x1ac8 <vfprintf+0x76>
    1aba:	80 32       	cpi	r24, 0x20	; 32
    1abc:	79 f0       	breq	.+30     	; 0x1adc <vfprintf+0x8a>
    1abe:	83 32       	cpi	r24, 0x23	; 35
    1ac0:	a1 f4       	brne	.+40     	; 0x1aea <vfprintf+0x98>
    1ac2:	23 2d       	mov	r18, r3
    1ac4:	20 61       	ori	r18, 0x10	; 16
    1ac6:	1d c0       	rjmp	.+58     	; 0x1b02 <vfprintf+0xb0>
    1ac8:	8d 32       	cpi	r24, 0x2D	; 45
    1aca:	61 f0       	breq	.+24     	; 0x1ae4 <vfprintf+0x92>
    1acc:	80 33       	cpi	r24, 0x30	; 48
    1ace:	69 f4       	brne	.+26     	; 0x1aea <vfprintf+0x98>
    1ad0:	23 2d       	mov	r18, r3
    1ad2:	21 60       	ori	r18, 0x01	; 1
    1ad4:	16 c0       	rjmp	.+44     	; 0x1b02 <vfprintf+0xb0>
    1ad6:	83 2d       	mov	r24, r3
    1ad8:	82 60       	ori	r24, 0x02	; 2
    1ada:	38 2e       	mov	r3, r24
    1adc:	e3 2d       	mov	r30, r3
    1ade:	e4 60       	ori	r30, 0x04	; 4
    1ae0:	3e 2e       	mov	r3, r30
    1ae2:	2a c0       	rjmp	.+84     	; 0x1b38 <vfprintf+0xe6>
    1ae4:	f3 2d       	mov	r31, r3
    1ae6:	f8 60       	ori	r31, 0x08	; 8
    1ae8:	1d c0       	rjmp	.+58     	; 0x1b24 <vfprintf+0xd2>
    1aea:	37 fc       	sbrc	r3, 7
    1aec:	2d c0       	rjmp	.+90     	; 0x1b48 <vfprintf+0xf6>
    1aee:	20 ed       	ldi	r18, 0xD0	; 208
    1af0:	28 0f       	add	r18, r24
    1af2:	2a 30       	cpi	r18, 0x0A	; 10
    1af4:	40 f0       	brcs	.+16     	; 0x1b06 <vfprintf+0xb4>
    1af6:	8e 32       	cpi	r24, 0x2E	; 46
    1af8:	b9 f4       	brne	.+46     	; 0x1b28 <vfprintf+0xd6>
    1afa:	36 fc       	sbrc	r3, 6
    1afc:	81 c1       	rjmp	.+770    	; 0x1e00 <vfprintf+0x3ae>
    1afe:	23 2d       	mov	r18, r3
    1b00:	20 64       	ori	r18, 0x40	; 64
    1b02:	32 2e       	mov	r3, r18
    1b04:	19 c0       	rjmp	.+50     	; 0x1b38 <vfprintf+0xe6>
    1b06:	36 fe       	sbrs	r3, 6
    1b08:	06 c0       	rjmp	.+12     	; 0x1b16 <vfprintf+0xc4>
    1b0a:	8a e0       	ldi	r24, 0x0A	; 10
    1b0c:	98 9e       	mul	r9, r24
    1b0e:	20 0d       	add	r18, r0
    1b10:	11 24       	eor	r1, r1
    1b12:	92 2e       	mov	r9, r18
    1b14:	11 c0       	rjmp	.+34     	; 0x1b38 <vfprintf+0xe6>
    1b16:	ea e0       	ldi	r30, 0x0A	; 10
    1b18:	2e 9e       	mul	r2, r30
    1b1a:	20 0d       	add	r18, r0
    1b1c:	11 24       	eor	r1, r1
    1b1e:	22 2e       	mov	r2, r18
    1b20:	f3 2d       	mov	r31, r3
    1b22:	f0 62       	ori	r31, 0x20	; 32
    1b24:	3f 2e       	mov	r3, r31
    1b26:	08 c0       	rjmp	.+16     	; 0x1b38 <vfprintf+0xe6>
    1b28:	8c 36       	cpi	r24, 0x6C	; 108
    1b2a:	21 f4       	brne	.+8      	; 0x1b34 <vfprintf+0xe2>
    1b2c:	83 2d       	mov	r24, r3
    1b2e:	80 68       	ori	r24, 0x80	; 128
    1b30:	38 2e       	mov	r3, r24
    1b32:	02 c0       	rjmp	.+4      	; 0x1b38 <vfprintf+0xe6>
    1b34:	88 36       	cpi	r24, 0x68	; 104
    1b36:	41 f4       	brne	.+16     	; 0x1b48 <vfprintf+0xf6>
    1b38:	f7 01       	movw	r30, r14
    1b3a:	93 fd       	sbrc	r25, 3
    1b3c:	85 91       	lpm	r24, Z+
    1b3e:	93 ff       	sbrs	r25, 3
    1b40:	81 91       	ld	r24, Z+
    1b42:	7f 01       	movw	r14, r30
    1b44:	81 11       	cpse	r24, r1
    1b46:	b3 cf       	rjmp	.-154    	; 0x1aae <vfprintf+0x5c>
    1b48:	98 2f       	mov	r25, r24
    1b4a:	9f 7d       	andi	r25, 0xDF	; 223
    1b4c:	95 54       	subi	r25, 0x45	; 69
    1b4e:	93 30       	cpi	r25, 0x03	; 3
    1b50:	28 f4       	brcc	.+10     	; 0x1b5c <vfprintf+0x10a>
    1b52:	0c 5f       	subi	r16, 0xFC	; 252
    1b54:	1f 4f       	sbci	r17, 0xFF	; 255
    1b56:	9f e3       	ldi	r25, 0x3F	; 63
    1b58:	99 83       	std	Y+1, r25	; 0x01
    1b5a:	0d c0       	rjmp	.+26     	; 0x1b76 <vfprintf+0x124>
    1b5c:	83 36       	cpi	r24, 0x63	; 99
    1b5e:	31 f0       	breq	.+12     	; 0x1b6c <vfprintf+0x11a>
    1b60:	83 37       	cpi	r24, 0x73	; 115
    1b62:	71 f0       	breq	.+28     	; 0x1b80 <vfprintf+0x12e>
    1b64:	83 35       	cpi	r24, 0x53	; 83
    1b66:	09 f0       	breq	.+2      	; 0x1b6a <vfprintf+0x118>
    1b68:	59 c0       	rjmp	.+178    	; 0x1c1c <vfprintf+0x1ca>
    1b6a:	21 c0       	rjmp	.+66     	; 0x1bae <vfprintf+0x15c>
    1b6c:	f8 01       	movw	r30, r16
    1b6e:	80 81       	ld	r24, Z
    1b70:	89 83       	std	Y+1, r24	; 0x01
    1b72:	0e 5f       	subi	r16, 0xFE	; 254
    1b74:	1f 4f       	sbci	r17, 0xFF	; 255
    1b76:	88 24       	eor	r8, r8
    1b78:	83 94       	inc	r8
    1b7a:	91 2c       	mov	r9, r1
    1b7c:	53 01       	movw	r10, r6
    1b7e:	13 c0       	rjmp	.+38     	; 0x1ba6 <vfprintf+0x154>
    1b80:	28 01       	movw	r4, r16
    1b82:	f2 e0       	ldi	r31, 0x02	; 2
    1b84:	4f 0e       	add	r4, r31
    1b86:	51 1c       	adc	r5, r1
    1b88:	f8 01       	movw	r30, r16
    1b8a:	a0 80       	ld	r10, Z
    1b8c:	b1 80       	ldd	r11, Z+1	; 0x01
    1b8e:	36 fe       	sbrs	r3, 6
    1b90:	03 c0       	rjmp	.+6      	; 0x1b98 <vfprintf+0x146>
    1b92:	69 2d       	mov	r22, r9
    1b94:	70 e0       	ldi	r23, 0x00	; 0
    1b96:	02 c0       	rjmp	.+4      	; 0x1b9c <vfprintf+0x14a>
    1b98:	6f ef       	ldi	r22, 0xFF	; 255
    1b9a:	7f ef       	ldi	r23, 0xFF	; 255
    1b9c:	c5 01       	movw	r24, r10
    1b9e:	0e 94 15 0f 	call	0x1e2a	; 0x1e2a <strnlen>
    1ba2:	4c 01       	movw	r8, r24
    1ba4:	82 01       	movw	r16, r4
    1ba6:	f3 2d       	mov	r31, r3
    1ba8:	ff 77       	andi	r31, 0x7F	; 127
    1baa:	3f 2e       	mov	r3, r31
    1bac:	16 c0       	rjmp	.+44     	; 0x1bda <vfprintf+0x188>
    1bae:	28 01       	movw	r4, r16
    1bb0:	22 e0       	ldi	r18, 0x02	; 2
    1bb2:	42 0e       	add	r4, r18
    1bb4:	51 1c       	adc	r5, r1
    1bb6:	f8 01       	movw	r30, r16
    1bb8:	a0 80       	ld	r10, Z
    1bba:	b1 80       	ldd	r11, Z+1	; 0x01
    1bbc:	36 fe       	sbrs	r3, 6
    1bbe:	03 c0       	rjmp	.+6      	; 0x1bc6 <vfprintf+0x174>
    1bc0:	69 2d       	mov	r22, r9
    1bc2:	70 e0       	ldi	r23, 0x00	; 0
    1bc4:	02 c0       	rjmp	.+4      	; 0x1bca <vfprintf+0x178>
    1bc6:	6f ef       	ldi	r22, 0xFF	; 255
    1bc8:	7f ef       	ldi	r23, 0xFF	; 255
    1bca:	c5 01       	movw	r24, r10
    1bcc:	0e 94 0a 0f 	call	0x1e14	; 0x1e14 <strnlen_P>
    1bd0:	4c 01       	movw	r8, r24
    1bd2:	f3 2d       	mov	r31, r3
    1bd4:	f0 68       	ori	r31, 0x80	; 128
    1bd6:	3f 2e       	mov	r3, r31
    1bd8:	82 01       	movw	r16, r4
    1bda:	33 fc       	sbrc	r3, 3
    1bdc:	1b c0       	rjmp	.+54     	; 0x1c14 <vfprintf+0x1c2>
    1bde:	82 2d       	mov	r24, r2
    1be0:	90 e0       	ldi	r25, 0x00	; 0
    1be2:	88 16       	cp	r8, r24
    1be4:	99 06       	cpc	r9, r25
    1be6:	b0 f4       	brcc	.+44     	; 0x1c14 <vfprintf+0x1c2>
    1be8:	b6 01       	movw	r22, r12
    1bea:	80 e2       	ldi	r24, 0x20	; 32
    1bec:	90 e0       	ldi	r25, 0x00	; 0
    1bee:	0e 94 20 0f 	call	0x1e40	; 0x1e40 <fputc>
    1bf2:	2a 94       	dec	r2
    1bf4:	f4 cf       	rjmp	.-24     	; 0x1bde <vfprintf+0x18c>
    1bf6:	f5 01       	movw	r30, r10
    1bf8:	37 fc       	sbrc	r3, 7
    1bfa:	85 91       	lpm	r24, Z+
    1bfc:	37 fe       	sbrs	r3, 7
    1bfe:	81 91       	ld	r24, Z+
    1c00:	5f 01       	movw	r10, r30
    1c02:	b6 01       	movw	r22, r12
    1c04:	90 e0       	ldi	r25, 0x00	; 0
    1c06:	0e 94 20 0f 	call	0x1e40	; 0x1e40 <fputc>
    1c0a:	21 10       	cpse	r2, r1
    1c0c:	2a 94       	dec	r2
    1c0e:	21 e0       	ldi	r18, 0x01	; 1
    1c10:	82 1a       	sub	r8, r18
    1c12:	91 08       	sbc	r9, r1
    1c14:	81 14       	cp	r8, r1
    1c16:	91 04       	cpc	r9, r1
    1c18:	71 f7       	brne	.-36     	; 0x1bf6 <vfprintf+0x1a4>
    1c1a:	e8 c0       	rjmp	.+464    	; 0x1dec <vfprintf+0x39a>
    1c1c:	84 36       	cpi	r24, 0x64	; 100
    1c1e:	11 f0       	breq	.+4      	; 0x1c24 <vfprintf+0x1d2>
    1c20:	89 36       	cpi	r24, 0x69	; 105
    1c22:	41 f5       	brne	.+80     	; 0x1c74 <vfprintf+0x222>
    1c24:	f8 01       	movw	r30, r16
    1c26:	37 fe       	sbrs	r3, 7
    1c28:	07 c0       	rjmp	.+14     	; 0x1c38 <vfprintf+0x1e6>
    1c2a:	60 81       	ld	r22, Z
    1c2c:	71 81       	ldd	r23, Z+1	; 0x01
    1c2e:	82 81       	ldd	r24, Z+2	; 0x02
    1c30:	93 81       	ldd	r25, Z+3	; 0x03
    1c32:	0c 5f       	subi	r16, 0xFC	; 252
    1c34:	1f 4f       	sbci	r17, 0xFF	; 255
    1c36:	08 c0       	rjmp	.+16     	; 0x1c48 <vfprintf+0x1f6>
    1c38:	60 81       	ld	r22, Z
    1c3a:	71 81       	ldd	r23, Z+1	; 0x01
    1c3c:	07 2e       	mov	r0, r23
    1c3e:	00 0c       	add	r0, r0
    1c40:	88 0b       	sbc	r24, r24
    1c42:	99 0b       	sbc	r25, r25
    1c44:	0e 5f       	subi	r16, 0xFE	; 254
    1c46:	1f 4f       	sbci	r17, 0xFF	; 255
    1c48:	f3 2d       	mov	r31, r3
    1c4a:	ff 76       	andi	r31, 0x6F	; 111
    1c4c:	3f 2e       	mov	r3, r31
    1c4e:	97 ff       	sbrs	r25, 7
    1c50:	09 c0       	rjmp	.+18     	; 0x1c64 <vfprintf+0x212>
    1c52:	90 95       	com	r25
    1c54:	80 95       	com	r24
    1c56:	70 95       	com	r23
    1c58:	61 95       	neg	r22
    1c5a:	7f 4f       	sbci	r23, 0xFF	; 255
    1c5c:	8f 4f       	sbci	r24, 0xFF	; 255
    1c5e:	9f 4f       	sbci	r25, 0xFF	; 255
    1c60:	f0 68       	ori	r31, 0x80	; 128
    1c62:	3f 2e       	mov	r3, r31
    1c64:	2a e0       	ldi	r18, 0x0A	; 10
    1c66:	30 e0       	ldi	r19, 0x00	; 0
    1c68:	a3 01       	movw	r20, r6
    1c6a:	0e 94 5c 0f 	call	0x1eb8	; 0x1eb8 <__ultoa_invert>
    1c6e:	88 2e       	mov	r8, r24
    1c70:	86 18       	sub	r8, r6
    1c72:	45 c0       	rjmp	.+138    	; 0x1cfe <vfprintf+0x2ac>
    1c74:	85 37       	cpi	r24, 0x75	; 117
    1c76:	31 f4       	brne	.+12     	; 0x1c84 <vfprintf+0x232>
    1c78:	23 2d       	mov	r18, r3
    1c7a:	2f 7e       	andi	r18, 0xEF	; 239
    1c7c:	b2 2e       	mov	r11, r18
    1c7e:	2a e0       	ldi	r18, 0x0A	; 10
    1c80:	30 e0       	ldi	r19, 0x00	; 0
    1c82:	25 c0       	rjmp	.+74     	; 0x1cce <vfprintf+0x27c>
    1c84:	93 2d       	mov	r25, r3
    1c86:	99 7f       	andi	r25, 0xF9	; 249
    1c88:	b9 2e       	mov	r11, r25
    1c8a:	8f 36       	cpi	r24, 0x6F	; 111
    1c8c:	c1 f0       	breq	.+48     	; 0x1cbe <vfprintf+0x26c>
    1c8e:	18 f4       	brcc	.+6      	; 0x1c96 <vfprintf+0x244>
    1c90:	88 35       	cpi	r24, 0x58	; 88
    1c92:	79 f0       	breq	.+30     	; 0x1cb2 <vfprintf+0x260>
    1c94:	b5 c0       	rjmp	.+362    	; 0x1e00 <vfprintf+0x3ae>
    1c96:	80 37       	cpi	r24, 0x70	; 112
    1c98:	19 f0       	breq	.+6      	; 0x1ca0 <vfprintf+0x24e>
    1c9a:	88 37       	cpi	r24, 0x78	; 120
    1c9c:	21 f0       	breq	.+8      	; 0x1ca6 <vfprintf+0x254>
    1c9e:	b0 c0       	rjmp	.+352    	; 0x1e00 <vfprintf+0x3ae>
    1ca0:	e9 2f       	mov	r30, r25
    1ca2:	e0 61       	ori	r30, 0x10	; 16
    1ca4:	be 2e       	mov	r11, r30
    1ca6:	b4 fe       	sbrs	r11, 4
    1ca8:	0d c0       	rjmp	.+26     	; 0x1cc4 <vfprintf+0x272>
    1caa:	fb 2d       	mov	r31, r11
    1cac:	f4 60       	ori	r31, 0x04	; 4
    1cae:	bf 2e       	mov	r11, r31
    1cb0:	09 c0       	rjmp	.+18     	; 0x1cc4 <vfprintf+0x272>
    1cb2:	34 fe       	sbrs	r3, 4
    1cb4:	0a c0       	rjmp	.+20     	; 0x1cca <vfprintf+0x278>
    1cb6:	29 2f       	mov	r18, r25
    1cb8:	26 60       	ori	r18, 0x06	; 6
    1cba:	b2 2e       	mov	r11, r18
    1cbc:	06 c0       	rjmp	.+12     	; 0x1cca <vfprintf+0x278>
    1cbe:	28 e0       	ldi	r18, 0x08	; 8
    1cc0:	30 e0       	ldi	r19, 0x00	; 0
    1cc2:	05 c0       	rjmp	.+10     	; 0x1cce <vfprintf+0x27c>
    1cc4:	20 e1       	ldi	r18, 0x10	; 16
    1cc6:	30 e0       	ldi	r19, 0x00	; 0
    1cc8:	02 c0       	rjmp	.+4      	; 0x1cce <vfprintf+0x27c>
    1cca:	20 e1       	ldi	r18, 0x10	; 16
    1ccc:	32 e0       	ldi	r19, 0x02	; 2
    1cce:	f8 01       	movw	r30, r16
    1cd0:	b7 fe       	sbrs	r11, 7
    1cd2:	07 c0       	rjmp	.+14     	; 0x1ce2 <vfprintf+0x290>
    1cd4:	60 81       	ld	r22, Z
    1cd6:	71 81       	ldd	r23, Z+1	; 0x01
    1cd8:	82 81       	ldd	r24, Z+2	; 0x02
    1cda:	93 81       	ldd	r25, Z+3	; 0x03
    1cdc:	0c 5f       	subi	r16, 0xFC	; 252
    1cde:	1f 4f       	sbci	r17, 0xFF	; 255
    1ce0:	06 c0       	rjmp	.+12     	; 0x1cee <vfprintf+0x29c>
    1ce2:	60 81       	ld	r22, Z
    1ce4:	71 81       	ldd	r23, Z+1	; 0x01
    1ce6:	80 e0       	ldi	r24, 0x00	; 0
    1ce8:	90 e0       	ldi	r25, 0x00	; 0
    1cea:	0e 5f       	subi	r16, 0xFE	; 254
    1cec:	1f 4f       	sbci	r17, 0xFF	; 255
    1cee:	a3 01       	movw	r20, r6
    1cf0:	0e 94 5c 0f 	call	0x1eb8	; 0x1eb8 <__ultoa_invert>
    1cf4:	88 2e       	mov	r8, r24
    1cf6:	86 18       	sub	r8, r6
    1cf8:	fb 2d       	mov	r31, r11
    1cfa:	ff 77       	andi	r31, 0x7F	; 127
    1cfc:	3f 2e       	mov	r3, r31
    1cfe:	36 fe       	sbrs	r3, 6
    1d00:	0d c0       	rjmp	.+26     	; 0x1d1c <vfprintf+0x2ca>
    1d02:	23 2d       	mov	r18, r3
    1d04:	2e 7f       	andi	r18, 0xFE	; 254
    1d06:	a2 2e       	mov	r10, r18
    1d08:	89 14       	cp	r8, r9
    1d0a:	58 f4       	brcc	.+22     	; 0x1d22 <vfprintf+0x2d0>
    1d0c:	34 fe       	sbrs	r3, 4
    1d0e:	0b c0       	rjmp	.+22     	; 0x1d26 <vfprintf+0x2d4>
    1d10:	32 fc       	sbrc	r3, 2
    1d12:	09 c0       	rjmp	.+18     	; 0x1d26 <vfprintf+0x2d4>
    1d14:	83 2d       	mov	r24, r3
    1d16:	8e 7e       	andi	r24, 0xEE	; 238
    1d18:	a8 2e       	mov	r10, r24
    1d1a:	05 c0       	rjmp	.+10     	; 0x1d26 <vfprintf+0x2d4>
    1d1c:	b8 2c       	mov	r11, r8
    1d1e:	a3 2c       	mov	r10, r3
    1d20:	03 c0       	rjmp	.+6      	; 0x1d28 <vfprintf+0x2d6>
    1d22:	b8 2c       	mov	r11, r8
    1d24:	01 c0       	rjmp	.+2      	; 0x1d28 <vfprintf+0x2d6>
    1d26:	b9 2c       	mov	r11, r9
    1d28:	a4 fe       	sbrs	r10, 4
    1d2a:	0f c0       	rjmp	.+30     	; 0x1d4a <vfprintf+0x2f8>
    1d2c:	fe 01       	movw	r30, r28
    1d2e:	e8 0d       	add	r30, r8
    1d30:	f1 1d       	adc	r31, r1
    1d32:	80 81       	ld	r24, Z
    1d34:	80 33       	cpi	r24, 0x30	; 48
    1d36:	21 f4       	brne	.+8      	; 0x1d40 <vfprintf+0x2ee>
    1d38:	9a 2d       	mov	r25, r10
    1d3a:	99 7e       	andi	r25, 0xE9	; 233
    1d3c:	a9 2e       	mov	r10, r25
    1d3e:	09 c0       	rjmp	.+18     	; 0x1d52 <vfprintf+0x300>
    1d40:	a2 fe       	sbrs	r10, 2
    1d42:	06 c0       	rjmp	.+12     	; 0x1d50 <vfprintf+0x2fe>
    1d44:	b3 94       	inc	r11
    1d46:	b3 94       	inc	r11
    1d48:	04 c0       	rjmp	.+8      	; 0x1d52 <vfprintf+0x300>
    1d4a:	8a 2d       	mov	r24, r10
    1d4c:	86 78       	andi	r24, 0x86	; 134
    1d4e:	09 f0       	breq	.+2      	; 0x1d52 <vfprintf+0x300>
    1d50:	b3 94       	inc	r11
    1d52:	a3 fc       	sbrc	r10, 3
    1d54:	11 c0       	rjmp	.+34     	; 0x1d78 <vfprintf+0x326>
    1d56:	a0 fe       	sbrs	r10, 0
    1d58:	06 c0       	rjmp	.+12     	; 0x1d66 <vfprintf+0x314>
    1d5a:	b2 14       	cp	r11, r2
    1d5c:	88 f4       	brcc	.+34     	; 0x1d80 <vfprintf+0x32e>
    1d5e:	28 0c       	add	r2, r8
    1d60:	92 2c       	mov	r9, r2
    1d62:	9b 18       	sub	r9, r11
    1d64:	0e c0       	rjmp	.+28     	; 0x1d82 <vfprintf+0x330>
    1d66:	b2 14       	cp	r11, r2
    1d68:	60 f4       	brcc	.+24     	; 0x1d82 <vfprintf+0x330>
    1d6a:	b6 01       	movw	r22, r12
    1d6c:	80 e2       	ldi	r24, 0x20	; 32
    1d6e:	90 e0       	ldi	r25, 0x00	; 0
    1d70:	0e 94 20 0f 	call	0x1e40	; 0x1e40 <fputc>
    1d74:	b3 94       	inc	r11
    1d76:	f7 cf       	rjmp	.-18     	; 0x1d66 <vfprintf+0x314>
    1d78:	b2 14       	cp	r11, r2
    1d7a:	18 f4       	brcc	.+6      	; 0x1d82 <vfprintf+0x330>
    1d7c:	2b 18       	sub	r2, r11
    1d7e:	02 c0       	rjmp	.+4      	; 0x1d84 <vfprintf+0x332>
    1d80:	98 2c       	mov	r9, r8
    1d82:	21 2c       	mov	r2, r1
    1d84:	a4 fe       	sbrs	r10, 4
    1d86:	10 c0       	rjmp	.+32     	; 0x1da8 <vfprintf+0x356>
    1d88:	b6 01       	movw	r22, r12
    1d8a:	80 e3       	ldi	r24, 0x30	; 48
    1d8c:	90 e0       	ldi	r25, 0x00	; 0
    1d8e:	0e 94 20 0f 	call	0x1e40	; 0x1e40 <fputc>
    1d92:	a2 fe       	sbrs	r10, 2
    1d94:	17 c0       	rjmp	.+46     	; 0x1dc4 <vfprintf+0x372>
    1d96:	a1 fc       	sbrc	r10, 1
    1d98:	03 c0       	rjmp	.+6      	; 0x1da0 <vfprintf+0x34e>
    1d9a:	88 e7       	ldi	r24, 0x78	; 120
    1d9c:	90 e0       	ldi	r25, 0x00	; 0
    1d9e:	02 c0       	rjmp	.+4      	; 0x1da4 <vfprintf+0x352>
    1da0:	88 e5       	ldi	r24, 0x58	; 88
    1da2:	90 e0       	ldi	r25, 0x00	; 0
    1da4:	b6 01       	movw	r22, r12
    1da6:	0c c0       	rjmp	.+24     	; 0x1dc0 <vfprintf+0x36e>
    1da8:	8a 2d       	mov	r24, r10
    1daa:	86 78       	andi	r24, 0x86	; 134
    1dac:	59 f0       	breq	.+22     	; 0x1dc4 <vfprintf+0x372>
    1dae:	a1 fe       	sbrs	r10, 1
    1db0:	02 c0       	rjmp	.+4      	; 0x1db6 <vfprintf+0x364>
    1db2:	8b e2       	ldi	r24, 0x2B	; 43
    1db4:	01 c0       	rjmp	.+2      	; 0x1db8 <vfprintf+0x366>
    1db6:	80 e2       	ldi	r24, 0x20	; 32
    1db8:	a7 fc       	sbrc	r10, 7
    1dba:	8d e2       	ldi	r24, 0x2D	; 45
    1dbc:	b6 01       	movw	r22, r12
    1dbe:	90 e0       	ldi	r25, 0x00	; 0
    1dc0:	0e 94 20 0f 	call	0x1e40	; 0x1e40 <fputc>
    1dc4:	89 14       	cp	r8, r9
    1dc6:	38 f4       	brcc	.+14     	; 0x1dd6 <vfprintf+0x384>
    1dc8:	b6 01       	movw	r22, r12
    1dca:	80 e3       	ldi	r24, 0x30	; 48
    1dcc:	90 e0       	ldi	r25, 0x00	; 0
    1dce:	0e 94 20 0f 	call	0x1e40	; 0x1e40 <fputc>
    1dd2:	9a 94       	dec	r9
    1dd4:	f7 cf       	rjmp	.-18     	; 0x1dc4 <vfprintf+0x372>
    1dd6:	8a 94       	dec	r8
    1dd8:	f3 01       	movw	r30, r6
    1dda:	e8 0d       	add	r30, r8
    1ddc:	f1 1d       	adc	r31, r1
    1dde:	80 81       	ld	r24, Z
    1de0:	b6 01       	movw	r22, r12
    1de2:	90 e0       	ldi	r25, 0x00	; 0
    1de4:	0e 94 20 0f 	call	0x1e40	; 0x1e40 <fputc>
    1de8:	81 10       	cpse	r8, r1
    1dea:	f5 cf       	rjmp	.-22     	; 0x1dd6 <vfprintf+0x384>
    1dec:	22 20       	and	r2, r2
    1dee:	09 f4       	brne	.+2      	; 0x1df2 <vfprintf+0x3a0>
    1df0:	42 ce       	rjmp	.-892    	; 0x1a76 <vfprintf+0x24>
    1df2:	b6 01       	movw	r22, r12
    1df4:	80 e2       	ldi	r24, 0x20	; 32
    1df6:	90 e0       	ldi	r25, 0x00	; 0
    1df8:	0e 94 20 0f 	call	0x1e40	; 0x1e40 <fputc>
    1dfc:	2a 94       	dec	r2
    1dfe:	f6 cf       	rjmp	.-20     	; 0x1dec <vfprintf+0x39a>
    1e00:	f6 01       	movw	r30, r12
    1e02:	86 81       	ldd	r24, Z+6	; 0x06
    1e04:	97 81       	ldd	r25, Z+7	; 0x07
    1e06:	02 c0       	rjmp	.+4      	; 0x1e0c <vfprintf+0x3ba>
    1e08:	8f ef       	ldi	r24, 0xFF	; 255
    1e0a:	9f ef       	ldi	r25, 0xFF	; 255
    1e0c:	2b 96       	adiw	r28, 0x0b	; 11
    1e0e:	e2 e1       	ldi	r30, 0x12	; 18
    1e10:	0c 94 d6 0f 	jmp	0x1fac	; 0x1fac <__epilogue_restores__>

00001e14 <strnlen_P>:
    1e14:	fc 01       	movw	r30, r24
    1e16:	05 90       	lpm	r0, Z+
    1e18:	61 50       	subi	r22, 0x01	; 1
    1e1a:	70 40       	sbci	r23, 0x00	; 0
    1e1c:	01 10       	cpse	r0, r1
    1e1e:	d8 f7       	brcc	.-10     	; 0x1e16 <strnlen_P+0x2>
    1e20:	80 95       	com	r24
    1e22:	90 95       	com	r25
    1e24:	8e 0f       	add	r24, r30
    1e26:	9f 1f       	adc	r25, r31
    1e28:	08 95       	ret

00001e2a <strnlen>:
    1e2a:	fc 01       	movw	r30, r24
    1e2c:	61 50       	subi	r22, 0x01	; 1
    1e2e:	70 40       	sbci	r23, 0x00	; 0
    1e30:	01 90       	ld	r0, Z+
    1e32:	01 10       	cpse	r0, r1
    1e34:	d8 f7       	brcc	.-10     	; 0x1e2c <strnlen+0x2>
    1e36:	80 95       	com	r24
    1e38:	90 95       	com	r25
    1e3a:	8e 0f       	add	r24, r30
    1e3c:	9f 1f       	adc	r25, r31
    1e3e:	08 95       	ret

00001e40 <fputc>:
    1e40:	0f 93       	push	r16
    1e42:	1f 93       	push	r17
    1e44:	cf 93       	push	r28
    1e46:	df 93       	push	r29
    1e48:	fb 01       	movw	r30, r22
    1e4a:	23 81       	ldd	r18, Z+3	; 0x03
    1e4c:	21 fd       	sbrc	r18, 1
    1e4e:	03 c0       	rjmp	.+6      	; 0x1e56 <fputc+0x16>
    1e50:	8f ef       	ldi	r24, 0xFF	; 255
    1e52:	9f ef       	ldi	r25, 0xFF	; 255
    1e54:	2c c0       	rjmp	.+88     	; 0x1eae <fputc+0x6e>
    1e56:	22 ff       	sbrs	r18, 2
    1e58:	16 c0       	rjmp	.+44     	; 0x1e86 <fputc+0x46>
    1e5a:	46 81       	ldd	r20, Z+6	; 0x06
    1e5c:	57 81       	ldd	r21, Z+7	; 0x07
    1e5e:	24 81       	ldd	r18, Z+4	; 0x04
    1e60:	35 81       	ldd	r19, Z+5	; 0x05
    1e62:	42 17       	cp	r20, r18
    1e64:	53 07       	cpc	r21, r19
    1e66:	44 f4       	brge	.+16     	; 0x1e78 <fputc+0x38>
    1e68:	a0 81       	ld	r26, Z
    1e6a:	b1 81       	ldd	r27, Z+1	; 0x01
    1e6c:	9d 01       	movw	r18, r26
    1e6e:	2f 5f       	subi	r18, 0xFF	; 255
    1e70:	3f 4f       	sbci	r19, 0xFF	; 255
    1e72:	31 83       	std	Z+1, r19	; 0x01
    1e74:	20 83       	st	Z, r18
    1e76:	8c 93       	st	X, r24
    1e78:	26 81       	ldd	r18, Z+6	; 0x06
    1e7a:	37 81       	ldd	r19, Z+7	; 0x07
    1e7c:	2f 5f       	subi	r18, 0xFF	; 255
    1e7e:	3f 4f       	sbci	r19, 0xFF	; 255
    1e80:	37 83       	std	Z+7, r19	; 0x07
    1e82:	26 83       	std	Z+6, r18	; 0x06
    1e84:	14 c0       	rjmp	.+40     	; 0x1eae <fputc+0x6e>
    1e86:	8b 01       	movw	r16, r22
    1e88:	ec 01       	movw	r28, r24
    1e8a:	fb 01       	movw	r30, r22
    1e8c:	00 84       	ldd	r0, Z+8	; 0x08
    1e8e:	f1 85       	ldd	r31, Z+9	; 0x09
    1e90:	e0 2d       	mov	r30, r0
    1e92:	09 95       	icall
    1e94:	89 2b       	or	r24, r25
    1e96:	e1 f6       	brne	.-72     	; 0x1e50 <fputc+0x10>
    1e98:	d8 01       	movw	r26, r16
    1e9a:	16 96       	adiw	r26, 0x06	; 6
    1e9c:	8d 91       	ld	r24, X+
    1e9e:	9c 91       	ld	r25, X
    1ea0:	17 97       	sbiw	r26, 0x07	; 7
    1ea2:	01 96       	adiw	r24, 0x01	; 1
    1ea4:	17 96       	adiw	r26, 0x07	; 7
    1ea6:	9c 93       	st	X, r25
    1ea8:	8e 93       	st	-X, r24
    1eaa:	16 97       	sbiw	r26, 0x06	; 6
    1eac:	ce 01       	movw	r24, r28
    1eae:	df 91       	pop	r29
    1eb0:	cf 91       	pop	r28
    1eb2:	1f 91       	pop	r17
    1eb4:	0f 91       	pop	r16
    1eb6:	08 95       	ret

00001eb8 <__ultoa_invert>:
    1eb8:	fa 01       	movw	r30, r20
    1eba:	aa 27       	eor	r26, r26
    1ebc:	28 30       	cpi	r18, 0x08	; 8
    1ebe:	51 f1       	breq	.+84     	; 0x1f14 <__ultoa_invert+0x5c>
    1ec0:	20 31       	cpi	r18, 0x10	; 16
    1ec2:	81 f1       	breq	.+96     	; 0x1f24 <__ultoa_invert+0x6c>
    1ec4:	e8 94       	clt
    1ec6:	6f 93       	push	r22
    1ec8:	6e 7f       	andi	r22, 0xFE	; 254
    1eca:	6e 5f       	subi	r22, 0xFE	; 254
    1ecc:	7f 4f       	sbci	r23, 0xFF	; 255
    1ece:	8f 4f       	sbci	r24, 0xFF	; 255
    1ed0:	9f 4f       	sbci	r25, 0xFF	; 255
    1ed2:	af 4f       	sbci	r26, 0xFF	; 255
    1ed4:	b1 e0       	ldi	r27, 0x01	; 1
    1ed6:	3e d0       	rcall	.+124    	; 0x1f54 <__ultoa_invert+0x9c>
    1ed8:	b4 e0       	ldi	r27, 0x04	; 4
    1eda:	3c d0       	rcall	.+120    	; 0x1f54 <__ultoa_invert+0x9c>
    1edc:	67 0f       	add	r22, r23
    1ede:	78 1f       	adc	r23, r24
    1ee0:	89 1f       	adc	r24, r25
    1ee2:	9a 1f       	adc	r25, r26
    1ee4:	a1 1d       	adc	r26, r1
    1ee6:	68 0f       	add	r22, r24
    1ee8:	79 1f       	adc	r23, r25
    1eea:	8a 1f       	adc	r24, r26
    1eec:	91 1d       	adc	r25, r1
    1eee:	a1 1d       	adc	r26, r1
    1ef0:	6a 0f       	add	r22, r26
    1ef2:	71 1d       	adc	r23, r1
    1ef4:	81 1d       	adc	r24, r1
    1ef6:	91 1d       	adc	r25, r1
    1ef8:	a1 1d       	adc	r26, r1
    1efa:	20 d0       	rcall	.+64     	; 0x1f3c <__ultoa_invert+0x84>
    1efc:	09 f4       	brne	.+2      	; 0x1f00 <__ultoa_invert+0x48>
    1efe:	68 94       	set
    1f00:	3f 91       	pop	r19
    1f02:	2a e0       	ldi	r18, 0x0A	; 10
    1f04:	26 9f       	mul	r18, r22
    1f06:	11 24       	eor	r1, r1
    1f08:	30 19       	sub	r19, r0
    1f0a:	30 5d       	subi	r19, 0xD0	; 208
    1f0c:	31 93       	st	Z+, r19
    1f0e:	de f6       	brtc	.-74     	; 0x1ec6 <__ultoa_invert+0xe>
    1f10:	cf 01       	movw	r24, r30
    1f12:	08 95       	ret
    1f14:	46 2f       	mov	r20, r22
    1f16:	47 70       	andi	r20, 0x07	; 7
    1f18:	40 5d       	subi	r20, 0xD0	; 208
    1f1a:	41 93       	st	Z+, r20
    1f1c:	b3 e0       	ldi	r27, 0x03	; 3
    1f1e:	0f d0       	rcall	.+30     	; 0x1f3e <__ultoa_invert+0x86>
    1f20:	c9 f7       	brne	.-14     	; 0x1f14 <__ultoa_invert+0x5c>
    1f22:	f6 cf       	rjmp	.-20     	; 0x1f10 <__ultoa_invert+0x58>
    1f24:	46 2f       	mov	r20, r22
    1f26:	4f 70       	andi	r20, 0x0F	; 15
    1f28:	40 5d       	subi	r20, 0xD0	; 208
    1f2a:	4a 33       	cpi	r20, 0x3A	; 58
    1f2c:	18 f0       	brcs	.+6      	; 0x1f34 <__ultoa_invert+0x7c>
    1f2e:	49 5d       	subi	r20, 0xD9	; 217
    1f30:	31 fd       	sbrc	r19, 1
    1f32:	40 52       	subi	r20, 0x20	; 32
    1f34:	41 93       	st	Z+, r20
    1f36:	02 d0       	rcall	.+4      	; 0x1f3c <__ultoa_invert+0x84>
    1f38:	a9 f7       	brne	.-22     	; 0x1f24 <__ultoa_invert+0x6c>
    1f3a:	ea cf       	rjmp	.-44     	; 0x1f10 <__ultoa_invert+0x58>
    1f3c:	b4 e0       	ldi	r27, 0x04	; 4
    1f3e:	a6 95       	lsr	r26
    1f40:	97 95       	ror	r25
    1f42:	87 95       	ror	r24
    1f44:	77 95       	ror	r23
    1f46:	67 95       	ror	r22
    1f48:	ba 95       	dec	r27
    1f4a:	c9 f7       	brne	.-14     	; 0x1f3e <__ultoa_invert+0x86>
    1f4c:	00 97       	sbiw	r24, 0x00	; 0
    1f4e:	61 05       	cpc	r22, r1
    1f50:	71 05       	cpc	r23, r1
    1f52:	08 95       	ret
    1f54:	9b 01       	movw	r18, r22
    1f56:	ac 01       	movw	r20, r24
    1f58:	0a 2e       	mov	r0, r26
    1f5a:	06 94       	lsr	r0
    1f5c:	57 95       	ror	r21
    1f5e:	47 95       	ror	r20
    1f60:	37 95       	ror	r19
    1f62:	27 95       	ror	r18
    1f64:	ba 95       	dec	r27
    1f66:	c9 f7       	brne	.-14     	; 0x1f5a <__ultoa_invert+0xa2>
    1f68:	62 0f       	add	r22, r18
    1f6a:	73 1f       	adc	r23, r19
    1f6c:	84 1f       	adc	r24, r20
    1f6e:	95 1f       	adc	r25, r21
    1f70:	a0 1d       	adc	r26, r0
    1f72:	08 95       	ret

00001f74 <__prologue_saves__>:
    1f74:	2f 92       	push	r2
    1f76:	3f 92       	push	r3
    1f78:	4f 92       	push	r4
    1f7a:	5f 92       	push	r5
    1f7c:	6f 92       	push	r6
    1f7e:	7f 92       	push	r7
    1f80:	8f 92       	push	r8
    1f82:	9f 92       	push	r9
    1f84:	af 92       	push	r10
    1f86:	bf 92       	push	r11
    1f88:	cf 92       	push	r12
    1f8a:	df 92       	push	r13
    1f8c:	ef 92       	push	r14
    1f8e:	ff 92       	push	r15
    1f90:	0f 93       	push	r16
    1f92:	1f 93       	push	r17
    1f94:	cf 93       	push	r28
    1f96:	df 93       	push	r29
    1f98:	cd b7       	in	r28, 0x3d	; 61
    1f9a:	de b7       	in	r29, 0x3e	; 62
    1f9c:	ca 1b       	sub	r28, r26
    1f9e:	db 0b       	sbc	r29, r27
    1fa0:	0f b6       	in	r0, 0x3f	; 63
    1fa2:	f8 94       	cli
    1fa4:	de bf       	out	0x3e, r29	; 62
    1fa6:	0f be       	out	0x3f, r0	; 63
    1fa8:	cd bf       	out	0x3d, r28	; 61
    1faa:	09 94       	ijmp

00001fac <__epilogue_restores__>:
    1fac:	2a 88       	ldd	r2, Y+18	; 0x12
    1fae:	39 88       	ldd	r3, Y+17	; 0x11
    1fb0:	48 88       	ldd	r4, Y+16	; 0x10
    1fb2:	5f 84       	ldd	r5, Y+15	; 0x0f
    1fb4:	6e 84       	ldd	r6, Y+14	; 0x0e
    1fb6:	7d 84       	ldd	r7, Y+13	; 0x0d
    1fb8:	8c 84       	ldd	r8, Y+12	; 0x0c
    1fba:	9b 84       	ldd	r9, Y+11	; 0x0b
    1fbc:	aa 84       	ldd	r10, Y+10	; 0x0a
    1fbe:	b9 84       	ldd	r11, Y+9	; 0x09
    1fc0:	c8 84       	ldd	r12, Y+8	; 0x08
    1fc2:	df 80       	ldd	r13, Y+7	; 0x07
    1fc4:	ee 80       	ldd	r14, Y+6	; 0x06
    1fc6:	fd 80       	ldd	r15, Y+5	; 0x05
    1fc8:	0c 81       	ldd	r16, Y+4	; 0x04
    1fca:	1b 81       	ldd	r17, Y+3	; 0x03
    1fcc:	aa 81       	ldd	r26, Y+2	; 0x02
    1fce:	b9 81       	ldd	r27, Y+1	; 0x01
    1fd0:	ce 0f       	add	r28, r30
    1fd2:	d1 1d       	adc	r29, r1
    1fd4:	0f b6       	in	r0, 0x3f	; 63
    1fd6:	f8 94       	cli
    1fd8:	de bf       	out	0x3e, r29	; 62
    1fda:	0f be       	out	0x3f, r0	; 63
    1fdc:	cd bf       	out	0x3d, r28	; 61
    1fde:	ed 01       	movw	r28, r26
    1fe0:	08 95       	ret

00001fe2 <_exit>:
    1fe2:	f8 94       	cli

00001fe4 <__stop_program>:
    1fe4:	ff cf       	rjmp	.-2      	; 0x1fe4 <__stop_program>
