
ATmega162.elf:     file format elf32-avr

Sections:
Idx Name          Size      VMA       LMA       File off  Algn
  0 .data         000001c0  00800100  00001596  0000162a  2**0
                  CONTENTS, ALLOC, LOAD, DATA
  1 .text         00001596  00000000  00000000  00000094  2**1
                  CONTENTS, ALLOC, LOAD, READONLY, CODE
  2 .bss          00000023  008002c0  008002c0  000017ea  2**0
                  ALLOC
  3 .comment      00000030  00000000  00000000  000017ea  2**0
                  CONTENTS, READONLY
  4 .note.gnu.avr.deviceinfo 0000003c  00000000  00000000  0000181c  2**2
                  CONTENTS, READONLY
  5 .debug_aranges 00000278  00000000  00000000  00001858  2**0
                  CONTENTS, READONLY, DEBUGGING
  6 .debug_info   00002edc  00000000  00000000  00001ad0  2**0
                  CONTENTS, READONLY, DEBUGGING
  7 .debug_abbrev 00001295  00000000  00000000  000049ac  2**0
                  CONTENTS, READONLY, DEBUGGING
  8 .debug_line   0000150e  00000000  00000000  00005c41  2**0
                  CONTENTS, READONLY, DEBUGGING
  9 .debug_frame  000006d8  00000000  00000000  00007150  2**2
                  CONTENTS, READONLY, DEBUGGING
 10 .debug_str    00000adf  00000000  00000000  00007828  2**0
                  CONTENTS, READONLY, DEBUGGING
 11 .debug_loc    000019c8  00000000  00000000  00008307  2**0
                  CONTENTS, READONLY, DEBUGGING
 12 .debug_ranges 000001f8  00000000  00000000  00009ccf  2**0
                  CONTENTS, READONLY, DEBUGGING

Disassembly of section .text:

00000000 <__vectors>:
       0:	0c 94 9c 02 	jmp	0x538	; 0x538 <__ctors_end>
       4:	0c 94 b9 02 	jmp	0x572	; 0x572 <__bad_interrupt>
       8:	0c 94 b9 02 	jmp	0x572	; 0x572 <__bad_interrupt>
       c:	0c 94 b9 02 	jmp	0x572	; 0x572 <__bad_interrupt>
      10:	0c 94 b9 02 	jmp	0x572	; 0x572 <__bad_interrupt>
      14:	0c 94 b9 02 	jmp	0x572	; 0x572 <__bad_interrupt>
      18:	0c 94 b9 02 	jmp	0x572	; 0x572 <__bad_interrupt>
      1c:	0c 94 b9 02 	jmp	0x572	; 0x572 <__bad_interrupt>
      20:	0c 94 b9 02 	jmp	0x572	; 0x572 <__bad_interrupt>
      24:	0c 94 b9 02 	jmp	0x572	; 0x572 <__bad_interrupt>
      28:	0c 94 b9 02 	jmp	0x572	; 0x572 <__bad_interrupt>
      2c:	0c 94 b9 02 	jmp	0x572	; 0x572 <__bad_interrupt>
      30:	0c 94 b9 02 	jmp	0x572	; 0x572 <__bad_interrupt>
      34:	0c 94 b9 02 	jmp	0x572	; 0x572 <__bad_interrupt>
      38:	0c 94 b9 02 	jmp	0x572	; 0x572 <__bad_interrupt>
      3c:	0c 94 6a 08 	jmp	0x10d4	; 0x10d4 <__vector_15>
      40:	0c 94 b9 02 	jmp	0x572	; 0x572 <__bad_interrupt>
      44:	0c 94 b9 02 	jmp	0x572	; 0x572 <__bad_interrupt>
      48:	0c 94 b9 02 	jmp	0x572	; 0x572 <__bad_interrupt>
      4c:	0c 94 e6 02 	jmp	0x5cc	; 0x5cc <__vector_19>
      50:	0c 94 b9 02 	jmp	0x572	; 0x572 <__bad_interrupt>
      54:	0c 94 b9 02 	jmp	0x572	; 0x572 <__bad_interrupt>
      58:	0c 94 b9 02 	jmp	0x572	; 0x572 <__bad_interrupt>
      5c:	0c 94 b9 02 	jmp	0x572	; 0x572 <__bad_interrupt>
      60:	0c 94 b9 02 	jmp	0x572	; 0x572 <__bad_interrupt>
      64:	0c 94 b9 02 	jmp	0x572	; 0x572 <__bad_interrupt>
      68:	0c 94 b9 02 	jmp	0x572	; 0x572 <__bad_interrupt>
      6c:	0c 94 b9 02 	jmp	0x572	; 0x572 <__bad_interrupt>

00000070 <__trampolines_end>:
	...
      78:	00 00       	nop
      7a:	5f 00       	.word	0x005f	; ????
      7c:	00 00       	nop
      7e:	00 00       	nop
      80:	00 07       	cpc	r16, r16
      82:	00 07       	cpc	r16, r16
      84:	00 00       	nop
      86:	00 00       	nop
      88:	14 7f       	andi	r17, 0xF4	; 244
      8a:	14 7f       	andi	r17, 0xF4	; 244
      8c:	14 00       	.word	0x0014	; ????
      8e:	00 00       	nop
      90:	24 2a       	or	r2, r20
      92:	7f 2a       	or	r7, r31
      94:	12 00       	.word	0x0012	; ????
      96:	00 00       	nop
      98:	23 13       	cpse	r18, r19
      9a:	08 64       	ori	r16, 0x48	; 72
      9c:	62 00       	.word	0x0062	; ????
      9e:	00 00       	nop
      a0:	36 49       	sbci	r19, 0x96	; 150
      a2:	56 20       	and	r5, r6
      a4:	50 00       	.word	0x0050	; ????
      a6:	00 00       	nop
      a8:	00 08       	sbc	r0, r0
      aa:	07 03       	mulsu	r16, r23
      ac:	00 00       	nop
      ae:	00 00       	nop
      b0:	00 1c       	adc	r0, r0
      b2:	22 41       	sbci	r18, 0x12	; 18
      b4:	00 00       	nop
      b6:	00 00       	nop
      b8:	00 41       	sbci	r16, 0x10	; 16
      ba:	22 1c       	adc	r2, r2
      bc:	00 00       	nop
      be:	00 00       	nop
      c0:	14 08       	sbc	r1, r4
      c2:	3e 08       	sbc	r3, r14
      c4:	14 00       	.word	0x0014	; ????
      c6:	00 00       	nop
      c8:	08 08       	sbc	r0, r8
      ca:	3e 08       	sbc	r3, r14
      cc:	08 00       	.word	0x0008	; ????
      ce:	00 00       	nop
      d0:	00 50       	subi	r16, 0x00	; 0
      d2:	30 00       	.word	0x0030	; ????
      d4:	00 00       	nop
      d6:	00 00       	nop
      d8:	08 08       	sbc	r0, r8
      da:	08 08       	sbc	r0, r8
      dc:	08 00       	.word	0x0008	; ????
      de:	00 00       	nop
      e0:	00 60       	ori	r16, 0x00	; 0
      e2:	60 00       	.word	0x0060	; ????
      e4:	00 00       	nop
      e6:	00 00       	nop
      e8:	20 10       	cpse	r2, r0
      ea:	08 04       	cpc	r0, r8
      ec:	02 00       	.word	0x0002	; ????
      ee:	00 00       	nop
      f0:	3e 51       	subi	r19, 0x1E	; 30
      f2:	49 45       	sbci	r20, 0x59	; 89
      f4:	3e 00       	.word	0x003e	; ????
      f6:	00 00       	nop
      f8:	00 42       	sbci	r16, 0x20	; 32
      fa:	7f 40       	sbci	r23, 0x0F	; 15
      fc:	00 00       	nop
      fe:	00 00       	nop
     100:	42 61       	ori	r20, 0x12	; 18
     102:	51 49       	sbci	r21, 0x91	; 145
     104:	46 00       	.word	0x0046	; ????
     106:	00 00       	nop
     108:	21 41       	sbci	r18, 0x11	; 17
     10a:	45 4b       	sbci	r20, 0xB5	; 181
     10c:	31 00       	.word	0x0031	; ????
     10e:	00 00       	nop
     110:	18 14       	cp	r1, r8
     112:	12 7f       	andi	r17, 0xF2	; 242
     114:	10 00       	.word	0x0010	; ????
     116:	00 00       	nop
     118:	27 45       	sbci	r18, 0x57	; 87
     11a:	45 45       	sbci	r20, 0x55	; 85
     11c:	39 00       	.word	0x0039	; ????
     11e:	00 00       	nop
     120:	3c 4a       	sbci	r19, 0xAC	; 172
     122:	49 49       	sbci	r20, 0x99	; 153
     124:	30 00       	.word	0x0030	; ????
     126:	00 00       	nop
     128:	01 71       	andi	r16, 0x11	; 17
     12a:	09 05       	cpc	r16, r9
     12c:	03 00       	.word	0x0003	; ????
     12e:	00 00       	nop
     130:	36 49       	sbci	r19, 0x96	; 150
     132:	49 49       	sbci	r20, 0x99	; 153
     134:	36 00       	.word	0x0036	; ????
     136:	00 00       	nop
     138:	06 49       	sbci	r16, 0x96	; 150
     13a:	49 29       	or	r20, r9
     13c:	1e 00       	.word	0x001e	; ????
     13e:	00 00       	nop
     140:	00 36       	cpi	r16, 0x60	; 96
     142:	36 00       	.word	0x0036	; ????
     144:	00 00       	nop
     146:	00 00       	nop
     148:	00 56       	subi	r16, 0x60	; 96
     14a:	36 00       	.word	0x0036	; ????
     14c:	00 00       	nop
     14e:	00 00       	nop
     150:	08 14       	cp	r0, r8
     152:	22 41       	sbci	r18, 0x12	; 18
     154:	00 00       	nop
     156:	00 00       	nop
     158:	14 14       	cp	r1, r4
     15a:	14 14       	cp	r1, r4
     15c:	14 14       	cp	r1, r4
     15e:	00 00       	nop
     160:	41 22       	and	r4, r17
     162:	14 08       	sbc	r1, r4
     164:	00 00       	nop
     166:	00 00       	nop
     168:	02 01       	movw	r0, r4
     16a:	51 09       	sbc	r21, r1
     16c:	06 00       	.word	0x0006	; ????
     16e:	00 00       	nop
     170:	3e 41       	sbci	r19, 0x1E	; 30
     172:	5d 5d       	subi	r21, 0xDD	; 221
     174:	1e 00       	.word	0x001e	; ????
     176:	00 00       	nop
     178:	7e 11       	cpse	r23, r14
     17a:	11 11       	cpse	r17, r1
     17c:	7e 00       	.word	0x007e	; ????
     17e:	00 00       	nop
     180:	7f 49       	sbci	r23, 0x9F	; 159
     182:	49 49       	sbci	r20, 0x99	; 153
     184:	36 00       	.word	0x0036	; ????
     186:	00 00       	nop
     188:	3e 41       	sbci	r19, 0x1E	; 30
     18a:	41 41       	sbci	r20, 0x11	; 17
     18c:	22 00       	.word	0x0022	; ????
     18e:	00 00       	nop
     190:	7f 41       	sbci	r23, 0x1F	; 31
     192:	41 22       	and	r4, r17
     194:	1c 00       	.word	0x001c	; ????
     196:	00 00       	nop
     198:	7f 49       	sbci	r23, 0x9F	; 159
     19a:	49 49       	sbci	r20, 0x99	; 153
     19c:	41 00       	.word	0x0041	; ????
     19e:	00 00       	nop
     1a0:	7f 09       	sbc	r23, r15
     1a2:	09 09       	sbc	r16, r9
     1a4:	01 00       	.word	0x0001	; ????
     1a6:	00 00       	nop
     1a8:	3e 41       	sbci	r19, 0x1E	; 30
     1aa:	49 49       	sbci	r20, 0x99	; 153
     1ac:	7a 00       	.word	0x007a	; ????
     1ae:	00 00       	nop
     1b0:	7f 08       	sbc	r7, r15
     1b2:	08 08       	sbc	r0, r8
     1b4:	7f 00       	.word	0x007f	; ????
     1b6:	00 00       	nop
     1b8:	00 41       	sbci	r16, 0x10	; 16
     1ba:	7f 41       	sbci	r23, 0x1F	; 31
     1bc:	00 00       	nop
     1be:	00 00       	nop
     1c0:	20 40       	sbci	r18, 0x00	; 0
     1c2:	41 3f       	cpi	r20, 0xF1	; 241
     1c4:	01 00       	.word	0x0001	; ????
     1c6:	00 00       	nop
     1c8:	7f 08       	sbc	r7, r15
     1ca:	14 22       	and	r1, r20
     1cc:	41 00       	.word	0x0041	; ????
     1ce:	00 00       	nop
     1d0:	7f 40       	sbci	r23, 0x0F	; 15
     1d2:	40 40       	sbci	r20, 0x00	; 0
     1d4:	40 00       	.word	0x0040	; ????
     1d6:	00 00       	nop
     1d8:	7f 02       	muls	r23, r31
     1da:	04 02       	muls	r16, r20
     1dc:	7f 00       	.word	0x007f	; ????
     1de:	00 00       	nop
     1e0:	7f 02       	muls	r23, r31
     1e2:	04 08       	sbc	r0, r4
     1e4:	7f 00       	.word	0x007f	; ????
     1e6:	00 00       	nop
     1e8:	3e 41       	sbci	r19, 0x1E	; 30
     1ea:	41 41       	sbci	r20, 0x11	; 17
     1ec:	3e 00       	.word	0x003e	; ????
     1ee:	00 00       	nop
     1f0:	7f 09       	sbc	r23, r15
     1f2:	09 09       	sbc	r16, r9
     1f4:	06 00       	.word	0x0006	; ????
     1f6:	00 00       	nop
     1f8:	3e 41       	sbci	r19, 0x1E	; 30
     1fa:	51 21       	and	r21, r1
     1fc:	5e 00       	.word	0x005e	; ????
     1fe:	00 00       	nop
     200:	7f 09       	sbc	r23, r15
     202:	19 29       	or	r17, r9
     204:	46 00       	.word	0x0046	; ????
     206:	00 00       	nop
     208:	46 49       	sbci	r20, 0x96	; 150
     20a:	49 49       	sbci	r20, 0x99	; 153
     20c:	31 00       	.word	0x0031	; ????
     20e:	00 00       	nop
     210:	01 01       	movw	r0, r2
     212:	7f 01       	movw	r14, r30
     214:	01 00       	.word	0x0001	; ????
     216:	00 00       	nop
     218:	3f 40       	sbci	r19, 0x0F	; 15
     21a:	40 40       	sbci	r20, 0x00	; 0
     21c:	3f 00       	.word	0x003f	; ????
     21e:	00 00       	nop
     220:	1f 20       	and	r1, r15
     222:	40 20       	and	r4, r0
     224:	1f 00       	.word	0x001f	; ????
     226:	00 00       	nop
     228:	7f 20       	and	r7, r15
     22a:	18 20       	and	r1, r8
     22c:	7f 00       	.word	0x007f	; ????
     22e:	00 00       	nop
     230:	63 14       	cp	r6, r3
     232:	08 14       	cp	r0, r8
     234:	63 00       	.word	0x0063	; ????
     236:	00 00       	nop
     238:	03 04       	cpc	r0, r3
     23a:	78 04       	cpc	r7, r8
     23c:	03 00       	.word	0x0003	; ????
     23e:	00 00       	nop
     240:	61 51       	subi	r22, 0x11	; 17
     242:	49 45       	sbci	r20, 0x59	; 89
     244:	43 00       	.word	0x0043	; ????
     246:	00 00       	nop
     248:	00 3e       	cpi	r16, 0xE0	; 224
     24a:	41 41       	sbci	r20, 0x11	; 17
     24c:	00 00       	nop
     24e:	00 00       	nop
     250:	02 04       	cpc	r0, r2
     252:	08 10       	cpse	r0, r8
     254:	20 00       	.word	0x0020	; ????
     256:	00 00       	nop
     258:	00 41       	sbci	r16, 0x10	; 16
     25a:	41 3e       	cpi	r20, 0xE1	; 225
     25c:	00 00       	nop
     25e:	00 00       	nop
     260:	04 02       	muls	r16, r20
     262:	01 02       	muls	r16, r17
     264:	04 00       	.word	0x0004	; ????
     266:	00 00       	nop
     268:	40 40       	sbci	r20, 0x00	; 0
     26a:	40 40       	sbci	r20, 0x00	; 0
     26c:	40 40       	sbci	r20, 0x00	; 0
     26e:	00 00       	nop
     270:	00 00       	nop
     272:	03 07       	cpc	r16, r19
     274:	00 00       	nop
     276:	00 00       	nop
     278:	20 54       	subi	r18, 0x40	; 64
     27a:	54 54       	subi	r21, 0x44	; 68
     27c:	78 00       	.word	0x0078	; ????
     27e:	00 00       	nop
     280:	7f 48       	sbci	r23, 0x8F	; 143
     282:	44 44       	sbci	r20, 0x44	; 68
     284:	38 00       	.word	0x0038	; ????
     286:	00 00       	nop
     288:	38 44       	sbci	r19, 0x48	; 72
     28a:	44 44       	sbci	r20, 0x44	; 68
     28c:	20 00       	.word	0x0020	; ????
     28e:	00 00       	nop
     290:	38 44       	sbci	r19, 0x48	; 72
     292:	44 48       	sbci	r20, 0x84	; 132
     294:	7f 00       	.word	0x007f	; ????
     296:	00 00       	nop
     298:	38 54       	subi	r19, 0x48	; 72
     29a:	54 54       	subi	r21, 0x44	; 68
     29c:	18 00       	.word	0x0018	; ????
     29e:	00 00       	nop
     2a0:	08 7e       	andi	r16, 0xE8	; 232
     2a2:	09 01       	movw	r0, r18
     2a4:	02 00       	.word	0x0002	; ????
     2a6:	00 00       	nop
     2a8:	08 14       	cp	r0, r8
     2aa:	54 54       	subi	r21, 0x44	; 68
     2ac:	3c 00       	.word	0x003c	; ????
     2ae:	00 00       	nop
     2b0:	7f 08       	sbc	r7, r15
     2b2:	04 04       	cpc	r0, r4
     2b4:	78 00       	.word	0x0078	; ????
     2b6:	00 00       	nop
     2b8:	00 44       	sbci	r16, 0x40	; 64
     2ba:	7d 40       	sbci	r23, 0x0D	; 13
     2bc:	00 00       	nop
     2be:	00 00       	nop
     2c0:	20 40       	sbci	r18, 0x00	; 0
     2c2:	44 3d       	cpi	r20, 0xD4	; 212
     2c4:	00 00       	nop
     2c6:	00 00       	nop
     2c8:	00 7f       	andi	r16, 0xF0	; 240
     2ca:	10 28       	or	r1, r0
     2cc:	44 00       	.word	0x0044	; ????
     2ce:	00 00       	nop
     2d0:	00 41       	sbci	r16, 0x10	; 16
     2d2:	7f 40       	sbci	r23, 0x0F	; 15
     2d4:	00 00       	nop
     2d6:	00 00       	nop
     2d8:	7c 04       	cpc	r7, r12
     2da:	18 04       	cpc	r1, r8
     2dc:	78 00       	.word	0x0078	; ????
     2de:	00 00       	nop
     2e0:	7c 08       	sbc	r7, r12
     2e2:	04 04       	cpc	r0, r4
     2e4:	78 00       	.word	0x0078	; ????
     2e6:	00 00       	nop
     2e8:	38 44       	sbci	r19, 0x48	; 72
     2ea:	44 44       	sbci	r20, 0x44	; 68
     2ec:	38 00       	.word	0x0038	; ????
     2ee:	00 00       	nop
     2f0:	7c 14       	cp	r7, r12
     2f2:	14 14       	cp	r1, r4
     2f4:	08 00       	.word	0x0008	; ????
     2f6:	00 00       	nop
     2f8:	08 14       	cp	r0, r8
     2fa:	14 18       	sub	r1, r4
     2fc:	7c 00       	.word	0x007c	; ????
     2fe:	00 00       	nop
     300:	7c 08       	sbc	r7, r12
     302:	04 04       	cpc	r0, r4
     304:	08 00       	.word	0x0008	; ????
     306:	00 00       	nop
     308:	48 54       	subi	r20, 0x48	; 72
     30a:	54 54       	subi	r21, 0x44	; 68
     30c:	20 00       	.word	0x0020	; ????
     30e:	00 00       	nop
     310:	04 3f       	cpi	r16, 0xF4	; 244
     312:	44 40       	sbci	r20, 0x04	; 4
     314:	20 00       	.word	0x0020	; ????
     316:	00 00       	nop
     318:	3c 40       	sbci	r19, 0x0C	; 12
     31a:	40 20       	and	r4, r0
     31c:	7c 00       	.word	0x007c	; ????
     31e:	00 00       	nop
     320:	1c 20       	and	r1, r12
     322:	40 20       	and	r4, r0
     324:	1c 00       	.word	0x001c	; ????
     326:	00 00       	nop
     328:	3c 40       	sbci	r19, 0x0C	; 12
     32a:	30 40       	sbci	r19, 0x00	; 0
     32c:	3c 00       	.word	0x003c	; ????
     32e:	00 00       	nop
     330:	44 28       	or	r4, r4
     332:	10 28       	or	r1, r0
     334:	44 00       	.word	0x0044	; ????
     336:	00 00       	nop
     338:	0c 50       	subi	r16, 0x0C	; 12
     33a:	50 50       	subi	r21, 0x00	; 0
     33c:	3c 00       	.word	0x003c	; ????
     33e:	00 00       	nop
     340:	44 64       	ori	r20, 0x44	; 68
     342:	54 4c       	sbci	r21, 0xC4	; 196
     344:	44 00       	.word	0x0044	; ????
     346:	00 00       	nop
     348:	00 08       	sbc	r0, r0
     34a:	36 41       	sbci	r19, 0x16	; 22
     34c:	00 00       	nop
     34e:	00 00       	nop
     350:	00 00       	nop
     352:	7f 00       	.word	0x007f	; ????
     354:	00 00       	nop
     356:	00 00       	nop
     358:	00 41       	sbci	r16, 0x10	; 16
     35a:	36 08       	sbc	r3, r6
     35c:	00 00       	nop
     35e:	00 00       	nop
     360:	08 04       	cpc	r0, r8
     362:	08 10       	cpse	r0, r8
     364:	08 00       	.word	0x0008	; ????
	...

00000368 <settingsMenuItems>:
     368:	20 53 6f 75 6e 64 20 20 20 20 20 20 20 20 00 00      Sound        ..
     378:	20 42 72 69 67 68 74 6e 65 73 73 20 20 20 00 00      Brightness   ..
     388:	20 43 6f 6e 74 72 6f 6c 73 20 20 20 20 20 00 00      Controls     ..
     398:	20 42 61 63 6b 20 20 20 20 20 20 20 20 20 00 00      Back         ..

000003a8 <scrollMenuItems>:
     3a8:	20 49 74 65 6d 20 31 20 20 20 20 20 20 20 00 00      Item 1       ..
     3b8:	20 49 74 65 6d 20 32 20 20 20 20 20 20 20 00 00      Item 2       ..
     3c8:	20 49 74 65 6d 20 33 20 20 20 20 20 20 20 00 00      Item 3       ..
     3d8:	20 49 74 65 6d 20 34 20 20 20 20 20 20 20 00 00      Item 4       ..
     3e8:	20 49 74 65 6d 20 35 20 20 20 20 20 20 20 00 00      Item 5       ..
     3f8:	20 49 74 65 6d 20 36 20 20 20 20 20 20 20 00 00      Item 6       ..
     408:	20 49 74 65 6d 20 37 20 20 20 20 20 20 20 00 00      Item 7       ..
     418:	20 49 74 65 6d 20 38 20 20 20 20 20 20 20 00 00      Item 8       ..
     428:	20 49 74 65 6d 20 39 20 20 20 20 20 20 20 00 00      Item 9       ..
     438:	20 49 74 65 6d 20 31 30 20 20 20 20 20 20 00 00      Item 10      ..
     448:	20 49 74 65 6d 20 31 31 20 20 20 20 20 20 00 00      Item 11      ..
     458:	20 49 74 65 6d 20 31 32 20 20 20 20 20 20 00 00      Item 12      ..
     468:	20 49 74 65 6d 20 31 33 20 20 20 20 20 20 00 00      Item 13      ..
     478:	20 49 74 65 6d 20 31 34 20 20 20 20 20 20 00 00      Item 14      ..
     488:	20 49 74 65 6d 20 31 35 20 20 20 20 20 20 00 00      Item 15      ..
     498:	20 49 74 65 6d 20 31 36 20 20 20 20 20 20 00 00      Item 16      ..
     4a8:	20 49 74 65 6d 20 31 37 20 20 20 20 20 20 00 00      Item 17      ..
     4b8:	20 49 74 65 6d 20 31 38 20 20 20 20 20 20 00 00      Item 18      ..
     4c8:	20 49 74 65 6d 20 31 39 20 20 20 20 20 20 00 00      Item 19      ..
     4d8:	20 49 74 65 6d 20 32 30 20 20 20 20 20 20 00 00      Item 20      ..

000004e8 <mainMenuItems>:
     4e8:	20 53 74 61 72 74 20 47 61 6d 65 20 20 20 00 00      Start Game   ..
     4f8:	20 53 65 74 74 69 6e 67 73 20 20 20 20 20 00 00      Settings     ..
     508:	20 48 69 67 68 20 53 63 6f 72 65 73 20 20 00 00      High Scores  ..
     518:	20 43 72 65 64 69 74 73 20 20 20 20 20 20 00 00      Credits      ..
     528:	20 45 78 69 74 20 20 20 20 20 20 20 20 20 00 00      Exit         ..

00000538 <__ctors_end>:
     538:	11 24       	eor	r1, r1
     53a:	1f be       	out	0x3f, r1	; 63
     53c:	cf ef       	ldi	r28, 0xFF	; 255
     53e:	d4 e0       	ldi	r29, 0x04	; 4
     540:	de bf       	out	0x3e, r29	; 62
     542:	cd bf       	out	0x3d, r28	; 61

00000544 <__do_copy_data>:
     544:	12 e0       	ldi	r17, 0x02	; 2
     546:	a0 e0       	ldi	r26, 0x00	; 0
     548:	b1 e0       	ldi	r27, 0x01	; 1
     54a:	e6 e9       	ldi	r30, 0x96	; 150
     54c:	f5 e1       	ldi	r31, 0x15	; 21
     54e:	02 c0       	rjmp	.+4      	; 0x554 <__do_copy_data+0x10>
     550:	05 90       	lpm	r0, Z+
     552:	0d 92       	st	X+, r0
     554:	a0 3c       	cpi	r26, 0xC0	; 192
     556:	b1 07       	cpc	r27, r17
     558:	d9 f7       	brne	.-10     	; 0x550 <__do_copy_data+0xc>

0000055a <__do_clear_bss>:
     55a:	22 e0       	ldi	r18, 0x02	; 2
     55c:	a0 ec       	ldi	r26, 0xC0	; 192
     55e:	b2 e0       	ldi	r27, 0x02	; 2
     560:	01 c0       	rjmp	.+2      	; 0x564 <.do_clear_bss_start>

00000562 <.do_clear_bss_loop>:
     562:	1d 92       	st	X+, r1

00000564 <.do_clear_bss_start>:
     564:	a3 3e       	cpi	r26, 0xE3	; 227
     566:	b2 07       	cpc	r27, r18
     568:	e1 f7       	brne	.-8      	; 0x562 <.do_clear_bss_loop>
     56a:	0e 94 f3 02 	call	0x5e6	; 0x5e6 <main>
     56e:	0c 94 c9 0a 	jmp	0x1592	; 0x1592 <_exit>

00000572 <__bad_interrupt>:
     572:	0c 94 00 00 	jmp	0	; 0x0 <__vectors>

00000576 <UART_Init>:
     576:	90 bd       	out	0x20, r25	; 32
     578:	89 b9       	out	0x09, r24	; 9
     57a:	54 9a       	sbi	0x0a, 4	; 10
     57c:	53 9a       	sbi	0x0a, 3	; 10
     57e:	8e e8       	ldi	r24, 0x8E	; 142
     580:	80 bd       	out	0x20, r24	; 32
     582:	08 95       	ret

00000584 <UART_SendChar>:
     584:	5d 9b       	sbis	0x0b, 5	; 11
     586:	fe cf       	rjmp	.-4      	; 0x584 <UART_SendChar>
     588:	8c b9       	out	0x0c, r24	; 12
     58a:	08 95       	ret

0000058c <UART_putChar>:
     58c:	0e 94 c2 02 	call	0x584	; 0x584 <UART_SendChar>
     590:	80 e0       	ldi	r24, 0x00	; 0
     592:	90 e0       	ldi	r25, 0x00	; 0
     594:	08 95       	ret

00000596 <UART_ReceiveChar>:
     596:	5f 9b       	sbis	0x0b, 7	; 11
     598:	fe cf       	rjmp	.-4      	; 0x596 <UART_ReceiveChar>
     59a:	8c b1       	in	r24, 0x0c	; 12
     59c:	08 95       	ret

0000059e <UART_getChar>:
     59e:	cf 93       	push	r28
     5a0:	0e 94 cb 02 	call	0x596	; 0x596 <UART_ReceiveChar>
     5a4:	c8 2f       	mov	r28, r24
     5a6:	0e 94 c2 02 	call	0x584	; 0x584 <UART_SendChar>
     5aa:	8c 2f       	mov	r24, r28
     5ac:	90 e0       	ldi	r25, 0x00	; 0
     5ae:	cf 91       	pop	r28
     5b0:	08 95       	ret

000005b2 <URAT_initStudio>:
     5b2:	ed ed       	ldi	r30, 0xDD	; 221
     5b4:	f2 e0       	ldi	r31, 0x02	; 2
     5b6:	84 e1       	ldi	r24, 0x14	; 20
     5b8:	91 e0       	ldi	r25, 0x01	; 1
     5ba:	93 83       	std	Z+3, r25	; 0x03
     5bc:	82 83       	std	Z+2, r24	; 0x02
     5be:	86 e0       	ldi	r24, 0x06	; 6
     5c0:	91 e0       	ldi	r25, 0x01	; 1
     5c2:	91 83       	std	Z+1, r25	; 0x01
     5c4:	80 83       	st	Z, r24
     5c6:	08 95       	ret

000005c8 <UART_EnableReceiveInterrupt>:
     5c8:	57 9a       	sbi	0x0a, 7	; 10
     5ca:	08 95       	ret

000005cc <__vector_19>:
     5cc:	1f 92       	push	r1
     5ce:	0f 92       	push	r0
     5d0:	0f b6       	in	r0, 0x3f	; 63
     5d2:	0f 92       	push	r0
     5d4:	11 24       	eor	r1, r1
     5d6:	8f 93       	push	r24
     5d8:	8c b1       	in	r24, 0x0c	; 12
     5da:	8f 91       	pop	r24
     5dc:	0f 90       	pop	r0
     5de:	0f be       	out	0x3f, r0	; 63
     5e0:	0f 90       	pop	r0
     5e2:	1f 90       	pop	r1
     5e4:	18 95       	reti

000005e6 <main>:

#include "DriverUART.h"
#include "SRAM.h"
#include "Menu_init.h"

int main(void) {
     5e6:	cf 93       	push	r28
     5e8:	df 93       	push	r29
     5ea:	cd b7       	in	r28, 0x3d	; 61
     5ec:	de b7       	in	r29, 0x3e	; 62
     5ee:	2f 97       	sbiw	r28, 0x0f	; 15
     5f0:	0f b6       	in	r0, 0x3f	; 63
     5f2:	f8 94       	cli
     5f4:	de bf       	out	0x3e, r29	; 62
     5f6:	0f be       	out	0x3f, r0	; 63
     5f8:	cd bf       	out	0x3d, r28	; 61
	/*_________________INITIALISERINGER START______________________*/
	// Initialiser UART med baudrate 9600
	UART_Init(MYUBBR);
     5fa:	8f e1       	ldi	r24, 0x1F	; 31
     5fc:	90 e0       	ldi	r25, 0x00	; 0
     5fe:	0e 94 bb 02 	call	0x576	; 0x576 <UART_Init>
	URAT_initStudio();
     602:	0e 94 d9 02 	call	0x5b2	; 0x5b2 <URAT_initStudio>
	UART_EnableReceiveInterrupt();
     606:	0e 94 e4 02 	call	0x5c8	; 0x5c8 <UART_EnableReceiveInterrupt>
    setup_timer();						// Start millisekundteljinga
     60a:	0e 94 ae 08 	call	0x115c	; 0x115c <setup_timer>
	sei();								// Aktiver globale avbrot
     60e:	78 94       	sei
	externalMemoryInit();				// Initialiser eksternt minne må vere etter sei
     610:	0e 94 c1 08 	call	0x1182	; 0x1182 <externalMemoryInit>
	initialize_menus();
     614:	0e 94 7d 04 	call	0x8fa	; 0x8fa <initialize_menus>
	MultiBoard board;
	MultiBoard_Init(&board);			// Initialiser MultiBoard og kalibrer joystickens origo
     618:	ce 01       	movw	r24, r28
     61a:	01 96       	adiw	r24, 0x01	; 1
     61c:	0e 94 27 05 	call	0xa4e	; 0xa4e <MultiBoard_Init>
	oled_init();						// Initialiser OLED-skjermen
     620:	0e 94 3a 06 	call	0xc74	; 0xc74 <oled_init>
	//setup_printf_for_oled();			// Optional
	//SRAM_test();
	
	/*______MENY______*/
	current_menu = &mainMenu;
     624:	8d ec       	ldi	r24, 0xCD	; 205
     626:	92 e0       	ldi	r25, 0x02	; 2
     628:	90 93 c1 02 	sts	0x02C1, r25	; 0x8002c1 <__data_end+0x1>
     62c:	80 93 c0 02 	sts	0x02C0, r24	; 0x8002c0 <__data_end>
	

	/*_______TEST OLED______________________*/
	
	oled_home();
     630:	0e 94 33 06 	call	0xc66	; 0xc66 <oled_home>
	write_string_to_SRAM(smiley);
     634:	83 e2       	ldi	r24, 0x23	; 35
     636:	91 e0       	ldi	r25, 0x01	; 1
     638:	0e 94 cf 06 	call	0xd9e	; 0xd9e <write_string_to_SRAM>
	oled_data_from_SRAM();
     63c:	0e 94 7d 06 	call	0xcfa	; 0xcfa <oled_data_from_SRAM>
	#else
		//round up by default
		__ticks_dc = (uint32_t)(ceil(fabs(__tmp)));
	#endif

	__builtin_avr_delay_cycles(__ticks_dc);
     640:	2f ef       	ldi	r18, 0xFF	; 255
     642:	8f ef       	ldi	r24, 0xFF	; 255
     644:	9e e0       	ldi	r25, 0x0E	; 14
     646:	21 50       	subi	r18, 0x01	; 1
     648:	80 40       	sbci	r24, 0x00	; 0
     64a:	90 40       	sbci	r25, 0x00	; 0
     64c:	e1 f7       	brne	.-8      	; 0x646 <main+0x60>
     64e:	00 c0       	rjmp	.+0      	; 0x650 <main+0x6a>
     650:	00 00       	nop
	_delay_ms(1000); //smile litt før start
	
	/*_______HOVUDLØKKE______*/
	 while (1) {

        menu_navigate(&board, &current_menu);  // Kallar `menu_navigate` med referanse til gjeldande meny
     652:	60 ec       	ldi	r22, 0xC0	; 192
     654:	72 e0       	ldi	r23, 0x02	; 2
     656:	ce 01       	movw	r24, r28
     658:	01 96       	adiw	r24, 0x01	; 1
     65a:	0e 94 fd 03 	call	0x7fa	; 0x7fa <menu_navigate>
		
		/*Så lenge vi ikkje har noko delay gåandes og ditta står her tenker eg 
		at den oppdateres automatisk med det minnet vi har skreve til sramen?*/
		if (get_time_in_ms() >= 16) {
     65e:	0e 94 a3 08 	call	0x1146	; 0x1146 <get_time_in_ms>
     662:	60 31       	cpi	r22, 0x10	; 16
     664:	71 05       	cpc	r23, r1
     666:	81 05       	cpc	r24, r1
     668:	91 05       	cpc	r25, r1
     66a:	98 f3       	brcs	.-26     	; 0x652 <main+0x6c>
			restart_timer();
     66c:	0e 94 b6 08 	call	0x116c	; 0x116c <restart_timer>
			oled_data_from_SRAM();
     670:	0e 94 7d 06 	call	0xcfa	; 0xcfa <oled_data_from_SRAM>
     674:	ee cf       	rjmp	.-36     	; 0x652 <main+0x6c>

00000676 <oled_display_menu>:
}

// Sjekker om joystick-knappen er trykt
uint8_t is_joystick_button_pressed(MultiBoard* board) {
	return (board->JoyBtn != 0);  // Anta at knappen er aktiv-høg (1 betyr trykt)
}
     676:	df 92       	push	r13
     678:	ef 92       	push	r14
     67a:	ff 92       	push	r15
     67c:	0f 93       	push	r16
     67e:	1f 93       	push	r17
     680:	cf 93       	push	r28
     682:	df 93       	push	r29
     684:	cd b7       	in	r28, 0x3d	; 61
     686:	de b7       	in	r29, 0x3e	; 62
     688:	c0 58       	subi	r28, 0x80	; 128
     68a:	d1 09       	sbc	r29, r1
     68c:	0f b6       	in	r0, 0x3f	; 63
     68e:	f8 94       	cli
     690:	de bf       	out	0x3e, r29	; 62
     692:	0f be       	out	0x3f, r0	; 63
     694:	cd bf       	out	0x3d, r28	; 61
     696:	8c 01       	movw	r16, r24
     698:	fe 01       	movw	r30, r28
     69a:	31 96       	adiw	r30, 0x01	; 1
     69c:	80 e8       	ldi	r24, 0x80	; 128
     69e:	df 01       	movw	r26, r30
     6a0:	1d 92       	st	X+, r1
     6a2:	8a 95       	dec	r24
     6a4:	e9 f7       	brne	.-6      	; 0x6a0 <oled_display_menu+0x2a>
     6a6:	7f 01       	movw	r14, r30
     6a8:	d1 2c       	mov	r13, r1
     6aa:	d8 01       	movw	r26, r16
     6ac:	14 96       	adiw	r26, 0x04	; 4
     6ae:	ec 91       	ld	r30, X
     6b0:	14 97       	sbiw	r26, 0x04	; 4
     6b2:	ed 0d       	add	r30, r13
     6b4:	15 96       	adiw	r26, 0x05	; 5
     6b6:	8c 91       	ld	r24, X
     6b8:	15 97       	sbiw	r26, 0x05	; 5
     6ba:	e8 17       	cp	r30, r24
     6bc:	a0 f4       	brcc	.+40     	; 0x6e6 <oled_display_menu+0x70>
     6be:	f0 e0       	ldi	r31, 0x00	; 0
     6c0:	ee 0f       	add	r30, r30
     6c2:	ff 1f       	adc	r31, r31
     6c4:	8d 91       	ld	r24, X+
     6c6:	9c 91       	ld	r25, X
     6c8:	e8 0f       	add	r30, r24
     6ca:	f9 1f       	adc	r31, r25
     6cc:	60 81       	ld	r22, Z
     6ce:	71 81       	ldd	r23, Z+1	; 0x01
     6d0:	fb 01       	movw	r30, r22
     6d2:	01 90       	ld	r0, Z+
     6d4:	00 20       	and	r0, r0
     6d6:	e9 f7       	brne	.-6      	; 0x6d2 <oled_display_menu+0x5c>
     6d8:	31 97       	sbiw	r30, 0x01	; 1
     6da:	af 01       	movw	r20, r30
     6dc:	46 1b       	sub	r20, r22
     6de:	57 0b       	sbc	r21, r23
     6e0:	c7 01       	movw	r24, r14
     6e2:	0e 94 8a 0a 	call	0x1514	; 0x1514 <strncpy>
     6e6:	d3 94       	inc	r13
     6e8:	b0 e1       	ldi	r27, 0x10	; 16
     6ea:	eb 0e       	add	r14, r27
     6ec:	f1 1c       	adc	r15, r1
     6ee:	e8 e0       	ldi	r30, 0x08	; 8
     6f0:	de 12       	cpse	r13, r30
     6f2:	db cf       	rjmp	.-74     	; 0x6aa <oled_display_menu+0x34>
     6f4:	ce 01       	movw	r24, r28
     6f6:	01 96       	adiw	r24, 0x01	; 1
     6f8:	0e 94 33 07 	call	0xe66	; 0xe66 <oled_write_screen_to_SRAM>
     6fc:	d8 01       	movw	r26, r16
     6fe:	12 96       	adiw	r26, 0x02	; 2
     700:	8c 91       	ld	r24, X
     702:	12 97       	sbiw	r26, 0x02	; 2
     704:	14 96       	adiw	r26, 0x04	; 4
     706:	9c 91       	ld	r25, X
     708:	4e e3       	ldi	r20, 0x3E	; 62
     70a:	60 e0       	ldi	r22, 0x00	; 0
     70c:	89 1b       	sub	r24, r25
     70e:	0e 94 0f 08 	call	0x101e	; 0x101e <oled_write_char_to_SRAM>
     712:	c0 58       	subi	r28, 0x80	; 128
     714:	df 4f       	sbci	r29, 0xFF	; 255
     716:	0f b6       	in	r0, 0x3f	; 63
     718:	f8 94       	cli
     71a:	de bf       	out	0x3e, r29	; 62
     71c:	0f be       	out	0x3f, r0	; 63
     71e:	cd bf       	out	0x3d, r28	; 61
     720:	df 91       	pop	r29
     722:	cf 91       	pop	r28
     724:	1f 91       	pop	r17
     726:	0f 91       	pop	r16
     728:	ff 90       	pop	r15
     72a:	ef 90       	pop	r14
     72c:	df 90       	pop	r13
     72e:	08 95       	ret

00000730 <update_menu_arrows>:
		menu_changed = 1;  // Menyen vil endre seg etter valet
	}
}

// Oppdater pilene i menyen når brukaren navigerer
void update_menu_arrows(uint8_t new_position, uint8_t old_position) {
     730:	cf 93       	push	r28
     732:	c8 2f       	mov	r28, r24
     734:	86 2f       	mov	r24, r22
	// Fjern pila frå den gamle posisjonen ved å skrive eit mellomrom
	oled_write_char_to_SRAM(old_position, 0, ' ');
     736:	40 e2       	ldi	r20, 0x20	; 32
     738:	60 e0       	ldi	r22, 0x00	; 0
     73a:	0e 94 0f 08 	call	0x101e	; 0x101e <oled_write_char_to_SRAM>

	// Set pila på den nye posisjonen
	oled_write_char_to_SRAM(new_position, 0, '>');
     73e:	4e e3       	ldi	r20, 0x3E	; 62
     740:	60 e0       	ldi	r22, 0x00	; 0
     742:	8c 2f       	mov	r24, r28
     744:	0e 94 0f 08 	call	0x101e	; 0x101e <oled_write_char_to_SRAM>
}
     748:	cf 91       	pop	r28
     74a:	08 95       	ret

0000074c <update_menu_position_from_joystick>:
	// Sett pila på gjeldende posisjon innanfor synleg meny
	oled_write_char_to_SRAM(menu->current_position - menu->scroll_offset, 0, '>');
}

// Oppdaterer menyposisjonen frå joystick-input hugs å kalle på MultiBoard_Update(board);  // Oppdater joystick-posisjonen
void update_menu_position_from_joystick(MultiBoard* board, Menu* menu) {
     74c:	fb 01       	movw	r30, r22
	int16_t joyY = (int16_t)(board->JoyYposCal);  // Les Y-posisjonen frå joysticken
     74e:	dc 01       	movw	r26, r24
     750:	1b 96       	adiw	r26, 0x0b	; 11
     752:	8d 91       	ld	r24, X+
     754:	9c 91       	ld	r25, X
     756:	1c 97       	sbiw	r26, 0x0c	; 12

	// Beveg oppover i menyen
	if (joyY > 50) {
     758:	83 33       	cpi	r24, 0x33	; 51
     75a:	91 05       	cpc	r25, r1
     75c:	0c f1       	brlt	.+66     	; 0x7a0 <update_menu_position_from_joystick+0x54>
		if (menu->current_position > 0) {
     75e:	62 81       	ldd	r22, Z+2	; 0x02
     760:	66 23       	and	r22, r22
     762:	09 f4       	brne	.+2      	; 0x766 <update_menu_position_from_joystick+0x1a>
     764:	49 c0       	rjmp	.+146    	; 0x7f8 <update_menu_position_from_joystick+0xac>
			menu->prev_position = menu->current_position;
     766:	63 83       	std	Z+3, r22	; 0x03
			menu->current_position--;
     768:	8f ef       	ldi	r24, 0xFF	; 255
     76a:	86 0f       	add	r24, r22
     76c:	82 83       	std	Z+2, r24	; 0x02

			// Hvis vi har scrollet forbi synlege element, oppdater scroll_offset
			if (menu->current_position < menu->scroll_offset) {
     76e:	94 81       	ldd	r25, Z+4	; 0x04
     770:	89 17       	cp	r24, r25
     772:	10 f4       	brcc	.+4      	; 0x778 <update_menu_position_from_joystick+0x2c>
				menu->scroll_offset--;
     774:	91 50       	subi	r25, 0x01	; 1
     776:	94 83       	std	Z+4, r25	; 0x04
			}
			update_menu_arrows(menu->current_position - menu->scroll_offset, menu->prev_position - menu->scroll_offset);
     778:	24 81       	ldd	r18, Z+4	; 0x04
     77a:	30 e0       	ldi	r19, 0x00	; 0
     77c:	70 e0       	ldi	r23, 0x00	; 0
     77e:	62 1b       	sub	r22, r18
     780:	73 0b       	sbc	r23, r19
     782:	90 e0       	ldi	r25, 0x00	; 0
     784:	82 1b       	sub	r24, r18
     786:	93 0b       	sbc	r25, r19
     788:	0e 94 98 03 	call	0x730	; 0x730 <update_menu_arrows>
     78c:	bf ef       	ldi	r27, 0xFF	; 255
     78e:	2f ef       	ldi	r18, 0xFF	; 255
     790:	82 e0       	ldi	r24, 0x02	; 2
     792:	b1 50       	subi	r27, 0x01	; 1
     794:	20 40       	sbci	r18, 0x00	; 0
     796:	80 40       	sbci	r24, 0x00	; 0
     798:	e1 f7       	brne	.-8      	; 0x792 <update_menu_position_from_joystick+0x46>
     79a:	00 c0       	rjmp	.+0      	; 0x79c <update_menu_position_from_joystick+0x50>
     79c:	00 c0       	rjmp	.+0      	; 0x79e <update_menu_position_from_joystick+0x52>
     79e:	08 95       	ret
			_delay_ms(200);  // Forsinkelse for å unngå rask scrolling
		}
	}
	// Beveg nedover i menyen
	else if (joyY < -50) {
     7a0:	8e 3c       	cpi	r24, 0xCE	; 206
     7a2:	9f 4f       	sbci	r25, 0xFF	; 255
     7a4:	4c f5       	brge	.+82     	; 0x7f8 <update_menu_position_from_joystick+0xac>
		if (menu->current_position < menu->num_items - 1) {
     7a6:	82 81       	ldd	r24, Z+2	; 0x02
     7a8:	68 2f       	mov	r22, r24
     7aa:	70 e0       	ldi	r23, 0x00	; 0
     7ac:	25 81       	ldd	r18, Z+5	; 0x05
     7ae:	30 e0       	ldi	r19, 0x00	; 0
     7b0:	21 50       	subi	r18, 0x01	; 1
     7b2:	31 09       	sbc	r19, r1
     7b4:	62 17       	cp	r22, r18
     7b6:	73 07       	cpc	r23, r19
     7b8:	fc f4       	brge	.+62     	; 0x7f8 <update_menu_position_from_joystick+0xac>
			menu->prev_position = menu->current_position;
     7ba:	83 83       	std	Z+3, r24	; 0x03
			
			menu->current_position++;
     7bc:	8f 5f       	subi	r24, 0xFF	; 255
     7be:	82 83       	std	Z+2, r24	; 0x02

			// Hvis vi har nådd slutten av den synlege menyen, oppdater scroll_offset
			if (menu->current_position >= menu->scroll_offset + MENU_ITEMS_PER_PAGE) {
     7c0:	90 e0       	ldi	r25, 0x00	; 0
     7c2:	44 81       	ldd	r20, Z+4	; 0x04
     7c4:	24 2f       	mov	r18, r20
     7c6:	30 e0       	ldi	r19, 0x00	; 0
     7c8:	28 5f       	subi	r18, 0xF8	; 248
     7ca:	3f 4f       	sbci	r19, 0xFF	; 255
     7cc:	82 17       	cp	r24, r18
     7ce:	93 07       	cpc	r25, r19
     7d0:	14 f0       	brlt	.+4      	; 0x7d6 <update_menu_position_from_joystick+0x8a>
				menu->scroll_offset++;
     7d2:	4f 5f       	subi	r20, 0xFF	; 255
     7d4:	44 83       	std	Z+4, r20	; 0x04
			}
			update_menu_arrows(menu->current_position - menu->scroll_offset, menu->prev_position - menu->scroll_offset);
     7d6:	24 81       	ldd	r18, Z+4	; 0x04
     7d8:	30 e0       	ldi	r19, 0x00	; 0
     7da:	62 1b       	sub	r22, r18
     7dc:	73 0b       	sbc	r23, r19
     7de:	82 1b       	sub	r24, r18
     7e0:	93 0b       	sbc	r25, r19
     7e2:	0e 94 98 03 	call	0x730	; 0x730 <update_menu_arrows>
     7e6:	bf ef       	ldi	r27, 0xFF	; 255
     7e8:	2f ef       	ldi	r18, 0xFF	; 255
     7ea:	82 e0       	ldi	r24, 0x02	; 2
     7ec:	b1 50       	subi	r27, 0x01	; 1
     7ee:	20 40       	sbci	r18, 0x00	; 0
     7f0:	80 40       	sbci	r24, 0x00	; 0
     7f2:	e1 f7       	brne	.-8      	; 0x7ec <update_menu_position_from_joystick+0xa0>
     7f4:	00 c0       	rjmp	.+0      	; 0x7f6 <update_menu_position_from_joystick+0xaa>
     7f6:	00 c0       	rjmp	.+0      	; 0x7f8 <update_menu_position_from_joystick+0xac>
     7f8:	08 95       	ret

000007fa <menu_navigate>:
	return (board->JoyBtn != 0);  // Anta at knappen er aktiv-høg (1 betyr trykt)
}

static uint8_t menu_changed = 1;  // Flag for å spore endringar i menyen
// Funksjon for å navigere i menyen uten blokkering
void menu_navigate(MultiBoard* board, Menu** menu) {
     7fa:	0f 93       	push	r16
     7fc:	1f 93       	push	r17
     7fe:	cf 93       	push	r28
     800:	df 93       	push	r29
     802:	ec 01       	movw	r28, r24
     804:	8b 01       	movw	r16, r22

	// Oppdater joystick- og menyposisjon
	MultiBoard_Update(board);
     806:	0e 94 bd 05 	call	0xb7a	; 0xb7a <MultiBoard_Update>
	update_menu_position_from_joystick(board, *menu);
     80a:	f8 01       	movw	r30, r16
     80c:	60 81       	ld	r22, Z
     80e:	71 81       	ldd	r23, Z+1	; 0x01
     810:	ce 01       	movw	r24, r28
     812:	0e 94 a6 03 	call	0x74c	; 0x74c <update_menu_position_from_joystick>

	// Sjekk om menyen har endra seg
	if (menu_changed) {
     816:	80 91 22 01 	lds	r24, 0x0122	; 0x800122 <menu_changed>
     81a:	88 23       	and	r24, r24
     81c:	39 f0       	breq	.+14     	; 0x82c <menu_navigate+0x32>
		oled_display_menu(*menu);  // Oppdater OLED med den nye menyen
     81e:	f8 01       	movw	r30, r16
     820:	80 81       	ld	r24, Z
     822:	91 81       	ldd	r25, Z+1	; 0x01
     824:	0e 94 3b 03 	call	0x676	; 0x676 <oled_display_menu>
		menu_changed = 0;  // Nullstill flagget etter oppdatering
     828:	10 92 22 01 	sts	0x0122, r1	; 0x800122 <menu_changed>
	}

	// Sjekk om knappen er trykt for å bekrefte menyval
	if (is_joystick_button_pressed(board)) {
     82c:	8e 81       	ldd	r24, Y+6	; 0x06
     82e:	88 23       	and	r24, r24
     830:	49 f0       	breq	.+18     	; 0x844 <menu_navigate+0x4a>
		oled_clear_screen();
     832:	0e 94 4c 08 	call	0x1098	; 0x1098 <oled_clear_screen>
		handleMenuSelection(board, menu);  // Behandlar menyvalet
     836:	b8 01       	movw	r22, r16
     838:	ce 01       	movw	r24, r28
     83a:	0e 94 93 04 	call	0x926	; 0x926 <handleMenuSelection>
		menu_changed = 1;  // Menyen vil endre seg etter valet
     83e:	81 e0       	ldi	r24, 0x01	; 1
     840:	80 93 22 01 	sts	0x0122, r24	; 0x800122 <menu_changed>
	}
}
     844:	df 91       	pop	r29
     846:	cf 91       	pop	r28
     848:	1f 91       	pop	r17
     84a:	0f 91       	pop	r16
     84c:	08 95       	ret

0000084e <menu_init_from_flash>:
Menu mainMenu;
Menu scrollMenu;
Menu settingsMenu;

// Funksjon for å lese tekststrenger frå PROGMEM og sette dei inn i menyen
void menu_init_from_flash(Menu* menu, const char menuItems[][16], uint8_t num_items) {
     84e:	9f 92       	push	r9
     850:	af 92       	push	r10
     852:	bf 92       	push	r11
     854:	cf 92       	push	r12
     856:	df 92       	push	r13
     858:	ef 92       	push	r14
     85a:	ff 92       	push	r15
     85c:	0f 93       	push	r16
     85e:	1f 93       	push	r17
     860:	cf 93       	push	r28
     862:	df 93       	push	r29
     864:	7c 01       	movw	r14, r24
     866:	d6 2f       	mov	r29, r22
     868:	c7 2f       	mov	r28, r23
     86a:	94 2e       	mov	r9, r20
	// Alloker menyarray
	menu->items = malloc(num_items * sizeof(char*));
     86c:	84 2f       	mov	r24, r20
     86e:	90 e0       	ldi	r25, 0x00	; 0
     870:	88 0f       	add	r24, r24
     872:	99 1f       	adc	r25, r25
     874:	0e 94 5a 09 	call	0x12b4	; 0x12b4 <malloc>
     878:	d7 01       	movw	r26, r14
     87a:	8d 93       	st	X+, r24
     87c:	9c 93       	st	X, r25

	// Les menystrenger frå PROGMEM
	for (uint8_t i = 0; i < num_items; i++) {
     87e:	99 20       	and	r9, r9
     880:	59 f1       	breq	.+86     	; 0x8d8 <menu_init_from_flash+0x8a>
     882:	0d 2f       	mov	r16, r29
     884:	1c 2f       	mov	r17, r28
     886:	cc 24       	eor	r12, r12
     888:	ca 94       	dec	r12
     88a:	c9 0c       	add	r12, r9
     88c:	d1 2c       	mov	r13, r1
     88e:	bf ef       	ldi	r27, 0xFF	; 255
     890:	cb 1a       	sub	r12, r27
     892:	db 0a       	sbc	r13, r27
     894:	cc 0c       	add	r12, r12
     896:	dd 1c       	adc	r13, r13
     898:	c0 e0       	ldi	r28, 0x00	; 0
     89a:	d0 e0       	ldi	r29, 0x00	; 0
		menu->items[i] = malloc(16);  // Alloker plass til kvar menystreng
     89c:	f7 01       	movw	r30, r14
     89e:	a0 80       	ld	r10, Z
     8a0:	b1 80       	ldd	r11, Z+1	; 0x01
     8a2:	ac 0e       	add	r10, r28
     8a4:	bd 1e       	adc	r11, r29
     8a6:	80 e1       	ldi	r24, 0x10	; 16
     8a8:	90 e0       	ldi	r25, 0x00	; 0
     8aa:	0e 94 5a 09 	call	0x12b4	; 0x12b4 <malloc>
     8ae:	d5 01       	movw	r26, r10
     8b0:	8d 93       	st	X+, r24
     8b2:	9c 93       	st	X, r25
		strncpy_P(menu->items[i], (PGM_P)&menuItems[i], 16);  // Kopier frå flash til RAM
     8b4:	d7 01       	movw	r26, r14
     8b6:	ed 91       	ld	r30, X+
     8b8:	fc 91       	ld	r31, X
     8ba:	ec 0f       	add	r30, r28
     8bc:	fd 1f       	adc	r31, r29
     8be:	40 e1       	ldi	r20, 0x10	; 16
     8c0:	50 e0       	ldi	r21, 0x00	; 0
     8c2:	b8 01       	movw	r22, r16
     8c4:	80 81       	ld	r24, Z
     8c6:	91 81       	ldd	r25, Z+1	; 0x01
     8c8:	0e 94 7b 0a 	call	0x14f6	; 0x14f6 <strncpy_P>
     8cc:	22 96       	adiw	r28, 0x02	; 2
     8ce:	00 5f       	subi	r16, 0xF0	; 240
     8d0:	1f 4f       	sbci	r17, 0xFF	; 255
void menu_init_from_flash(Menu* menu, const char menuItems[][16], uint8_t num_items) {
	// Alloker menyarray
	menu->items = malloc(num_items * sizeof(char*));

	// Les menystrenger frå PROGMEM
	for (uint8_t i = 0; i < num_items; i++) {
     8d2:	cc 15       	cp	r28, r12
     8d4:	dd 05       	cpc	r29, r13
     8d6:	11 f7       	brne	.-60     	; 0x89c <menu_init_from_flash+0x4e>
		menu->items[i] = malloc(16);  // Alloker plass til kvar menystreng
		strncpy_P(menu->items[i], (PGM_P)&menuItems[i], 16);  // Kopier frå flash til RAM
	}

	menu->current_position = 0;
     8d8:	f7 01       	movw	r30, r14
     8da:	12 82       	std	Z+2, r1	; 0x02
	menu->prev_position = 0;
     8dc:	13 82       	std	Z+3, r1	; 0x03
	menu->scroll_offset = 0;
     8de:	14 82       	std	Z+4, r1	; 0x04
	menu->num_items = num_items;
     8e0:	95 82       	std	Z+5, r9	; 0x05
}
     8e2:	df 91       	pop	r29
     8e4:	cf 91       	pop	r28
     8e6:	1f 91       	pop	r17
     8e8:	0f 91       	pop	r16
     8ea:	ff 90       	pop	r15
     8ec:	ef 90       	pop	r14
     8ee:	df 90       	pop	r13
     8f0:	cf 90       	pop	r12
     8f2:	bf 90       	pop	r11
     8f4:	af 90       	pop	r10
     8f6:	9f 90       	pop	r9
     8f8:	08 95       	ret

000008fa <initialize_menus>:

// Funksjon for å initialisere alle menyane
void initialize_menus() {
	menu_init_from_flash(&mainMenu, mainMenuItems, 5);
     8fa:	45 e0       	ldi	r20, 0x05	; 5
     8fc:	68 ee       	ldi	r22, 0xE8	; 232
     8fe:	74 e0       	ldi	r23, 0x04	; 4
     900:	8d ec       	ldi	r24, 0xCD	; 205
     902:	92 e0       	ldi	r25, 0x02	; 2
     904:	0e 94 27 04 	call	0x84e	; 0x84e <menu_init_from_flash>
	menu_init_from_flash(&scrollMenu, scrollMenuItems, 20);
     908:	44 e1       	ldi	r20, 0x14	; 20
     90a:	68 ea       	ldi	r22, 0xA8	; 168
     90c:	73 e0       	ldi	r23, 0x03	; 3
     90e:	83 ed       	ldi	r24, 0xD3	; 211
     910:	92 e0       	ldi	r25, 0x02	; 2
     912:	0e 94 27 04 	call	0x84e	; 0x84e <menu_init_from_flash>
	menu_init_from_flash(&settingsMenu, settingsMenuItems, 4);
     916:	44 e0       	ldi	r20, 0x04	; 4
     918:	68 e6       	ldi	r22, 0x68	; 104
     91a:	73 e0       	ldi	r23, 0x03	; 3
     91c:	87 ec       	ldi	r24, 0xC7	; 199
     91e:	92 e0       	ldi	r25, 0x02	; 2
     920:	0e 94 27 04 	call	0x84e	; 0x84e <menu_init_from_flash>
     924:	08 95       	ret

00000926 <handleMenuSelection>:
}
void handleMenuSelection(MultiBoard* board, Menu* menu) {
	switch (currentMenuState) {
     926:	80 91 c2 02 	lds	r24, 0x02C2	; 0x8002c2 <currentMenuState>
     92a:	81 30       	cpi	r24, 0x01	; 1
     92c:	09 f4       	brne	.+2      	; 0x930 <handleMenuSelection+0xa>
     92e:	6e c0       	rjmp	.+220    	; 0xa0c <handleMenuSelection+0xe6>
     930:	20 f0       	brcs	.+8      	; 0x93a <handleMenuSelection+0x14>
     932:	82 30       	cpi	r24, 0x02	; 2
     934:	09 f4       	brne	.+2      	; 0x938 <handleMenuSelection+0x12>
     936:	40 c0       	rjmp	.+128    	; 0x9b8 <handleMenuSelection+0x92>
     938:	08 95       	ret
		case MAIN_MENU:
		switch (menu->current_position) {
     93a:	fb 01       	movw	r30, r22
     93c:	82 81       	ldd	r24, Z+2	; 0x02
     93e:	82 30       	cpi	r24, 0x02	; 2
     940:	d9 f0       	breq	.+54     	; 0x978 <handleMenuSelection+0x52>
     942:	28 f4       	brcc	.+10     	; 0x94e <handleMenuSelection+0x28>
     944:	88 23       	and	r24, r24
     946:	41 f0       	breq	.+16     	; 0x958 <handleMenuSelection+0x32>
     948:	81 30       	cpi	r24, 0x01	; 1
     94a:	61 f0       	breq	.+24     	; 0x964 <handleMenuSelection+0x3e>
     94c:	2f c0       	rjmp	.+94     	; 0x9ac <handleMenuSelection+0x86>
     94e:	83 30       	cpi	r24, 0x03	; 3
     950:	e9 f0       	breq	.+58     	; 0x98c <handleMenuSelection+0x66>
     952:	84 30       	cpi	r24, 0x04	; 4
     954:	29 f1       	breq	.+74     	; 0x9a0 <handleMenuSelection+0x7a>
     956:	2a c0       	rjmp	.+84     	; 0x9ac <handleMenuSelection+0x86>
			case 0:
			// Start spelet
			oled_write_line_to_SRAM(0, "Startar spelet...");
     958:	63 e2       	ldi	r22, 0x23	; 35
     95a:	72 e0       	ldi	r23, 0x02	; 2
     95c:	80 e0       	ldi	r24, 0x00	; 0
     95e:	0e 94 97 07 	call	0xf2e	; 0xf2e <oled_write_line_to_SRAM>
			break;
     962:	08 95       	ret
			case 1:
			// Gå til innstillingar
			currentMenuState = SETTINGS_MENU;
     964:	82 e0       	ldi	r24, 0x02	; 2
     966:	80 93 c2 02 	sts	0x02C2, r24	; 0x8002c2 <currentMenuState>
			current_menu = &settingsMenu;  // Oppdater til innstillingsmeny
     96a:	87 ec       	ldi	r24, 0xC7	; 199
     96c:	92 e0       	ldi	r25, 0x02	; 2
     96e:	90 93 c1 02 	sts	0x02C1, r25	; 0x8002c1 <__data_end+0x1>
     972:	80 93 c0 02 	sts	0x02C0, r24	; 0x8002c0 <__data_end>
			break;
     976:	08 95       	ret
			case 2:
			// Gå til scrollemeny
			currentMenuState = SCROLL_MENU;
     978:	81 e0       	ldi	r24, 0x01	; 1
     97a:	80 93 c2 02 	sts	0x02C2, r24	; 0x8002c2 <currentMenuState>
			current_menu = &scrollMenu;  // Oppdater til scrollemeny
     97e:	83 ed       	ldi	r24, 0xD3	; 211
     980:	92 e0       	ldi	r25, 0x02	; 2
     982:	90 93 c1 02 	sts	0x02C1, r25	; 0x8002c1 <__data_end+0x1>
     986:	80 93 c0 02 	sts	0x02C0, r24	; 0x8002c0 <__data_end>
			break;
     98a:	08 95       	ret
			case 3:
			oled_write_line_to_SRAM(0, "Viser kredittar...");
     98c:	65 e3       	ldi	r22, 0x35	; 53
     98e:	72 e0       	ldi	r23, 0x02	; 2
     990:	80 e0       	ldi	r24, 0x00	; 0
     992:	0e 94 97 07 	call	0xf2e	; 0xf2e <oled_write_line_to_SRAM>
			oled_write_screen_to_SRAM(solkors);  // Vis kredittar på skjermen
     996:	83 ea       	ldi	r24, 0xA3	; 163
     998:	91 e0       	ldi	r25, 0x01	; 1
     99a:	0e 94 33 07 	call	0xe66	; 0xe66 <oled_write_screen_to_SRAM>
			break;
     99e:	08 95       	ret
			case 4:
			oled_write_line_to_SRAM(0, "Avsluttar...");
     9a0:	68 e4       	ldi	r22, 0x48	; 72
     9a2:	72 e0       	ldi	r23, 0x02	; 2
     9a4:	80 e0       	ldi	r24, 0x00	; 0
     9a6:	0e 94 97 07 	call	0xf2e	; 0xf2e <oled_write_line_to_SRAM>
			break;
     9aa:	08 95       	ret
			default:
			oled_write_line_to_SRAM(0, "Ugyldig valg");
     9ac:	65 e5       	ldi	r22, 0x55	; 85
     9ae:	72 e0       	ldi	r23, 0x02	; 2
     9b0:	80 e0       	ldi	r24, 0x00	; 0
     9b2:	0e 94 97 07 	call	0xf2e	; 0xf2e <oled_write_line_to_SRAM>
			break;
     9b6:	08 95       	ret
		}
		break;

		case SETTINGS_MENU:
		// Håndter valg i innstillingsmenyen
		switch (menu->current_position) {
     9b8:	fb 01       	movw	r30, r22
     9ba:	82 81       	ldd	r24, Z+2	; 0x02
     9bc:	81 30       	cpi	r24, 0x01	; 1
     9be:	61 f0       	breq	.+24     	; 0x9d8 <handleMenuSelection+0xb2>
     9c0:	28 f0       	brcs	.+10     	; 0x9cc <handleMenuSelection+0xa6>
     9c2:	82 30       	cpi	r24, 0x02	; 2
     9c4:	79 f0       	breq	.+30     	; 0x9e4 <handleMenuSelection+0xbe>
     9c6:	83 30       	cpi	r24, 0x03	; 3
     9c8:	99 f0       	breq	.+38     	; 0x9f0 <handleMenuSelection+0xca>
     9ca:	1b c0       	rjmp	.+54     	; 0xa02 <handleMenuSelection+0xdc>
			case 0:
			oled_write_line_to_SRAM(0, "Endrer lydinnstillingar...");
     9cc:	62 e6       	ldi	r22, 0x62	; 98
     9ce:	72 e0       	ldi	r23, 0x02	; 2
     9d0:	80 e0       	ldi	r24, 0x00	; 0
     9d2:	0e 94 97 07 	call	0xf2e	; 0xf2e <oled_write_line_to_SRAM>
			break;
     9d6:	08 95       	ret
			case 1:
			oled_write_line_to_SRAM(0, "Endrer lysstyrke...");
     9d8:	6d e7       	ldi	r22, 0x7D	; 125
     9da:	72 e0       	ldi	r23, 0x02	; 2
     9dc:	80 e0       	ldi	r24, 0x00	; 0
     9de:	0e 94 97 07 	call	0xf2e	; 0xf2e <oled_write_line_to_SRAM>
			break;
     9e2:	08 95       	ret
			case 2:
			oled_write_line_to_SRAM(0, "Endrer kontrollar...");
     9e4:	61 e9       	ldi	r22, 0x91	; 145
     9e6:	72 e0       	ldi	r23, 0x02	; 2
     9e8:	80 e0       	ldi	r24, 0x00	; 0
     9ea:	0e 94 97 07 	call	0xf2e	; 0xf2e <oled_write_line_to_SRAM>
			break;
     9ee:	08 95       	ret
			case 3:
			// Gå tilbake til hovudmenyen
			currentMenuState = MAIN_MENU;
     9f0:	10 92 c2 02 	sts	0x02C2, r1	; 0x8002c2 <currentMenuState>
			current_menu = &mainMenu;
     9f4:	8d ec       	ldi	r24, 0xCD	; 205
     9f6:	92 e0       	ldi	r25, 0x02	; 2
     9f8:	90 93 c1 02 	sts	0x02C1, r25	; 0x8002c1 <__data_end+0x1>
     9fc:	80 93 c0 02 	sts	0x02C0, r24	; 0x8002c0 <__data_end>
			break;
     a00:	08 95       	ret
			default:
			printf("Ugyldig valg\n");
     a02:	85 e5       	ldi	r24, 0x55	; 85
     a04:	92 e0       	ldi	r25, 0x02	; 2
     a06:	0e 94 99 0a 	call	0x1532	; 0x1532 <puts>
			break;
     a0a:	08 95       	ret
		}
		break;

		case SCROLL_MENU:
		// Håndter valg i scrollemenyen
		switch (menu->current_position) {
     a0c:	fb 01       	movw	r30, r22
     a0e:	82 81       	ldd	r24, Z+2	; 0x02
     a10:	88 23       	and	r24, r24
     a12:	19 f0       	breq	.+6      	; 0xa1a <handleMenuSelection+0xf4>
     a14:	81 30       	cpi	r24, 0x01	; 1
     a16:	39 f0       	breq	.+14     	; 0xa26 <handleMenuSelection+0x100>
     a18:	0c c0       	rjmp	.+24     	; 0xa32 <handleMenuSelection+0x10c>
			case 0:
			oled_write_line_to_SRAM(0, "Item 1 valgt");
     a1a:	66 ea       	ldi	r22, 0xA6	; 166
     a1c:	72 e0       	ldi	r23, 0x02	; 2
     a1e:	80 e0       	ldi	r24, 0x00	; 0
     a20:	0e 94 97 07 	call	0xf2e	; 0xf2e <oled_write_line_to_SRAM>
			break;
     a24:	0b c0       	rjmp	.+22     	; 0xa3c <handleMenuSelection+0x116>
			case 1:
			oled_write_line_to_SRAM(0, "Item 2 valgt");
     a26:	63 eb       	ldi	r22, 0xB3	; 179
     a28:	72 e0       	ldi	r23, 0x02	; 2
     a2a:	80 e0       	ldi	r24, 0x00	; 0
     a2c:	0e 94 97 07 	call	0xf2e	; 0xf2e <oled_write_line_to_SRAM>
			break;
     a30:	05 c0       	rjmp	.+10     	; 0xa3c <handleMenuSelection+0x116>
			default:
			oled_write_line_to_SRAM(0, "Ugyldig valg");
     a32:	65 e5       	ldi	r22, 0x55	; 85
     a34:	72 e0       	ldi	r23, 0x02	; 2
     a36:	80 e0       	ldi	r24, 0x00	; 0
     a38:	0e 94 97 07 	call	0xf2e	; 0xf2e <oled_write_line_to_SRAM>
			break;
		}
		// Gå tilbake til hovudmenyen
		currentMenuState = MAIN_MENU;
     a3c:	10 92 c2 02 	sts	0x02C2, r1	; 0x8002c2 <currentMenuState>
		current_menu = &mainMenu;
     a40:	8d ec       	ldi	r24, 0xCD	; 205
     a42:	92 e0       	ldi	r25, 0x02	; 2
     a44:	90 93 c1 02 	sts	0x02C1, r25	; 0x8002c1 <__data_end+0x1>
     a48:	80 93 c0 02 	sts	0x02C0, r24	; 0x8002c0 <__data_end>
     a4c:	08 95       	ret

00000a4e <MultiBoard_Init>:
     a4e:	cf 93       	push	r28
     a50:	df 93       	push	r29
     a52:	ec 01       	movw	r28, r24
     a54:	bc 98       	cbi	0x17, 4	; 23
     a56:	bb 98       	cbi	0x17, 3	; 23
     a58:	ba 98       	cbi	0x17, 2	; 23
     a5a:	b9 98       	cbi	0x17, 1	; 23
     a5c:	c2 9a       	sbi	0x18, 2	; 24
     a5e:	60 e8       	ldi	r22, 0x80	; 128
     a60:	80 e0       	ldi	r24, 0x00	; 0
     a62:	94 e1       	ldi	r25, 0x14	; 20
     a64:	0e 94 f0 08 	call	0x11e0	; 0x11e0 <Universal_write>
     a68:	b1 99       	sbic	0x16, 1	; 22
     a6a:	fe cf       	rjmp	.-4      	; 0xa68 <MultiBoard_Init+0x1a>
     a6c:	80 e0       	ldi	r24, 0x00	; 0
     a6e:	94 e1       	ldi	r25, 0x14	; 20
     a70:	0e 94 00 09 	call	0x1200	; 0x1200 <Universal_read>
     a74:	88 87       	std	Y+8, r24	; 0x08
     a76:	80 e0       	ldi	r24, 0x00	; 0
     a78:	94 e1       	ldi	r25, 0x14	; 20
     a7a:	0e 94 00 09 	call	0x1200	; 0x1200 <Universal_read>
     a7e:	8f 83       	std	Y+7, r24	; 0x07
     a80:	1a 82       	std	Y+2, r1	; 0x02
     a82:	1b 82       	std	Y+3, r1	; 0x03
     a84:	1c 82       	std	Y+4, r1	; 0x04
     a86:	1d 82       	std	Y+5, r1	; 0x05
     a88:	19 82       	std	Y+1, r1	; 0x01
     a8a:	18 82       	st	Y, r1
     a8c:	1a 86       	std	Y+10, r1	; 0x0a
     a8e:	19 86       	std	Y+9, r1	; 0x09
     a90:	1c 86       	std	Y+12, r1	; 0x0c
     a92:	1b 86       	std	Y+11, r1	; 0x0b
     a94:	1e 86       	std	Y+14, r1	; 0x0e
     a96:	1d 86       	std	Y+13, r1	; 0x0d
     a98:	1e 82       	std	Y+6, r1	; 0x06
     a9a:	df 91       	pop	r29
     a9c:	cf 91       	pop	r28
     a9e:	08 95       	ret

00000aa0 <MultiBoard_UpdateJoystickAngle>:
     aa0:	fc 01       	movw	r30, r24
     aa2:	61 85       	ldd	r22, Z+9	; 0x09
     aa4:	72 85       	ldd	r23, Z+10	; 0x0a
     aa6:	43 85       	ldd	r20, Z+11	; 0x0b
     aa8:	54 85       	ldd	r21, Z+12	; 0x0c
     aaa:	cb 01       	movw	r24, r22
     aac:	05 96       	adiw	r24, 0x05	; 5
     aae:	0b 97       	sbiw	r24, 0x0b	; 11
     ab0:	38 f4       	brcc	.+14     	; 0xac0 <MultiBoard_UpdateJoystickAngle+0x20>
     ab2:	ca 01       	movw	r24, r20
     ab4:	05 96       	adiw	r24, 0x05	; 5
     ab6:	0b 97       	sbiw	r24, 0x0b	; 11
     ab8:	18 f4       	brcc	.+6      	; 0xac0 <MultiBoard_UpdateJoystickAngle+0x20>
     aba:	16 86       	std	Z+14, r1	; 0x0e
     abc:	15 86       	std	Z+13, r1	; 0x0d
     abe:	08 95       	ret
     ac0:	87 2f       	mov	r24, r23
     ac2:	80 95       	com	r24
     ac4:	88 1f       	adc	r24, r24
     ac6:	88 27       	eor	r24, r24
     ac8:	88 1f       	adc	r24, r24
     aca:	90 e0       	ldi	r25, 0x00	; 0
     acc:	88 0f       	add	r24, r24
     ace:	99 1f       	adc	r25, r25
     ad0:	25 2f       	mov	r18, r21
     ad2:	20 95       	com	r18
     ad4:	22 1f       	adc	r18, r18
     ad6:	22 27       	eor	r18, r18
     ad8:	22 1f       	adc	r18, r18
     ada:	82 2b       	or	r24, r18
     adc:	81 30       	cpi	r24, 0x01	; 1
     ade:	91 05       	cpc	r25, r1
     ae0:	b9 f0       	breq	.+46     	; 0xb10 <MultiBoard_UpdateJoystickAngle+0x70>
     ae2:	1c f4       	brge	.+6      	; 0xaea <MultiBoard_UpdateJoystickAngle+0x4a>
     ae4:	89 2b       	or	r24, r25
     ae6:	29 f1       	breq	.+74     	; 0xb32 <MultiBoard_UpdateJoystickAngle+0x92>
     ae8:	45 c0       	rjmp	.+138    	; 0xb74 <MultiBoard_UpdateJoystickAngle+0xd4>
     aea:	82 30       	cpi	r24, 0x02	; 2
     aec:	91 05       	cpc	r25, r1
     aee:	99 f1       	breq	.+102    	; 0xb56 <MultiBoard_UpdateJoystickAngle+0xb6>
     af0:	03 97       	sbiw	r24, 0x03	; 3
     af2:	09 f0       	breq	.+2      	; 0xaf6 <MultiBoard_UpdateJoystickAngle+0x56>
     af4:	3f c0       	rjmp	.+126    	; 0xb74 <MultiBoard_UpdateJoystickAngle+0xd4>
     af6:	2a e5       	ldi	r18, 0x5A	; 90
     af8:	24 9f       	mul	r18, r20
     afa:	c0 01       	movw	r24, r0
     afc:	25 9f       	mul	r18, r21
     afe:	90 0d       	add	r25, r0
     b00:	11 24       	eor	r1, r1
     b02:	64 0f       	add	r22, r20
     b04:	75 1f       	adc	r23, r21
     b06:	0e 94 10 09 	call	0x1220	; 0x1220 <__divmodhi4>
     b0a:	76 87       	std	Z+14, r23	; 0x0e
     b0c:	65 87       	std	Z+13, r22	; 0x0d
     b0e:	08 95       	ret
     b10:	26 ea       	ldi	r18, 0xA6	; 166
     b12:	26 03       	mulsu	r18, r22
     b14:	c0 01       	movw	r24, r0
     b16:	27 9f       	mul	r18, r23
     b18:	90 0d       	add	r25, r0
     b1a:	11 24       	eor	r1, r1
     b1c:	9a 01       	movw	r18, r20
     b1e:	26 1b       	sub	r18, r22
     b20:	37 0b       	sbc	r19, r23
     b22:	b9 01       	movw	r22, r18
     b24:	0e 94 10 09 	call	0x1220	; 0x1220 <__divmodhi4>
     b28:	66 5a       	subi	r22, 0xA6	; 166
     b2a:	7f 4f       	sbci	r23, 0xFF	; 255
     b2c:	76 87       	std	Z+14, r23	; 0x0e
     b2e:	65 87       	std	Z+13, r22	; 0x0d
     b30:	08 95       	ret
     b32:	26 ea       	ldi	r18, 0xA6	; 166
     b34:	24 03       	mulsu	r18, r20
     b36:	c0 01       	movw	r24, r0
     b38:	25 9f       	mul	r18, r21
     b3a:	90 0d       	add	r25, r0
     b3c:	11 24       	eor	r1, r1
     b3e:	71 95       	neg	r23
     b40:	61 95       	neg	r22
     b42:	71 09       	sbc	r23, r1
     b44:	64 1b       	sub	r22, r20
     b46:	75 0b       	sbc	r23, r21
     b48:	0e 94 10 09 	call	0x1220	; 0x1220 <__divmodhi4>
     b4c:	6c 54       	subi	r22, 0x4C	; 76
     b4e:	7f 4f       	sbci	r23, 0xFF	; 255
     b50:	76 87       	std	Z+14, r23	; 0x0e
     b52:	65 87       	std	Z+13, r22	; 0x0d
     b54:	08 95       	ret
     b56:	2a e5       	ldi	r18, 0x5A	; 90
     b58:	26 9f       	mul	r18, r22
     b5a:	c0 01       	movw	r24, r0
     b5c:	27 9f       	mul	r18, r23
     b5e:	90 0d       	add	r25, r0
     b60:	11 24       	eor	r1, r1
     b62:	64 1b       	sub	r22, r20
     b64:	75 0b       	sbc	r23, r21
     b66:	0e 94 10 09 	call	0x1220	; 0x1220 <__divmodhi4>
     b6a:	62 5f       	subi	r22, 0xF2	; 242
     b6c:	7e 4f       	sbci	r23, 0xFE	; 254
     b6e:	76 87       	std	Z+14, r23	; 0x0e
     b70:	65 87       	std	Z+13, r22	; 0x0d
     b72:	08 95       	ret
     b74:	16 86       	std	Z+14, r1	; 0x0e
     b76:	15 86       	std	Z+13, r1	; 0x0d
     b78:	08 95       	ret

00000b7a <MultiBoard_Update>:
     b7a:	cf 93       	push	r28
     b7c:	df 93       	push	r29
     b7e:	ec 01       	movw	r28, r24
     b80:	60 e0       	ldi	r22, 0x00	; 0
     b82:	80 e0       	ldi	r24, 0x00	; 0
     b84:	94 e1       	ldi	r25, 0x14	; 20
     b86:	0e 94 f0 08 	call	0x11e0	; 0x11e0 <Universal_write>
     b8a:	b1 99       	sbic	0x16, 1	; 22
     b8c:	fe cf       	rjmp	.-4      	; 0xb8a <MultiBoard_Update+0x10>
     b8e:	80 e0       	ldi	r24, 0x00	; 0
     b90:	94 e1       	ldi	r25, 0x14	; 20
     b92:	0e 94 00 09 	call	0x1200	; 0x1200 <Universal_read>
     b96:	88 83       	st	Y, r24
     b98:	80 e0       	ldi	r24, 0x00	; 0
     b9a:	94 e1       	ldi	r25, 0x14	; 20
     b9c:	0e 94 00 09 	call	0x1200	; 0x1200 <Universal_read>
     ba0:	89 83       	std	Y+1, r24	; 0x01
     ba2:	80 e0       	ldi	r24, 0x00	; 0
     ba4:	94 e1       	ldi	r25, 0x14	; 20
     ba6:	0e 94 00 09 	call	0x1200	; 0x1200 <Universal_read>
     baa:	8b 83       	std	Y+3, r24	; 0x03
     bac:	80 e0       	ldi	r24, 0x00	; 0
     bae:	94 e1       	ldi	r25, 0x14	; 20
     bb0:	0e 94 00 09 	call	0x1200	; 0x1200 <Universal_read>
     bb4:	8a 83       	std	Y+2, r24	; 0x02
     bb6:	81 e0       	ldi	r24, 0x01	; 1
     bb8:	b4 9b       	sbis	0x16, 4	; 22
     bba:	80 e0       	ldi	r24, 0x00	; 0
     bbc:	8c 83       	std	Y+4, r24	; 0x04
     bbe:	81 e0       	ldi	r24, 0x01	; 1
     bc0:	b3 9b       	sbis	0x16, 3	; 22
     bc2:	80 e0       	ldi	r24, 0x00	; 0
     bc4:	8d 83       	std	Y+5, r24	; 0x05
     bc6:	81 e0       	ldi	r24, 0x01	; 1
     bc8:	b2 99       	sbic	0x16, 2	; 22
     bca:	80 e0       	ldi	r24, 0x00	; 0
     bcc:	8e 83       	std	Y+6, r24	; 0x06
     bce:	88 81       	ld	r24, Y
     bd0:	90 e0       	ldi	r25, 0x00	; 0
     bd2:	28 85       	ldd	r18, Y+8	; 0x08
     bd4:	82 1b       	sub	r24, r18
     bd6:	91 09       	sbc	r25, r1
     bd8:	9c 87       	std	Y+12, r25	; 0x0c
     bda:	8b 87       	std	Y+11, r24	; 0x0b
     bdc:	89 81       	ldd	r24, Y+1	; 0x01
     bde:	90 e0       	ldi	r25, 0x00	; 0
     be0:	2f 81       	ldd	r18, Y+7	; 0x07
     be2:	82 1b       	sub	r24, r18
     be4:	91 09       	sbc	r25, r1
     be6:	9a 87       	std	Y+10, r25	; 0x0a
     be8:	89 87       	std	Y+9, r24	; 0x09
     bea:	ce 01       	movw	r24, r28
     bec:	0e 94 50 05 	call	0xaa0	; 0xaa0 <MultiBoard_UpdateJoystickAngle>
     bf0:	df 91       	pop	r29
     bf2:	cf 91       	pop	r28
     bf4:	08 95       	ret

00000bf6 <oled_write_command>:
	// Gå gjennom hele bufferet og skriv til SRAM
	for (uint16_t i = 0; i < 1024; i++) {
		// Skriv hver byte fra bufferet til SRAM
		SRAM_write(sram_address + i, screen_1024[i]);
	}
}
     bf6:	68 2f       	mov	r22, r24
     bf8:	80 e0       	ldi	r24, 0x00	; 0
     bfa:	90 e0       	ldi	r25, 0x00	; 0
     bfc:	0e 94 f0 08 	call	0x11e0	; 0x11e0 <Universal_write>
     c00:	08 95       	ret

00000c02 <oled_write_data>:
     c02:	ef 92       	push	r14
     c04:	ff 92       	push	r15
     c06:	0f 93       	push	r16
     c08:	1f 93       	push	r17
     c0a:	cf 93       	push	r28
     c0c:	df 93       	push	r29
     c0e:	61 15       	cp	r22, r1
     c10:	71 05       	cpc	r23, r1
     c12:	81 f0       	breq	.+32     	; 0xc34 <oled_write_data+0x32>
     c14:	7c 01       	movw	r14, r24
     c16:	8c 01       	movw	r16, r24
     c18:	e6 0e       	add	r14, r22
     c1a:	f7 1e       	adc	r15, r23
     c1c:	c0 e0       	ldi	r28, 0x00	; 0
     c1e:	d2 e0       	ldi	r29, 0x02	; 2
     c20:	f8 01       	movw	r30, r16
     c22:	61 91       	ld	r22, Z+
     c24:	8f 01       	movw	r16, r30
     c26:	ce 01       	movw	r24, r28
     c28:	0e 94 f0 08 	call	0x11e0	; 0x11e0 <Universal_write>
     c2c:	21 96       	adiw	r28, 0x01	; 1
     c2e:	0e 15       	cp	r16, r14
     c30:	1f 05       	cpc	r17, r15
     c32:	b1 f7       	brne	.-20     	; 0xc20 <oled_write_data+0x1e>
     c34:	df 91       	pop	r29
     c36:	cf 91       	pop	r28
     c38:	1f 91       	pop	r17
     c3a:	0f 91       	pop	r16
     c3c:	ff 90       	pop	r15
     c3e:	ef 90       	pop	r14
     c40:	08 95       	ret

00000c42 <oled_set_page>:
     c42:	87 70       	andi	r24, 0x07	; 7
     c44:	80 6b       	ori	r24, 0xB0	; 176
     c46:	0e 94 fb 05 	call	0xbf6	; 0xbf6 <oled_write_command>
     c4a:	08 95       	ret

00000c4c <oled_set_column>:
     c4c:	cf 93       	push	r28
     c4e:	c8 2f       	mov	r28, r24
     c50:	82 95       	swap	r24
     c52:	8f 70       	andi	r24, 0x0F	; 15
     c54:	80 61       	ori	r24, 0x10	; 16
     c56:	0e 94 fb 05 	call	0xbf6	; 0xbf6 <oled_write_command>
     c5a:	8c 2f       	mov	r24, r28
     c5c:	8f 70       	andi	r24, 0x0F	; 15
     c5e:	0e 94 fb 05 	call	0xbf6	; 0xbf6 <oled_write_command>
     c62:	cf 91       	pop	r28
     c64:	08 95       	ret

00000c66 <oled_home>:
     c66:	80 e0       	ldi	r24, 0x00	; 0
     c68:	0e 94 21 06 	call	0xc42	; 0xc42 <oled_set_page>
     c6c:	80 e0       	ldi	r24, 0x00	; 0
     c6e:	0e 94 26 06 	call	0xc4c	; 0xc4c <oled_set_column>
     c72:	08 95       	ret

00000c74 <oled_init>:
     c74:	8e ea       	ldi	r24, 0xAE	; 174
     c76:	0e 94 fb 05 	call	0xbf6	; 0xbf6 <oled_write_command>
     c7a:	81 ea       	ldi	r24, 0xA1	; 161
     c7c:	0e 94 fb 05 	call	0xbf6	; 0xbf6 <oled_write_command>
     c80:	8a ed       	ldi	r24, 0xDA	; 218
     c82:	0e 94 fb 05 	call	0xbf6	; 0xbf6 <oled_write_command>
     c86:	82 e1       	ldi	r24, 0x12	; 18
     c88:	0e 94 fb 05 	call	0xbf6	; 0xbf6 <oled_write_command>
     c8c:	88 ec       	ldi	r24, 0xC8	; 200
     c8e:	0e 94 fb 05 	call	0xbf6	; 0xbf6 <oled_write_command>
     c92:	88 ea       	ldi	r24, 0xA8	; 168
     c94:	0e 94 fb 05 	call	0xbf6	; 0xbf6 <oled_write_command>
     c98:	8f e3       	ldi	r24, 0x3F	; 63
     c9a:	0e 94 fb 05 	call	0xbf6	; 0xbf6 <oled_write_command>
     c9e:	85 ed       	ldi	r24, 0xD5	; 213
     ca0:	0e 94 fb 05 	call	0xbf6	; 0xbf6 <oled_write_command>
     ca4:	80 e8       	ldi	r24, 0x80	; 128
     ca6:	0e 94 fb 05 	call	0xbf6	; 0xbf6 <oled_write_command>
     caa:	81 e8       	ldi	r24, 0x81	; 129
     cac:	0e 94 fb 05 	call	0xbf6	; 0xbf6 <oled_write_command>
     cb0:	80 e5       	ldi	r24, 0x50	; 80
     cb2:	0e 94 fb 05 	call	0xbf6	; 0xbf6 <oled_write_command>
     cb6:	89 ed       	ldi	r24, 0xD9	; 217
     cb8:	0e 94 fb 05 	call	0xbf6	; 0xbf6 <oled_write_command>
     cbc:	81 e2       	ldi	r24, 0x21	; 33
     cbe:	0e 94 fb 05 	call	0xbf6	; 0xbf6 <oled_write_command>
     cc2:	80 e2       	ldi	r24, 0x20	; 32
     cc4:	0e 94 fb 05 	call	0xbf6	; 0xbf6 <oled_write_command>
     cc8:	82 e0       	ldi	r24, 0x02	; 2
     cca:	0e 94 fb 05 	call	0xbf6	; 0xbf6 <oled_write_command>
     cce:	8b ed       	ldi	r24, 0xDB	; 219
     cd0:	0e 94 fb 05 	call	0xbf6	; 0xbf6 <oled_write_command>
     cd4:	80 e3       	ldi	r24, 0x30	; 48
     cd6:	0e 94 fb 05 	call	0xbf6	; 0xbf6 <oled_write_command>
     cda:	8d ea       	ldi	r24, 0xAD	; 173
     cdc:	0e 94 fb 05 	call	0xbf6	; 0xbf6 <oled_write_command>
     ce0:	80 e0       	ldi	r24, 0x00	; 0
     ce2:	0e 94 fb 05 	call	0xbf6	; 0xbf6 <oled_write_command>
     ce6:	84 ea       	ldi	r24, 0xA4	; 164
     ce8:	0e 94 fb 05 	call	0xbf6	; 0xbf6 <oled_write_command>
     cec:	86 ea       	ldi	r24, 0xA6	; 166
     cee:	0e 94 fb 05 	call	0xbf6	; 0xbf6 <oled_write_command>
     cf2:	8f ea       	ldi	r24, 0xAF	; 175
     cf4:	0e 94 fb 05 	call	0xbf6	; 0xbf6 <oled_write_command>
     cf8:	08 95       	ret

00000cfa <oled_data_from_SRAM>:
     cfa:	8f 92       	push	r8
     cfc:	9f 92       	push	r9
     cfe:	bf 92       	push	r11
     d00:	cf 92       	push	r12
     d02:	df 92       	push	r13
     d04:	ef 92       	push	r14
     d06:	ff 92       	push	r15
     d08:	0f 93       	push	r16
     d0a:	1f 93       	push	r17
     d0c:	cf 93       	push	r28
     d0e:	df 93       	push	r29
     d10:	cd b7       	in	r28, 0x3d	; 61
     d12:	de b7       	in	r29, 0x3e	; 62
     d14:	c0 58       	subi	r28, 0x80	; 128
     d16:	d1 09       	sbc	r29, r1
     d18:	0f b6       	in	r0, 0x3f	; 63
     d1a:	f8 94       	cli
     d1c:	de bf       	out	0x3e, r29	; 62
     d1e:	0f be       	out	0x3f, r0	; 63
     d20:	cd bf       	out	0x3d, r28	; 61
     d22:	ce 01       	movw	r24, r28
     d24:	01 96       	adiw	r24, 0x01	; 1
     d26:	4c 01       	movw	r8, r24
     d28:	ee 24       	eor	r14, r14
     d2a:	ff 24       	eor	r15, r15
     d2c:	e8 1a       	sub	r14, r24
     d2e:	f9 0a       	sbc	r15, r25
     d30:	b1 2c       	mov	r11, r1
     d32:	6e 01       	movw	r12, r28
     d34:	91 e8       	ldi	r25, 0x81	; 129
     d36:	c9 0e       	add	r12, r25
     d38:	d1 1c       	adc	r13, r1
     d3a:	8b 2d       	mov	r24, r11
     d3c:	0e 94 21 06 	call	0xc42	; 0xc42 <oled_set_page>
     d40:	80 e0       	ldi	r24, 0x00	; 0
     d42:	0e 94 26 06 	call	0xc4c	; 0xc4c <oled_set_column>
     d46:	84 01       	movw	r16, r8
     d48:	c8 01       	movw	r24, r16
     d4a:	8e 0d       	add	r24, r14
     d4c:	9f 1d       	adc	r25, r15
     d4e:	0e 94 e0 08 	call	0x11c0	; 0x11c0 <SRAM_read>
     d52:	f8 01       	movw	r30, r16
     d54:	81 93       	st	Z+, r24
     d56:	8f 01       	movw	r16, r30
     d58:	ec 15       	cp	r30, r12
     d5a:	fd 05       	cpc	r31, r13
     d5c:	a9 f7       	brne	.-22     	; 0xd48 <oled_data_from_SRAM+0x4e>
     d5e:	60 e8       	ldi	r22, 0x80	; 128
     d60:	70 e0       	ldi	r23, 0x00	; 0
     d62:	ce 01       	movw	r24, r28
     d64:	01 96       	adiw	r24, 0x01	; 1
     d66:	0e 94 01 06 	call	0xc02	; 0xc02 <oled_write_data>
     d6a:	b3 94       	inc	r11
     d6c:	f0 e8       	ldi	r31, 0x80	; 128
     d6e:	ef 0e       	add	r14, r31
     d70:	f1 1c       	adc	r15, r1
     d72:	88 e0       	ldi	r24, 0x08	; 8
     d74:	b8 12       	cpse	r11, r24
     d76:	e1 cf       	rjmp	.-62     	; 0xd3a <oled_data_from_SRAM+0x40>
     d78:	c0 58       	subi	r28, 0x80	; 128
     d7a:	df 4f       	sbci	r29, 0xFF	; 255
     d7c:	0f b6       	in	r0, 0x3f	; 63
     d7e:	f8 94       	cli
     d80:	de bf       	out	0x3e, r29	; 62
     d82:	0f be       	out	0x3f, r0	; 63
     d84:	cd bf       	out	0x3d, r28	; 61
     d86:	df 91       	pop	r29
     d88:	cf 91       	pop	r28
     d8a:	1f 91       	pop	r17
     d8c:	0f 91       	pop	r16
     d8e:	ff 90       	pop	r15
     d90:	ef 90       	pop	r14
     d92:	df 90       	pop	r13
     d94:	cf 90       	pop	r12
     d96:	bf 90       	pop	r11
     d98:	9f 90       	pop	r9
     d9a:	8f 90       	pop	r8
     d9c:	08 95       	ret

00000d9e <write_string_to_SRAM>:
     d9e:	8f 92       	push	r8
     da0:	9f 92       	push	r9
     da2:	af 92       	push	r10
     da4:	bf 92       	push	r11
     da6:	cf 92       	push	r12
     da8:	df 92       	push	r13
     daa:	ef 92       	push	r14
     dac:	ff 92       	push	r15
     dae:	0f 93       	push	r16
     db0:	1f 93       	push	r17
     db2:	cf 93       	push	r28
     db4:	df 93       	push	r29
     db6:	5c 01       	movw	r10, r24
     db8:	00 e0       	ldi	r16, 0x00	; 0
     dba:	10 e0       	ldi	r17, 0x00	; 0
     dbc:	0f 2e       	mov	r0, r31
     dbe:	f0 e7       	ldi	r31, 0x70	; 112
     dc0:	8f 2e       	mov	r8, r31
     dc2:	f0 e0       	ldi	r31, 0x00	; 0
     dc4:	9f 2e       	mov	r9, r31
     dc6:	f0 2d       	mov	r31, r0
     dc8:	0f 2e       	mov	r0, r31
     dca:	f8 e7       	ldi	r31, 0x78	; 120
     dcc:	cf 2e       	mov	r12, r31
     dce:	f0 e0       	ldi	r31, 0x00	; 0
     dd0:	df 2e       	mov	r13, r31
     dd2:	f0 2d       	mov	r31, r0
     dd4:	d5 01       	movw	r26, r10
     dd6:	8d 91       	ld	r24, X+
     dd8:	5d 01       	movw	r10, r26
     dda:	80 52       	subi	r24, 0x20	; 32
     ddc:	80 36       	cpi	r24, 0x60	; 96
     dde:	f8 f4       	brcc	.+62     	; 0xe1e <write_string_to_SRAM+0x80>
     de0:	c0 e0       	ldi	r28, 0x00	; 0
     de2:	d0 e0       	ldi	r29, 0x00	; 0
     de4:	7d 01       	movw	r14, r26
     de6:	b1 e0       	ldi	r27, 0x01	; 1
     de8:	eb 1a       	sub	r14, r27
     dea:	f1 08       	sbc	r15, r1
     dec:	d7 01       	movw	r26, r14
     dee:	ec 91       	ld	r30, X
     df0:	f0 e0       	ldi	r31, 0x00	; 0
     df2:	b0 97       	sbiw	r30, 0x20	; 32
     df4:	ee 0f       	add	r30, r30
     df6:	ff 1f       	adc	r31, r31
     df8:	ee 0f       	add	r30, r30
     dfa:	ff 1f       	adc	r31, r31
     dfc:	ee 0f       	add	r30, r30
     dfe:	ff 1f       	adc	r31, r31
     e00:	ec 0f       	add	r30, r28
     e02:	fd 1f       	adc	r31, r29
     e04:	e0 59       	subi	r30, 0x90	; 144
     e06:	ff 4f       	sbci	r31, 0xFF	; 255
     e08:	64 91       	lpm	r22, Z
     e0a:	ce 01       	movw	r24, r28
     e0c:	80 0f       	add	r24, r16
     e0e:	91 1f       	adc	r25, r17
     e10:	0e 94 d0 08 	call	0x11a0	; 0x11a0 <SRAM_write>
     e14:	21 96       	adiw	r28, 0x01	; 1
     e16:	c8 30       	cpi	r28, 0x08	; 8
     e18:	d1 05       	cpc	r29, r1
     e1a:	41 f7       	brne	.-48     	; 0xdec <write_string_to_SRAM+0x4e>
     e1c:	10 c0       	rjmp	.+32     	; 0xe3e <write_string_to_SRAM+0xa0>
     e1e:	c0 e7       	ldi	r28, 0x70	; 112
     e20:	d0 e0       	ldi	r29, 0x00	; 0
     e22:	78 01       	movw	r14, r16
     e24:	e8 18       	sub	r14, r8
     e26:	f9 08       	sbc	r15, r9
     e28:	fe 01       	movw	r30, r28
     e2a:	64 91       	lpm	r22, Z
     e2c:	c7 01       	movw	r24, r14
     e2e:	8c 0f       	add	r24, r28
     e30:	9d 1f       	adc	r25, r29
     e32:	0e 94 d0 08 	call	0x11a0	; 0x11a0 <SRAM_write>
     e36:	21 96       	adiw	r28, 0x01	; 1
     e38:	cc 16       	cp	r12, r28
     e3a:	dd 06       	cpc	r13, r29
     e3c:	a9 f7       	brne	.-22     	; 0xe28 <write_string_to_SRAM+0x8a>
     e3e:	08 5f       	subi	r16, 0xF8	; 248
     e40:	1f 4f       	sbci	r17, 0xFF	; 255
     e42:	01 15       	cp	r16, r1
     e44:	f4 e0       	ldi	r31, 0x04	; 4
     e46:	1f 07       	cpc	r17, r31
     e48:	09 f0       	breq	.+2      	; 0xe4c <write_string_to_SRAM+0xae>
     e4a:	c4 cf       	rjmp	.-120    	; 0xdd4 <write_string_to_SRAM+0x36>
     e4c:	df 91       	pop	r29
     e4e:	cf 91       	pop	r28
     e50:	1f 91       	pop	r17
     e52:	0f 91       	pop	r16
     e54:	ff 90       	pop	r15
     e56:	ef 90       	pop	r14
     e58:	df 90       	pop	r13
     e5a:	cf 90       	pop	r12
     e5c:	bf 90       	pop	r11
     e5e:	af 90       	pop	r10
     e60:	9f 90       	pop	r9
     e62:	8f 90       	pop	r8
     e64:	08 95       	ret

00000e66 <oled_write_screen_to_SRAM>:
     e66:	8f 92       	push	r8
     e68:	9f 92       	push	r9
     e6a:	af 92       	push	r10
     e6c:	bf 92       	push	r11
     e6e:	cf 92       	push	r12
     e70:	df 92       	push	r13
     e72:	ef 92       	push	r14
     e74:	ff 92       	push	r15
     e76:	0f 93       	push	r16
     e78:	1f 93       	push	r17
     e7a:	cf 93       	push	r28
     e7c:	df 93       	push	r29
     e7e:	5c 01       	movw	r10, r24
     e80:	00 e0       	ldi	r16, 0x00	; 0
     e82:	10 e0       	ldi	r17, 0x00	; 0
     e84:	0f 2e       	mov	r0, r31
     e86:	f0 e7       	ldi	r31, 0x70	; 112
     e88:	8f 2e       	mov	r8, r31
     e8a:	f0 e0       	ldi	r31, 0x00	; 0
     e8c:	9f 2e       	mov	r9, r31
     e8e:	f0 2d       	mov	r31, r0
     e90:	0f 2e       	mov	r0, r31
     e92:	f8 e7       	ldi	r31, 0x78	; 120
     e94:	cf 2e       	mov	r12, r31
     e96:	f0 e0       	ldi	r31, 0x00	; 0
     e98:	df 2e       	mov	r13, r31
     e9a:	f0 2d       	mov	r31, r0
     e9c:	d5 01       	movw	r26, r10
     e9e:	8d 91       	ld	r24, X+
     ea0:	5d 01       	movw	r10, r26
     ea2:	80 52       	subi	r24, 0x20	; 32
     ea4:	80 36       	cpi	r24, 0x60	; 96
     ea6:	f8 f4       	brcc	.+62     	; 0xee6 <oled_write_screen_to_SRAM+0x80>
     ea8:	c0 e0       	ldi	r28, 0x00	; 0
     eaa:	d0 e0       	ldi	r29, 0x00	; 0
     eac:	7d 01       	movw	r14, r26
     eae:	b1 e0       	ldi	r27, 0x01	; 1
     eb0:	eb 1a       	sub	r14, r27
     eb2:	f1 08       	sbc	r15, r1
     eb4:	d7 01       	movw	r26, r14
     eb6:	ec 91       	ld	r30, X
     eb8:	f0 e0       	ldi	r31, 0x00	; 0
     eba:	b0 97       	sbiw	r30, 0x20	; 32
     ebc:	ee 0f       	add	r30, r30
     ebe:	ff 1f       	adc	r31, r31
     ec0:	ee 0f       	add	r30, r30
     ec2:	ff 1f       	adc	r31, r31
     ec4:	ee 0f       	add	r30, r30
     ec6:	ff 1f       	adc	r31, r31
     ec8:	ec 0f       	add	r30, r28
     eca:	fd 1f       	adc	r31, r29
     ecc:	e0 59       	subi	r30, 0x90	; 144
     ece:	ff 4f       	sbci	r31, 0xFF	; 255
     ed0:	64 91       	lpm	r22, Z
     ed2:	ce 01       	movw	r24, r28
     ed4:	80 0f       	add	r24, r16
     ed6:	91 1f       	adc	r25, r17
     ed8:	0e 94 d0 08 	call	0x11a0	; 0x11a0 <SRAM_write>
     edc:	21 96       	adiw	r28, 0x01	; 1
     ede:	c8 30       	cpi	r28, 0x08	; 8
     ee0:	d1 05       	cpc	r29, r1
     ee2:	41 f7       	brne	.-48     	; 0xeb4 <oled_write_screen_to_SRAM+0x4e>
     ee4:	10 c0       	rjmp	.+32     	; 0xf06 <oled_write_screen_to_SRAM+0xa0>
     ee6:	c0 e7       	ldi	r28, 0x70	; 112
     ee8:	d0 e0       	ldi	r29, 0x00	; 0
     eea:	78 01       	movw	r14, r16
     eec:	e8 18       	sub	r14, r8
     eee:	f9 08       	sbc	r15, r9
     ef0:	fe 01       	movw	r30, r28
     ef2:	64 91       	lpm	r22, Z
     ef4:	c7 01       	movw	r24, r14
     ef6:	8c 0f       	add	r24, r28
     ef8:	9d 1f       	adc	r25, r29
     efa:	0e 94 d0 08 	call	0x11a0	; 0x11a0 <SRAM_write>
     efe:	21 96       	adiw	r28, 0x01	; 1
     f00:	cc 16       	cp	r12, r28
     f02:	dd 06       	cpc	r13, r29
     f04:	a9 f7       	brne	.-22     	; 0xef0 <oled_write_screen_to_SRAM+0x8a>
     f06:	08 5f       	subi	r16, 0xF8	; 248
     f08:	1f 4f       	sbci	r17, 0xFF	; 255
     f0a:	01 15       	cp	r16, r1
     f0c:	f4 e0       	ldi	r31, 0x04	; 4
     f0e:	1f 07       	cpc	r17, r31
     f10:	09 f0       	breq	.+2      	; 0xf14 <oled_write_screen_to_SRAM+0xae>
     f12:	c4 cf       	rjmp	.-120    	; 0xe9c <oled_write_screen_to_SRAM+0x36>
     f14:	df 91       	pop	r29
     f16:	cf 91       	pop	r28
     f18:	1f 91       	pop	r17
     f1a:	0f 91       	pop	r16
     f1c:	ff 90       	pop	r15
     f1e:	ef 90       	pop	r14
     f20:	df 90       	pop	r13
     f22:	cf 90       	pop	r12
     f24:	bf 90       	pop	r11
     f26:	af 90       	pop	r10
     f28:	9f 90       	pop	r9
     f2a:	8f 90       	pop	r8
     f2c:	08 95       	ret

00000f2e <oled_write_line_to_SRAM>:
void oled_write_line_to_SRAM(uint8_t line, const char* data) {
     f2e:	8f 92       	push	r8
     f30:	9f 92       	push	r9
     f32:	bf 92       	push	r11
     f34:	cf 92       	push	r12
     f36:	df 92       	push	r13
     f38:	ef 92       	push	r14
     f3a:	ff 92       	push	r15
     f3c:	0f 93       	push	r16
     f3e:	1f 93       	push	r17
     f40:	cf 93       	push	r28
     f42:	df 93       	push	r29
	if (line >= 8) {
     f44:	88 30       	cpi	r24, 0x08	; 8
     f46:	08 f0       	brcs	.+2      	; 0xf4a <oled_write_line_to_SRAM+0x1c>
     f48:	5e c0       	rjmp	.+188    	; 0x1006 <oled_write_line_to_SRAM+0xd8>
     f4a:	fb 01       	movw	r30, r22
		return; 
	}
	uint8_t max_chars_per_line = 16;
	uint16_t sram_address = line * 128;  // Hver linje er 128 bytes, 16 karakterer à 8 pixels
     f4c:	90 e8       	ldi	r25, 0x80	; 128
     f4e:	89 9f       	mul	r24, r25
     f50:	60 01       	movw	r12, r0
     f52:	11 24       	eor	r1, r1
	uint8_t i = 0; // så den ikkje døyr når vi går ut av forloopen (brukast igjen)
	// Skriv karakterene til SRAM, men ikke mer enn 16
	for (; i < max_chars_per_line; i++) {
		if (data[i] == '\0') {
     f54:	80 81       	ld	r24, Z
     f56:	88 23       	and	r24, r24
     f58:	09 f4       	brne	.+2      	; 0xf5c <oled_write_line_to_SRAM+0x2e>
     f5a:	47 c0       	rjmp	.+142    	; 0xfea <oled_write_line_to_SRAM+0xbc>
     f5c:	76 01       	movw	r14, r12
     f5e:	8b 01       	movw	r16, r22
     f60:	b1 2c       	mov	r11, r1
     f62:	0a c0       	rjmp	.+20     	; 0xf78 <oled_write_line_to_SRAM+0x4a>
     f64:	0f 5f       	subi	r16, 0xFF	; 255
     f66:	1f 4f       	sbci	r17, 0xFF	; 255
     f68:	a8 e0       	ldi	r26, 0x08	; 8
     f6a:	ea 0e       	add	r14, r26
     f6c:	f1 1c       	adc	r15, r1
     f6e:	f8 01       	movw	r30, r16
     f70:	80 81       	ld	r24, Z
     f72:	88 23       	and	r24, r24
     f74:	09 f4       	brne	.+2      	; 0xf78 <oled_write_line_to_SRAM+0x4a>
     f76:	3a c0       	rjmp	.+116    	; 0xfec <oled_write_line_to_SRAM+0xbe>
     f78:	c0 e0       	ldi	r28, 0x00	; 0
     f7a:	d0 e0       	ldi	r29, 0x00	; 0
			break;  // Avslutt hvis vi når slutten av data
		}
		for (uint8_t j = 0; j < 8; j++) {
			SRAM_write(sram_address + (i * 8) + j, pgm_read_byte(&font8x8_basic[(data[i] - 32) * 8 + j]));
     f7c:	d8 01       	movw	r26, r16
     f7e:	ec 91       	ld	r30, X
     f80:	f0 e0       	ldi	r31, 0x00	; 0
     f82:	b0 97       	sbiw	r30, 0x20	; 32
     f84:	ee 0f       	add	r30, r30
     f86:	ff 1f       	adc	r31, r31
     f88:	ee 0f       	add	r30, r30
     f8a:	ff 1f       	adc	r31, r31
     f8c:	ee 0f       	add	r30, r30
     f8e:	ff 1f       	adc	r31, r31
     f90:	ec 0f       	add	r30, r28
     f92:	fd 1f       	adc	r31, r29
     f94:	e0 59       	subi	r30, 0x90	; 144
     f96:	ff 4f       	sbci	r31, 0xFF	; 255
     f98:	64 91       	lpm	r22, Z
     f9a:	c7 01       	movw	r24, r14
     f9c:	8c 0f       	add	r24, r28
     f9e:	9d 1f       	adc	r25, r29
     fa0:	0e 94 d0 08 	call	0x11a0	; 0x11a0 <SRAM_write>
     fa4:	21 96       	adiw	r28, 0x01	; 1
	// Skriv karakterene til SRAM, men ikke mer enn 16
	for (; i < max_chars_per_line; i++) {
		if (data[i] == '\0') {
			break;  // Avslutt hvis vi når slutten av data
		}
		for (uint8_t j = 0; j < 8; j++) {
     fa6:	c8 30       	cpi	r28, 0x08	; 8
     fa8:	d1 05       	cpc	r29, r1
     faa:	41 f7       	brne	.-48     	; 0xf7c <oled_write_line_to_SRAM+0x4e>
	}
	uint8_t max_chars_per_line = 16;
	uint16_t sram_address = line * 128;  // Hver linje er 128 bytes, 16 karakterer à 8 pixels
	uint8_t i = 0; // så den ikkje døyr når vi går ut av forloopen (brukast igjen)
	// Skriv karakterene til SRAM, men ikke mer enn 16
	for (; i < max_chars_per_line; i++) {
     fac:	b3 94       	inc	r11
     fae:	b0 e1       	ldi	r27, 0x10	; 16
     fb0:	bb 12       	cpse	r11, r27
     fb2:	d8 cf       	rjmp	.-80     	; 0xf64 <oled_write_line_to_SRAM+0x36>
     fb4:	28 c0       	rjmp	.+80     	; 0x1006 <oled_write_line_to_SRAM+0xd8>
		}
	}
	// Fyll resten av linjen med tomrom (mellomrom) etter slutten av data
	for (; i < max_chars_per_line; i++) {
		for (uint8_t j = 0; j < 8; j++) {
			SRAM_write(sram_address + (i * 8) + j, pgm_read_byte(&font8x8_basic[(' ' - 32) * 8 + j]));
     fb6:	fe 01       	movw	r30, r28
     fb8:	64 91       	lpm	r22, Z
     fba:	c8 01       	movw	r24, r16
     fbc:	8c 0f       	add	r24, r28
     fbe:	9d 1f       	adc	r25, r29
     fc0:	0e 94 d0 08 	call	0x11a0	; 0x11a0 <SRAM_write>
     fc4:	21 96       	adiw	r28, 0x01	; 1
			SRAM_write(sram_address + (i * 8) + j, pgm_read_byte(&font8x8_basic[(data[i] - 32) * 8 + j]));
		}
	}
	// Fyll resten av linjen med tomrom (mellomrom) etter slutten av data
	for (; i < max_chars_per_line; i++) {
		for (uint8_t j = 0; j < 8; j++) {
     fc6:	ce 15       	cp	r28, r14
     fc8:	df 05       	cpc	r29, r15
     fca:	a9 f7       	brne	.-22     	; 0xfb6 <oled_write_line_to_SRAM+0x88>
		for (uint8_t j = 0; j < 8; j++) {
			SRAM_write(sram_address + (i * 8) + j, pgm_read_byte(&font8x8_basic[(data[i] - 32) * 8 + j]));
		}
	}
	// Fyll resten av linjen med tomrom (mellomrom) etter slutten av data
	for (; i < max_chars_per_line; i++) {
     fcc:	b3 94       	inc	r11
     fce:	ff e0       	ldi	r31, 0x0F	; 15
     fd0:	fb 15       	cp	r31, r11
     fd2:	c8 f0       	brcs	.+50     	; 0x1006 <oled_write_line_to_SRAM+0xd8>
		for (uint8_t j = 0; j < 8; j++) {
			SRAM_write(sram_address + (i * 8) + j, pgm_read_byte(&font8x8_basic[(' ' - 32) * 8 + j]));
     fd4:	c0 e7       	ldi	r28, 0x70	; 112
     fd6:	d0 e0       	ldi	r29, 0x00	; 0
     fd8:	86 01       	movw	r16, r12
     fda:	88 e0       	ldi	r24, 0x08	; 8
     fdc:	b8 9e       	mul	r11, r24
     fde:	00 0d       	add	r16, r0
     fe0:	11 1d       	adc	r17, r1
     fe2:	11 24       	eor	r1, r1
     fe4:	08 19       	sub	r16, r8
     fe6:	19 09       	sbc	r17, r9
     fe8:	e6 cf       	rjmp	.-52     	; 0xfb6 <oled_write_line_to_SRAM+0x88>
	if (line >= 8) {
		return; 
	}
	uint8_t max_chars_per_line = 16;
	uint16_t sram_address = line * 128;  // Hver linje er 128 bytes, 16 karakterer à 8 pixels
	uint8_t i = 0; // så den ikkje døyr når vi går ut av forloopen (brukast igjen)
     fea:	b1 2c       	mov	r11, r1
     fec:	0f 2e       	mov	r0, r31
     fee:	f0 e7       	ldi	r31, 0x70	; 112
     ff0:	8f 2e       	mov	r8, r31
     ff2:	f0 e0       	ldi	r31, 0x00	; 0
     ff4:	9f 2e       	mov	r9, r31
     ff6:	f0 2d       	mov	r31, r0
     ff8:	0f 2e       	mov	r0, r31
     ffa:	f8 e7       	ldi	r31, 0x78	; 120
     ffc:	ef 2e       	mov	r14, r31
     ffe:	f0 e0       	ldi	r31, 0x00	; 0
    1000:	ff 2e       	mov	r15, r31
    1002:	f0 2d       	mov	r31, r0
    1004:	e7 cf       	rjmp	.-50     	; 0xfd4 <oled_write_line_to_SRAM+0xa6>
	for (; i < max_chars_per_line; i++) {
		for (uint8_t j = 0; j < 8; j++) {
			SRAM_write(sram_address + (i * 8) + j, pgm_read_byte(&font8x8_basic[(' ' - 32) * 8 + j]));
		}
	}
}
    1006:	df 91       	pop	r29
    1008:	cf 91       	pop	r28
    100a:	1f 91       	pop	r17
    100c:	0f 91       	pop	r16
    100e:	ff 90       	pop	r15
    1010:	ef 90       	pop	r14
    1012:	df 90       	pop	r13
    1014:	cf 90       	pop	r12
    1016:	bf 90       	pop	r11
    1018:	9f 90       	pop	r9
    101a:	8f 90       	pop	r8
    101c:	08 95       	ret

0000101e <oled_write_char_to_SRAM>:
//Nyttig for menyen trur eg, lar deg spesifisere nøyaktig kor på skjermen du vil overskrive
void oled_write_char_to_SRAM(uint8_t row, uint8_t col, char c) {
    101e:	ef 92       	push	r14
    1020:	ff 92       	push	r15
    1022:	0f 93       	push	r16
    1024:	1f 93       	push	r17
    1026:	cf 93       	push	r28
    1028:	df 93       	push	r29
	if (row >= 8 || col >= 16) {
    102a:	88 30       	cpi	r24, 0x08	; 8
    102c:	70 f5       	brcc	.+92     	; 0x108a <oled_write_char_to_SRAM+0x6c>
    102e:	60 31       	cpi	r22, 0x10	; 16
    1030:	60 f5       	brcc	.+88     	; 0x108a <oled_write_char_to_SRAM+0x6c>
    1032:	28 2f       	mov	r18, r24
		return; 
	}
	uint16_t sram_address = row * 128 + (col * 8); 
    1034:	86 2f       	mov	r24, r22
    1036:	90 e0       	ldi	r25, 0x00	; 0
    1038:	30 e1       	ldi	r19, 0x10	; 16
    103a:	23 9f       	mul	r18, r19
    103c:	80 0d       	add	r24, r0
    103e:	91 1d       	adc	r25, r1
    1040:	11 24       	eor	r1, r1
    1042:	88 0f       	add	r24, r24
    1044:	99 1f       	adc	r25, r25
    1046:	88 0f       	add	r24, r24
    1048:	99 1f       	adc	r25, r25
    104a:	88 0f       	add	r24, r24
    104c:	99 1f       	adc	r25, r25
	for (uint8_t i = 0; i < 8; i++) {
		SRAM_write(sram_address + i, pgm_read_byte(&font8x8_basic[(c - 32) * 8 + i]));
    104e:	04 2f       	mov	r16, r20
    1050:	10 e0       	ldi	r17, 0x00	; 0
    1052:	00 52       	subi	r16, 0x20	; 32
    1054:	11 09       	sbc	r17, r1
    1056:	00 0f       	add	r16, r16
    1058:	11 1f       	adc	r17, r17
    105a:	00 0f       	add	r16, r16
    105c:	11 1f       	adc	r17, r17
    105e:	00 0f       	add	r16, r16
    1060:	11 1f       	adc	r17, r17
    1062:	7c 01       	movw	r14, r24
    1064:	28 e0       	ldi	r18, 0x08	; 8
    1066:	e2 0e       	add	r14, r18
    1068:	f1 1c       	adc	r15, r1
    106a:	ec 01       	movw	r28, r24
    106c:	08 1b       	sub	r16, r24
    106e:	19 0b       	sbc	r17, r25
    1070:	f8 01       	movw	r30, r16
    1072:	ec 0f       	add	r30, r28
    1074:	fd 1f       	adc	r31, r29
    1076:	e0 59       	subi	r30, 0x90	; 144
    1078:	ff 4f       	sbci	r31, 0xFF	; 255
    107a:	64 91       	lpm	r22, Z
    107c:	ce 01       	movw	r24, r28
    107e:	0e 94 d0 08 	call	0x11a0	; 0x11a0 <SRAM_write>
    1082:	21 96       	adiw	r28, 0x01	; 1
void oled_write_char_to_SRAM(uint8_t row, uint8_t col, char c) {
	if (row >= 8 || col >= 16) {
		return; 
	}
	uint16_t sram_address = row * 128 + (col * 8); 
	for (uint8_t i = 0; i < 8; i++) {
    1084:	ce 15       	cp	r28, r14
    1086:	df 05       	cpc	r29, r15
    1088:	99 f7       	brne	.-26     	; 0x1070 <oled_write_char_to_SRAM+0x52>
		SRAM_write(sram_address + i, pgm_read_byte(&font8x8_basic[(c - 32) * 8 + i]));
	}
}
    108a:	df 91       	pop	r29
    108c:	cf 91       	pop	r28
    108e:	1f 91       	pop	r17
    1090:	0f 91       	pop	r16
    1092:	ff 90       	pop	r15
    1094:	ef 90       	pop	r14
    1096:	08 95       	ret

00001098 <oled_clear_screen>:
void oled_clear_screen(void) {
    1098:	cf 93       	push	r28
    109a:	df 93       	push	r29
    109c:	cd b7       	in	r28, 0x3d	; 61
    109e:	de b7       	in	r29, 0x3e	; 62
    10a0:	c0 58       	subi	r28, 0x80	; 128
    10a2:	d1 09       	sbc	r29, r1
    10a4:	0f b6       	in	r0, 0x3f	; 63
    10a6:	f8 94       	cli
    10a8:	de bf       	out	0x3e, r29	; 62
    10aa:	0f be       	out	0x3f, r0	; 63
    10ac:	cd bf       	out	0x3d, r28	; 61
	// Lag en tom buffer fylt med nuller eller mellomrom (0 er nok, fordi funksjonen oversetter til ' ')
	char empty_buffer[128] = {0};  // Hele skjermen, 128 tegn
    10ae:	ce 01       	movw	r24, r28
    10b0:	01 96       	adiw	r24, 0x01	; 1
    10b2:	20 e8       	ldi	r18, 0x80	; 128
    10b4:	fc 01       	movw	r30, r24
    10b6:	11 92       	st	Z+, r1
    10b8:	2a 95       	dec	r18
    10ba:	e9 f7       	brne	.-6      	; 0x10b6 <oled_clear_screen+0x1e>

	// Skriv den tomme bufferen til SRAM, som vil tømme skjermen
	oled_write_screen_to_SRAM(empty_buffer);
    10bc:	0e 94 33 07 	call	0xe66	; 0xe66 <oled_write_screen_to_SRAM>
}
    10c0:	c0 58       	subi	r28, 0x80	; 128
    10c2:	df 4f       	sbci	r29, 0xFF	; 255
    10c4:	0f b6       	in	r0, 0x3f	; 63
    10c6:	f8 94       	cli
    10c8:	de bf       	out	0x3e, r29	; 62
    10ca:	0f be       	out	0x3f, r0	; 63
    10cc:	cd bf       	out	0x3d, r28	; 61
    10ce:	df 91       	pop	r29
    10d0:	cf 91       	pop	r28
    10d2:	08 95       	ret

000010d4 <__vector_15>:
    10d4:	1f 92       	push	r1
    10d6:	0f 92       	push	r0
    10d8:	0f b6       	in	r0, 0x3f	; 63
    10da:	0f 92       	push	r0
    10dc:	11 24       	eor	r1, r1
    10de:	8f 93       	push	r24
    10e0:	9f 93       	push	r25
    10e2:	af 93       	push	r26
    10e4:	bf 93       	push	r27
    10e6:	80 91 c3 02 	lds	r24, 0x02C3	; 0x8002c3 <overflow_count>
    10ea:	90 91 c4 02 	lds	r25, 0x02C4	; 0x8002c4 <overflow_count+0x1>
    10ee:	a0 91 c5 02 	lds	r26, 0x02C5	; 0x8002c5 <overflow_count+0x2>
    10f2:	b0 91 c6 02 	lds	r27, 0x02C6	; 0x8002c6 <overflow_count+0x3>
    10f6:	01 96       	adiw	r24, 0x01	; 1
    10f8:	a1 1d       	adc	r26, r1
    10fa:	b1 1d       	adc	r27, r1
    10fc:	80 93 c3 02 	sts	0x02C3, r24	; 0x8002c3 <overflow_count>
    1100:	90 93 c4 02 	sts	0x02C4, r25	; 0x8002c4 <overflow_count+0x1>
    1104:	a0 93 c5 02 	sts	0x02C5, r26	; 0x8002c5 <overflow_count+0x2>
    1108:	b0 93 c6 02 	sts	0x02C6, r27	; 0x8002c6 <overflow_count+0x3>
    110c:	bf 91       	pop	r27
    110e:	af 91       	pop	r26
    1110:	9f 91       	pop	r25
    1112:	8f 91       	pop	r24
    1114:	0f 90       	pop	r0
    1116:	0f be       	out	0x3f, r0	; 63
    1118:	0f 90       	pop	r0
    111a:	1f 90       	pop	r1
    111c:	18 95       	reti

0000111e <get_time_in_cycles>:
    111e:	80 91 c3 02 	lds	r24, 0x02C3	; 0x8002c3 <overflow_count>
    1122:	90 91 c4 02 	lds	r25, 0x02C4	; 0x8002c4 <overflow_count+0x1>
    1126:	a0 91 c5 02 	lds	r26, 0x02C5	; 0x8002c5 <overflow_count+0x2>
    112a:	b0 91 c6 02 	lds	r27, 0x02C6	; 0x8002c6 <overflow_count+0x3>
    112e:	2c b5       	in	r18, 0x2c	; 44
    1130:	3d b5       	in	r19, 0x2d	; 45
    1132:	dc 01       	movw	r26, r24
    1134:	99 27       	eor	r25, r25
    1136:	88 27       	eor	r24, r24
    1138:	bc 01       	movw	r22, r24
    113a:	cd 01       	movw	r24, r26
    113c:	62 0f       	add	r22, r18
    113e:	73 1f       	adc	r23, r19
    1140:	81 1d       	adc	r24, r1
    1142:	91 1d       	adc	r25, r1
    1144:	08 95       	ret

00001146 <get_time_in_ms>:
    1146:	0e 94 8f 08 	call	0x111e	; 0x111e <get_time_in_cycles>
    114a:	23 e3       	ldi	r18, 0x33	; 51
    114c:	33 e1       	ldi	r19, 0x13	; 19
    114e:	40 e0       	ldi	r20, 0x00	; 0
    1150:	50 e0       	ldi	r21, 0x00	; 0
    1152:	0e 94 24 09 	call	0x1248	; 0x1248 <__udivmodsi4>
    1156:	ca 01       	movw	r24, r20
    1158:	b9 01       	movw	r22, r18
    115a:	08 95       	ret

0000115c <setup_timer>:
    115c:	1f bc       	out	0x2f, r1	; 47
    115e:	81 e0       	ldi	r24, 0x01	; 1
    1160:	8e bd       	out	0x2e, r24	; 46
    1162:	80 e8       	ldi	r24, 0x80	; 128
    1164:	89 bf       	out	0x39, r24	; 57
    1166:	1d bc       	out	0x2d, r1	; 45
    1168:	1c bc       	out	0x2c, r1	; 44
    116a:	08 95       	ret

0000116c <restart_timer>:
    116c:	1d bc       	out	0x2d, r1	; 45
    116e:	1c bc       	out	0x2c, r1	; 44
    1170:	10 92 c3 02 	sts	0x02C3, r1	; 0x8002c3 <overflow_count>
    1174:	10 92 c4 02 	sts	0x02C4, r1	; 0x8002c4 <overflow_count+0x1>
    1178:	10 92 c5 02 	sts	0x02C5, r1	; 0x8002c5 <overflow_count+0x2>
    117c:	10 92 c6 02 	sts	0x02C6, r1	; 0x8002c6 <overflow_count+0x3>
    1180:	08 95       	ret

00001182 <externalMemoryInit>:
    1182:	8f ef       	ldi	r24, 0xFF	; 255
    1184:	8a bb       	out	0x1a, r24	; 26
    1186:	8f e0       	ldi	r24, 0x0F	; 15
    1188:	84 bb       	out	0x14, r24	; 20
    118a:	8e 9a       	sbi	0x11, 6	; 17
    118c:	8f 9a       	sbi	0x11, 7	; 17
    118e:	31 9a       	sbi	0x06, 1	; 6
    1190:	85 b7       	in	r24, 0x35	; 53
    1192:	80 68       	ori	r24, 0x80	; 128
    1194:	85 bf       	out	0x35, r24	; 53
    1196:	10 be       	out	0x30, r1	; 48
    1198:	80 b7       	in	r24, 0x30	; 48
    119a:	80 62       	ori	r24, 0x20	; 32
    119c:	80 bf       	out	0x30, r24	; 48
    119e:	08 95       	ret

000011a0 <SRAM_write>:
    11a0:	cf 93       	push	r28
    11a2:	df 93       	push	r29
    11a4:	00 d0       	rcall	.+0      	; 0x11a6 <SRAM_write+0x6>
    11a6:	cd b7       	in	r28, 0x3d	; 61
    11a8:	de b7       	in	r29, 0x3e	; 62
    11aa:	9a 83       	std	Y+2, r25	; 0x02
    11ac:	89 83       	std	Y+1, r24	; 0x01
    11ae:	e9 81       	ldd	r30, Y+1	; 0x01
    11b0:	fa 81       	ldd	r31, Y+2	; 0x02
    11b2:	f8 5e       	subi	r31, 0xE8	; 232
    11b4:	60 83       	st	Z, r22
    11b6:	0f 90       	pop	r0
    11b8:	0f 90       	pop	r0
    11ba:	df 91       	pop	r29
    11bc:	cf 91       	pop	r28
    11be:	08 95       	ret

000011c0 <SRAM_read>:
    11c0:	cf 93       	push	r28
    11c2:	df 93       	push	r29
    11c4:	00 d0       	rcall	.+0      	; 0x11c6 <SRAM_read+0x6>
    11c6:	cd b7       	in	r28, 0x3d	; 61
    11c8:	de b7       	in	r29, 0x3e	; 62
    11ca:	9a 83       	std	Y+2, r25	; 0x02
    11cc:	89 83       	std	Y+1, r24	; 0x01
    11ce:	e9 81       	ldd	r30, Y+1	; 0x01
    11d0:	fa 81       	ldd	r31, Y+2	; 0x02
    11d2:	f8 5e       	subi	r31, 0xE8	; 232
    11d4:	80 81       	ld	r24, Z
    11d6:	0f 90       	pop	r0
    11d8:	0f 90       	pop	r0
    11da:	df 91       	pop	r29
    11dc:	cf 91       	pop	r28
    11de:	08 95       	ret

000011e0 <Universal_write>:
    11e0:	cf 93       	push	r28
    11e2:	df 93       	push	r29
    11e4:	00 d0       	rcall	.+0      	; 0x11e6 <Universal_write+0x6>
    11e6:	cd b7       	in	r28, 0x3d	; 61
    11e8:	de b7       	in	r29, 0x3e	; 62
    11ea:	9a 83       	std	Y+2, r25	; 0x02
    11ec:	89 83       	std	Y+1, r24	; 0x01
    11ee:	e9 81       	ldd	r30, Y+1	; 0x01
    11f0:	fa 81       	ldd	r31, Y+2	; 0x02
    11f2:	f0 5f       	subi	r31, 0xF0	; 240
    11f4:	60 83       	st	Z, r22
    11f6:	0f 90       	pop	r0
    11f8:	0f 90       	pop	r0
    11fa:	df 91       	pop	r29
    11fc:	cf 91       	pop	r28
    11fe:	08 95       	ret

00001200 <Universal_read>:
    1200:	cf 93       	push	r28
    1202:	df 93       	push	r29
    1204:	00 d0       	rcall	.+0      	; 0x1206 <Universal_read+0x6>
    1206:	cd b7       	in	r28, 0x3d	; 61
    1208:	de b7       	in	r29, 0x3e	; 62
    120a:	9a 83       	std	Y+2, r25	; 0x02
    120c:	89 83       	std	Y+1, r24	; 0x01
    120e:	e9 81       	ldd	r30, Y+1	; 0x01
    1210:	fa 81       	ldd	r31, Y+2	; 0x02
    1212:	f0 5f       	subi	r31, 0xF0	; 240
    1214:	80 81       	ld	r24, Z
    1216:	0f 90       	pop	r0
    1218:	0f 90       	pop	r0
    121a:	df 91       	pop	r29
    121c:	cf 91       	pop	r28
    121e:	08 95       	ret

00001220 <__divmodhi4>:
    1220:	97 fb       	bst	r25, 7
    1222:	07 2e       	mov	r0, r23
    1224:	16 f4       	brtc	.+4      	; 0x122a <__divmodhi4+0xa>
    1226:	00 94       	com	r0
    1228:	07 d0       	rcall	.+14     	; 0x1238 <__divmodhi4_neg1>
    122a:	77 fd       	sbrc	r23, 7
    122c:	09 d0       	rcall	.+18     	; 0x1240 <__divmodhi4_neg2>
    122e:	0e 94 46 09 	call	0x128c	; 0x128c <__udivmodhi4>
    1232:	07 fc       	sbrc	r0, 7
    1234:	05 d0       	rcall	.+10     	; 0x1240 <__divmodhi4_neg2>
    1236:	3e f4       	brtc	.+14     	; 0x1246 <__divmodhi4_exit>

00001238 <__divmodhi4_neg1>:
    1238:	90 95       	com	r25
    123a:	81 95       	neg	r24
    123c:	9f 4f       	sbci	r25, 0xFF	; 255
    123e:	08 95       	ret

00001240 <__divmodhi4_neg2>:
    1240:	70 95       	com	r23
    1242:	61 95       	neg	r22
    1244:	7f 4f       	sbci	r23, 0xFF	; 255

00001246 <__divmodhi4_exit>:
    1246:	08 95       	ret

00001248 <__udivmodsi4>:
    1248:	a1 e2       	ldi	r26, 0x21	; 33
    124a:	1a 2e       	mov	r1, r26
    124c:	aa 1b       	sub	r26, r26
    124e:	bb 1b       	sub	r27, r27
    1250:	fd 01       	movw	r30, r26
    1252:	0d c0       	rjmp	.+26     	; 0x126e <__udivmodsi4_ep>

00001254 <__udivmodsi4_loop>:
    1254:	aa 1f       	adc	r26, r26
    1256:	bb 1f       	adc	r27, r27
    1258:	ee 1f       	adc	r30, r30
    125a:	ff 1f       	adc	r31, r31
    125c:	a2 17       	cp	r26, r18
    125e:	b3 07       	cpc	r27, r19
    1260:	e4 07       	cpc	r30, r20
    1262:	f5 07       	cpc	r31, r21
    1264:	20 f0       	brcs	.+8      	; 0x126e <__udivmodsi4_ep>
    1266:	a2 1b       	sub	r26, r18
    1268:	b3 0b       	sbc	r27, r19
    126a:	e4 0b       	sbc	r30, r20
    126c:	f5 0b       	sbc	r31, r21

0000126e <__udivmodsi4_ep>:
    126e:	66 1f       	adc	r22, r22
    1270:	77 1f       	adc	r23, r23
    1272:	88 1f       	adc	r24, r24
    1274:	99 1f       	adc	r25, r25
    1276:	1a 94       	dec	r1
    1278:	69 f7       	brne	.-38     	; 0x1254 <__udivmodsi4_loop>
    127a:	60 95       	com	r22
    127c:	70 95       	com	r23
    127e:	80 95       	com	r24
    1280:	90 95       	com	r25
    1282:	9b 01       	movw	r18, r22
    1284:	ac 01       	movw	r20, r24
    1286:	bd 01       	movw	r22, r26
    1288:	cf 01       	movw	r24, r30
    128a:	08 95       	ret

0000128c <__udivmodhi4>:
    128c:	aa 1b       	sub	r26, r26
    128e:	bb 1b       	sub	r27, r27
    1290:	51 e1       	ldi	r21, 0x11	; 17
    1292:	07 c0       	rjmp	.+14     	; 0x12a2 <__udivmodhi4_ep>

00001294 <__udivmodhi4_loop>:
    1294:	aa 1f       	adc	r26, r26
    1296:	bb 1f       	adc	r27, r27
    1298:	a6 17       	cp	r26, r22
    129a:	b7 07       	cpc	r27, r23
    129c:	10 f0       	brcs	.+4      	; 0x12a2 <__udivmodhi4_ep>
    129e:	a6 1b       	sub	r26, r22
    12a0:	b7 0b       	sbc	r27, r23

000012a2 <__udivmodhi4_ep>:
    12a2:	88 1f       	adc	r24, r24
    12a4:	99 1f       	adc	r25, r25
    12a6:	5a 95       	dec	r21
    12a8:	a9 f7       	brne	.-22     	; 0x1294 <__udivmodhi4_loop>
    12aa:	80 95       	com	r24
    12ac:	90 95       	com	r25
    12ae:	bc 01       	movw	r22, r24
    12b0:	cd 01       	movw	r24, r26
    12b2:	08 95       	ret

000012b4 <malloc>:
    12b4:	0f 93       	push	r16
    12b6:	1f 93       	push	r17
    12b8:	cf 93       	push	r28
    12ba:	df 93       	push	r29
    12bc:	82 30       	cpi	r24, 0x02	; 2
    12be:	91 05       	cpc	r25, r1
    12c0:	10 f4       	brcc	.+4      	; 0x12c6 <malloc+0x12>
    12c2:	82 e0       	ldi	r24, 0x02	; 2
    12c4:	90 e0       	ldi	r25, 0x00	; 0
    12c6:	e0 91 db 02 	lds	r30, 0x02DB	; 0x8002db <__flp>
    12ca:	f0 91 dc 02 	lds	r31, 0x02DC	; 0x8002dc <__flp+0x1>
    12ce:	20 e0       	ldi	r18, 0x00	; 0
    12d0:	30 e0       	ldi	r19, 0x00	; 0
    12d2:	a0 e0       	ldi	r26, 0x00	; 0
    12d4:	b0 e0       	ldi	r27, 0x00	; 0
    12d6:	30 97       	sbiw	r30, 0x00	; 0
    12d8:	19 f1       	breq	.+70     	; 0x1320 <malloc+0x6c>
    12da:	40 81       	ld	r20, Z
    12dc:	51 81       	ldd	r21, Z+1	; 0x01
    12de:	02 81       	ldd	r16, Z+2	; 0x02
    12e0:	13 81       	ldd	r17, Z+3	; 0x03
    12e2:	48 17       	cp	r20, r24
    12e4:	59 07       	cpc	r21, r25
    12e6:	c8 f0       	brcs	.+50     	; 0x131a <malloc+0x66>
    12e8:	84 17       	cp	r24, r20
    12ea:	95 07       	cpc	r25, r21
    12ec:	69 f4       	brne	.+26     	; 0x1308 <malloc+0x54>
    12ee:	10 97       	sbiw	r26, 0x00	; 0
    12f0:	31 f0       	breq	.+12     	; 0x12fe <malloc+0x4a>
    12f2:	12 96       	adiw	r26, 0x02	; 2
    12f4:	0c 93       	st	X, r16
    12f6:	12 97       	sbiw	r26, 0x02	; 2
    12f8:	13 96       	adiw	r26, 0x03	; 3
    12fa:	1c 93       	st	X, r17
    12fc:	27 c0       	rjmp	.+78     	; 0x134c <malloc+0x98>
    12fe:	00 93 db 02 	sts	0x02DB, r16	; 0x8002db <__flp>
    1302:	10 93 dc 02 	sts	0x02DC, r17	; 0x8002dc <__flp+0x1>
    1306:	22 c0       	rjmp	.+68     	; 0x134c <malloc+0x98>
    1308:	21 15       	cp	r18, r1
    130a:	31 05       	cpc	r19, r1
    130c:	19 f0       	breq	.+6      	; 0x1314 <malloc+0x60>
    130e:	42 17       	cp	r20, r18
    1310:	53 07       	cpc	r21, r19
    1312:	18 f4       	brcc	.+6      	; 0x131a <malloc+0x66>
    1314:	9a 01       	movw	r18, r20
    1316:	bd 01       	movw	r22, r26
    1318:	ef 01       	movw	r28, r30
    131a:	df 01       	movw	r26, r30
    131c:	f8 01       	movw	r30, r16
    131e:	db cf       	rjmp	.-74     	; 0x12d6 <malloc+0x22>
    1320:	21 15       	cp	r18, r1
    1322:	31 05       	cpc	r19, r1
    1324:	f9 f0       	breq	.+62     	; 0x1364 <malloc+0xb0>
    1326:	28 1b       	sub	r18, r24
    1328:	39 0b       	sbc	r19, r25
    132a:	24 30       	cpi	r18, 0x04	; 4
    132c:	31 05       	cpc	r19, r1
    132e:	80 f4       	brcc	.+32     	; 0x1350 <malloc+0x9c>
    1330:	8a 81       	ldd	r24, Y+2	; 0x02
    1332:	9b 81       	ldd	r25, Y+3	; 0x03
    1334:	61 15       	cp	r22, r1
    1336:	71 05       	cpc	r23, r1
    1338:	21 f0       	breq	.+8      	; 0x1342 <malloc+0x8e>
    133a:	fb 01       	movw	r30, r22
    133c:	93 83       	std	Z+3, r25	; 0x03
    133e:	82 83       	std	Z+2, r24	; 0x02
    1340:	04 c0       	rjmp	.+8      	; 0x134a <malloc+0x96>
    1342:	90 93 dc 02 	sts	0x02DC, r25	; 0x8002dc <__flp+0x1>
    1346:	80 93 db 02 	sts	0x02DB, r24	; 0x8002db <__flp>
    134a:	fe 01       	movw	r30, r28
    134c:	32 96       	adiw	r30, 0x02	; 2
    134e:	44 c0       	rjmp	.+136    	; 0x13d8 <malloc+0x124>
    1350:	fe 01       	movw	r30, r28
    1352:	e2 0f       	add	r30, r18
    1354:	f3 1f       	adc	r31, r19
    1356:	81 93       	st	Z+, r24
    1358:	91 93       	st	Z+, r25
    135a:	22 50       	subi	r18, 0x02	; 2
    135c:	31 09       	sbc	r19, r1
    135e:	39 83       	std	Y+1, r19	; 0x01
    1360:	28 83       	st	Y, r18
    1362:	3a c0       	rjmp	.+116    	; 0x13d8 <malloc+0x124>
    1364:	20 91 d9 02 	lds	r18, 0x02D9	; 0x8002d9 <__brkval>
    1368:	30 91 da 02 	lds	r19, 0x02DA	; 0x8002da <__brkval+0x1>
    136c:	23 2b       	or	r18, r19
    136e:	41 f4       	brne	.+16     	; 0x1380 <malloc+0xcc>
    1370:	20 91 02 01 	lds	r18, 0x0102	; 0x800102 <__malloc_heap_start>
    1374:	30 91 03 01 	lds	r19, 0x0103	; 0x800103 <__malloc_heap_start+0x1>
    1378:	30 93 da 02 	sts	0x02DA, r19	; 0x8002da <__brkval+0x1>
    137c:	20 93 d9 02 	sts	0x02D9, r18	; 0x8002d9 <__brkval>
    1380:	20 91 00 01 	lds	r18, 0x0100	; 0x800100 <__data_start>
    1384:	30 91 01 01 	lds	r19, 0x0101	; 0x800101 <__data_start+0x1>
    1388:	21 15       	cp	r18, r1
    138a:	31 05       	cpc	r19, r1
    138c:	41 f4       	brne	.+16     	; 0x139e <malloc+0xea>
    138e:	2d b7       	in	r18, 0x3d	; 61
    1390:	3e b7       	in	r19, 0x3e	; 62
    1392:	40 91 04 01 	lds	r20, 0x0104	; 0x800104 <__malloc_margin>
    1396:	50 91 05 01 	lds	r21, 0x0105	; 0x800105 <__malloc_margin+0x1>
    139a:	24 1b       	sub	r18, r20
    139c:	35 0b       	sbc	r19, r21
    139e:	e0 91 d9 02 	lds	r30, 0x02D9	; 0x8002d9 <__brkval>
    13a2:	f0 91 da 02 	lds	r31, 0x02DA	; 0x8002da <__brkval+0x1>
    13a6:	e2 17       	cp	r30, r18
    13a8:	f3 07       	cpc	r31, r19
    13aa:	a0 f4       	brcc	.+40     	; 0x13d4 <malloc+0x120>
    13ac:	2e 1b       	sub	r18, r30
    13ae:	3f 0b       	sbc	r19, r31
    13b0:	28 17       	cp	r18, r24
    13b2:	39 07       	cpc	r19, r25
    13b4:	78 f0       	brcs	.+30     	; 0x13d4 <malloc+0x120>
    13b6:	ac 01       	movw	r20, r24
    13b8:	4e 5f       	subi	r20, 0xFE	; 254
    13ba:	5f 4f       	sbci	r21, 0xFF	; 255
    13bc:	24 17       	cp	r18, r20
    13be:	35 07       	cpc	r19, r21
    13c0:	48 f0       	brcs	.+18     	; 0x13d4 <malloc+0x120>
    13c2:	4e 0f       	add	r20, r30
    13c4:	5f 1f       	adc	r21, r31
    13c6:	50 93 da 02 	sts	0x02DA, r21	; 0x8002da <__brkval+0x1>
    13ca:	40 93 d9 02 	sts	0x02D9, r20	; 0x8002d9 <__brkval>
    13ce:	81 93       	st	Z+, r24
    13d0:	91 93       	st	Z+, r25
    13d2:	02 c0       	rjmp	.+4      	; 0x13d8 <malloc+0x124>
    13d4:	e0 e0       	ldi	r30, 0x00	; 0
    13d6:	f0 e0       	ldi	r31, 0x00	; 0
    13d8:	cf 01       	movw	r24, r30
    13da:	df 91       	pop	r29
    13dc:	cf 91       	pop	r28
    13de:	1f 91       	pop	r17
    13e0:	0f 91       	pop	r16
    13e2:	08 95       	ret

000013e4 <free>:
    13e4:	cf 93       	push	r28
    13e6:	df 93       	push	r29
    13e8:	00 97       	sbiw	r24, 0x00	; 0
    13ea:	09 f4       	brne	.+2      	; 0x13ee <free+0xa>
    13ec:	81 c0       	rjmp	.+258    	; 0x14f0 <free+0x10c>
    13ee:	fc 01       	movw	r30, r24
    13f0:	32 97       	sbiw	r30, 0x02	; 2
    13f2:	13 82       	std	Z+3, r1	; 0x03
    13f4:	12 82       	std	Z+2, r1	; 0x02
    13f6:	a0 91 db 02 	lds	r26, 0x02DB	; 0x8002db <__flp>
    13fa:	b0 91 dc 02 	lds	r27, 0x02DC	; 0x8002dc <__flp+0x1>
    13fe:	10 97       	sbiw	r26, 0x00	; 0
    1400:	81 f4       	brne	.+32     	; 0x1422 <free+0x3e>
    1402:	20 81       	ld	r18, Z
    1404:	31 81       	ldd	r19, Z+1	; 0x01
    1406:	82 0f       	add	r24, r18
    1408:	93 1f       	adc	r25, r19
    140a:	20 91 d9 02 	lds	r18, 0x02D9	; 0x8002d9 <__brkval>
    140e:	30 91 da 02 	lds	r19, 0x02DA	; 0x8002da <__brkval+0x1>
    1412:	28 17       	cp	r18, r24
    1414:	39 07       	cpc	r19, r25
    1416:	51 f5       	brne	.+84     	; 0x146c <free+0x88>
    1418:	f0 93 da 02 	sts	0x02DA, r31	; 0x8002da <__brkval+0x1>
    141c:	e0 93 d9 02 	sts	0x02D9, r30	; 0x8002d9 <__brkval>
    1420:	67 c0       	rjmp	.+206    	; 0x14f0 <free+0x10c>
    1422:	ed 01       	movw	r28, r26
    1424:	20 e0       	ldi	r18, 0x00	; 0
    1426:	30 e0       	ldi	r19, 0x00	; 0
    1428:	ce 17       	cp	r28, r30
    142a:	df 07       	cpc	r29, r31
    142c:	40 f4       	brcc	.+16     	; 0x143e <free+0x5a>
    142e:	4a 81       	ldd	r20, Y+2	; 0x02
    1430:	5b 81       	ldd	r21, Y+3	; 0x03
    1432:	9e 01       	movw	r18, r28
    1434:	41 15       	cp	r20, r1
    1436:	51 05       	cpc	r21, r1
    1438:	f1 f0       	breq	.+60     	; 0x1476 <free+0x92>
    143a:	ea 01       	movw	r28, r20
    143c:	f5 cf       	rjmp	.-22     	; 0x1428 <free+0x44>
    143e:	d3 83       	std	Z+3, r29	; 0x03
    1440:	c2 83       	std	Z+2, r28	; 0x02
    1442:	40 81       	ld	r20, Z
    1444:	51 81       	ldd	r21, Z+1	; 0x01
    1446:	84 0f       	add	r24, r20
    1448:	95 1f       	adc	r25, r21
    144a:	c8 17       	cp	r28, r24
    144c:	d9 07       	cpc	r29, r25
    144e:	59 f4       	brne	.+22     	; 0x1466 <free+0x82>
    1450:	88 81       	ld	r24, Y
    1452:	99 81       	ldd	r25, Y+1	; 0x01
    1454:	84 0f       	add	r24, r20
    1456:	95 1f       	adc	r25, r21
    1458:	02 96       	adiw	r24, 0x02	; 2
    145a:	91 83       	std	Z+1, r25	; 0x01
    145c:	80 83       	st	Z, r24
    145e:	8a 81       	ldd	r24, Y+2	; 0x02
    1460:	9b 81       	ldd	r25, Y+3	; 0x03
    1462:	93 83       	std	Z+3, r25	; 0x03
    1464:	82 83       	std	Z+2, r24	; 0x02
    1466:	21 15       	cp	r18, r1
    1468:	31 05       	cpc	r19, r1
    146a:	29 f4       	brne	.+10     	; 0x1476 <free+0x92>
    146c:	f0 93 dc 02 	sts	0x02DC, r31	; 0x8002dc <__flp+0x1>
    1470:	e0 93 db 02 	sts	0x02DB, r30	; 0x8002db <__flp>
    1474:	3d c0       	rjmp	.+122    	; 0x14f0 <free+0x10c>
    1476:	e9 01       	movw	r28, r18
    1478:	fb 83       	std	Y+3, r31	; 0x03
    147a:	ea 83       	std	Y+2, r30	; 0x02
    147c:	49 91       	ld	r20, Y+
    147e:	59 91       	ld	r21, Y+
    1480:	c4 0f       	add	r28, r20
    1482:	d5 1f       	adc	r29, r21
    1484:	ec 17       	cp	r30, r28
    1486:	fd 07       	cpc	r31, r29
    1488:	61 f4       	brne	.+24     	; 0x14a2 <free+0xbe>
    148a:	80 81       	ld	r24, Z
    148c:	91 81       	ldd	r25, Z+1	; 0x01
    148e:	84 0f       	add	r24, r20
    1490:	95 1f       	adc	r25, r21
    1492:	02 96       	adiw	r24, 0x02	; 2
    1494:	e9 01       	movw	r28, r18
    1496:	99 83       	std	Y+1, r25	; 0x01
    1498:	88 83       	st	Y, r24
    149a:	82 81       	ldd	r24, Z+2	; 0x02
    149c:	93 81       	ldd	r25, Z+3	; 0x03
    149e:	9b 83       	std	Y+3, r25	; 0x03
    14a0:	8a 83       	std	Y+2, r24	; 0x02
    14a2:	e0 e0       	ldi	r30, 0x00	; 0
    14a4:	f0 e0       	ldi	r31, 0x00	; 0
    14a6:	12 96       	adiw	r26, 0x02	; 2
    14a8:	8d 91       	ld	r24, X+
    14aa:	9c 91       	ld	r25, X
    14ac:	13 97       	sbiw	r26, 0x03	; 3
    14ae:	00 97       	sbiw	r24, 0x00	; 0
    14b0:	19 f0       	breq	.+6      	; 0x14b8 <free+0xd4>
    14b2:	fd 01       	movw	r30, r26
    14b4:	dc 01       	movw	r26, r24
    14b6:	f7 cf       	rjmp	.-18     	; 0x14a6 <free+0xc2>
    14b8:	8d 91       	ld	r24, X+
    14ba:	9c 91       	ld	r25, X
    14bc:	11 97       	sbiw	r26, 0x01	; 1
    14be:	9d 01       	movw	r18, r26
    14c0:	2e 5f       	subi	r18, 0xFE	; 254
    14c2:	3f 4f       	sbci	r19, 0xFF	; 255
    14c4:	82 0f       	add	r24, r18
    14c6:	93 1f       	adc	r25, r19
    14c8:	20 91 d9 02 	lds	r18, 0x02D9	; 0x8002d9 <__brkval>
    14cc:	30 91 da 02 	lds	r19, 0x02DA	; 0x8002da <__brkval+0x1>
    14d0:	28 17       	cp	r18, r24
    14d2:	39 07       	cpc	r19, r25
    14d4:	69 f4       	brne	.+26     	; 0x14f0 <free+0x10c>
    14d6:	30 97       	sbiw	r30, 0x00	; 0
    14d8:	29 f4       	brne	.+10     	; 0x14e4 <free+0x100>
    14da:	10 92 dc 02 	sts	0x02DC, r1	; 0x8002dc <__flp+0x1>
    14de:	10 92 db 02 	sts	0x02DB, r1	; 0x8002db <__flp>
    14e2:	02 c0       	rjmp	.+4      	; 0x14e8 <free+0x104>
    14e4:	13 82       	std	Z+3, r1	; 0x03
    14e6:	12 82       	std	Z+2, r1	; 0x02
    14e8:	b0 93 da 02 	sts	0x02DA, r27	; 0x8002da <__brkval+0x1>
    14ec:	a0 93 d9 02 	sts	0x02D9, r26	; 0x8002d9 <__brkval>
    14f0:	df 91       	pop	r29
    14f2:	cf 91       	pop	r28
    14f4:	08 95       	ret

000014f6 <strncpy_P>:
    14f6:	fb 01       	movw	r30, r22
    14f8:	dc 01       	movw	r26, r24
    14fa:	41 50       	subi	r20, 0x01	; 1
    14fc:	50 40       	sbci	r21, 0x00	; 0
    14fe:	48 f0       	brcs	.+18     	; 0x1512 <strncpy_P+0x1c>
    1500:	05 90       	lpm	r0, Z+
    1502:	0d 92       	st	X+, r0
    1504:	00 20       	and	r0, r0
    1506:	c9 f7       	brne	.-14     	; 0x14fa <strncpy_P+0x4>
    1508:	01 c0       	rjmp	.+2      	; 0x150c <strncpy_P+0x16>
    150a:	1d 92       	st	X+, r1
    150c:	41 50       	subi	r20, 0x01	; 1
    150e:	50 40       	sbci	r21, 0x00	; 0
    1510:	e0 f7       	brcc	.-8      	; 0x150a <strncpy_P+0x14>
    1512:	08 95       	ret

00001514 <strncpy>:
    1514:	fb 01       	movw	r30, r22
    1516:	dc 01       	movw	r26, r24
    1518:	41 50       	subi	r20, 0x01	; 1
    151a:	50 40       	sbci	r21, 0x00	; 0
    151c:	48 f0       	brcs	.+18     	; 0x1530 <strncpy+0x1c>
    151e:	01 90       	ld	r0, Z+
    1520:	0d 92       	st	X+, r0
    1522:	00 20       	and	r0, r0
    1524:	c9 f7       	brne	.-14     	; 0x1518 <strncpy+0x4>
    1526:	01 c0       	rjmp	.+2      	; 0x152a <strncpy+0x16>
    1528:	1d 92       	st	X+, r1
    152a:	41 50       	subi	r20, 0x01	; 1
    152c:	50 40       	sbci	r21, 0x00	; 0
    152e:	e0 f7       	brcc	.-8      	; 0x1528 <strncpy+0x14>
    1530:	08 95       	ret

00001532 <puts>:
    1532:	0f 93       	push	r16
    1534:	1f 93       	push	r17
    1536:	cf 93       	push	r28
    1538:	df 93       	push	r29
    153a:	e0 91 df 02 	lds	r30, 0x02DF	; 0x8002df <__iob+0x2>
    153e:	f0 91 e0 02 	lds	r31, 0x02E0	; 0x8002e0 <__iob+0x3>
    1542:	23 81       	ldd	r18, Z+3	; 0x03
    1544:	21 ff       	sbrs	r18, 1
    1546:	1b c0       	rjmp	.+54     	; 0x157e <puts+0x4c>
    1548:	8c 01       	movw	r16, r24
    154a:	d0 e0       	ldi	r29, 0x00	; 0
    154c:	c0 e0       	ldi	r28, 0x00	; 0
    154e:	f8 01       	movw	r30, r16
    1550:	81 91       	ld	r24, Z+
    1552:	8f 01       	movw	r16, r30
    1554:	60 91 df 02 	lds	r22, 0x02DF	; 0x8002df <__iob+0x2>
    1558:	70 91 e0 02 	lds	r23, 0x02E0	; 0x8002e0 <__iob+0x3>
    155c:	db 01       	movw	r26, r22
    155e:	18 96       	adiw	r26, 0x08	; 8
    1560:	ed 91       	ld	r30, X+
    1562:	fc 91       	ld	r31, X
    1564:	19 97       	sbiw	r26, 0x09	; 9
    1566:	88 23       	and	r24, r24
    1568:	31 f0       	breq	.+12     	; 0x1576 <puts+0x44>
    156a:	09 95       	icall
    156c:	89 2b       	or	r24, r25
    156e:	79 f3       	breq	.-34     	; 0x154e <puts+0x1c>
    1570:	df ef       	ldi	r29, 0xFF	; 255
    1572:	cf ef       	ldi	r28, 0xFF	; 255
    1574:	ec cf       	rjmp	.-40     	; 0x154e <puts+0x1c>
    1576:	8a e0       	ldi	r24, 0x0A	; 10
    1578:	09 95       	icall
    157a:	89 2b       	or	r24, r25
    157c:	19 f0       	breq	.+6      	; 0x1584 <puts+0x52>
    157e:	8f ef       	ldi	r24, 0xFF	; 255
    1580:	9f ef       	ldi	r25, 0xFF	; 255
    1582:	02 c0       	rjmp	.+4      	; 0x1588 <puts+0x56>
    1584:	8d 2f       	mov	r24, r29
    1586:	9c 2f       	mov	r25, r28
    1588:	df 91       	pop	r29
    158a:	cf 91       	pop	r28
    158c:	1f 91       	pop	r17
    158e:	0f 91       	pop	r16
    1590:	08 95       	ret

00001592 <_exit>:
    1592:	f8 94       	cli

00001594 <__stop_program>:
    1594:	ff cf       	rjmp	.-2      	; 0x1594 <__stop_program>
