
ATmega162.elf:     file format elf32-avr

Sections:
Idx Name          Size      VMA       LMA       File off  Algn
  0 .data         000000ba  00800100  000015f4  00001688  2**0
                  CONTENTS, ALLOC, LOAD, DATA
  1 .text         000015f4  00000000  00000000  00000094  2**1
                  CONTENTS, ALLOC, LOAD, READONLY, CODE
  2 .bss          0000001f  008001ba  008001ba  00001742  2**0
                  ALLOC
  3 .comment      00000030  00000000  00000000  00001742  2**0
                  CONTENTS, READONLY
  4 .note.gnu.avr.deviceinfo 0000003c  00000000  00000000  00001774  2**2
                  CONTENTS, READONLY
  5 .debug_aranges 00000288  00000000  00000000  000017b0  2**0
                  CONTENTS, READONLY, DEBUGGING
  6 .debug_info   0000321d  00000000  00000000  00001a38  2**0
                  CONTENTS, READONLY, DEBUGGING
  7 .debug_abbrev 00001117  00000000  00000000  00004c55  2**0
                  CONTENTS, READONLY, DEBUGGING
  8 .debug_line   0000154b  00000000  00000000  00005d6c  2**0
                  CONTENTS, READONLY, DEBUGGING
  9 .debug_frame  000007a4  00000000  00000000  000072b8  2**2
                  CONTENTS, READONLY, DEBUGGING
 10 .debug_str    00000ab5  00000000  00000000  00007a5c  2**0
                  CONTENTS, READONLY, DEBUGGING
 11 .debug_loc    00001f2d  00000000  00000000  00008511  2**0
                  CONTENTS, READONLY, DEBUGGING
 12 .debug_ranges 00000270  00000000  00000000  0000a43e  2**0
                  CONTENTS, READONLY, DEBUGGING

Disassembly of section .text:

00000000 <__vectors>:
       0:	0c 94 f4 02 	jmp	0x5e8	; 0x5e8 <__ctors_end>
       4:	0c 94 11 03 	jmp	0x622	; 0x622 <__bad_interrupt>
       8:	0c 94 11 03 	jmp	0x622	; 0x622 <__bad_interrupt>
       c:	0c 94 11 03 	jmp	0x622	; 0x622 <__bad_interrupt>
      10:	0c 94 11 03 	jmp	0x622	; 0x622 <__bad_interrupt>
      14:	0c 94 11 03 	jmp	0x622	; 0x622 <__bad_interrupt>
      18:	0c 94 11 03 	jmp	0x622	; 0x622 <__bad_interrupt>
      1c:	0c 94 11 03 	jmp	0x622	; 0x622 <__bad_interrupt>
      20:	0c 94 11 03 	jmp	0x622	; 0x622 <__bad_interrupt>
      24:	0c 94 11 03 	jmp	0x622	; 0x622 <__bad_interrupt>
      28:	0c 94 11 03 	jmp	0x622	; 0x622 <__bad_interrupt>
      2c:	0c 94 11 03 	jmp	0x622	; 0x622 <__bad_interrupt>
      30:	0c 94 11 03 	jmp	0x622	; 0x622 <__bad_interrupt>
      34:	0c 94 11 03 	jmp	0x622	; 0x622 <__bad_interrupt>
      38:	0c 94 11 03 	jmp	0x622	; 0x622 <__bad_interrupt>
      3c:	0c 94 08 0a 	jmp	0x1410	; 0x1410 <__vector_15>
      40:	0c 94 11 03 	jmp	0x622	; 0x622 <__bad_interrupt>
      44:	0c 94 11 03 	jmp	0x622	; 0x622 <__bad_interrupt>
      48:	0c 94 11 03 	jmp	0x622	; 0x622 <__bad_interrupt>
      4c:	0c 94 3e 03 	jmp	0x67c	; 0x67c <__vector_19>
      50:	0c 94 11 03 	jmp	0x622	; 0x622 <__bad_interrupt>
      54:	0c 94 11 03 	jmp	0x622	; 0x622 <__bad_interrupt>
      58:	0c 94 11 03 	jmp	0x622	; 0x622 <__bad_interrupt>
      5c:	0c 94 11 03 	jmp	0x622	; 0x622 <__bad_interrupt>
      60:	0c 94 11 03 	jmp	0x622	; 0x622 <__bad_interrupt>
      64:	0c 94 11 03 	jmp	0x622	; 0x622 <__bad_interrupt>
      68:	0c 94 11 03 	jmp	0x622	; 0x622 <__bad_interrupt>
      6c:	0c 94 11 03 	jmp	0x622	; 0x622 <__bad_interrupt>

00000070 <__trampolines_end>:
      70:	20 53       	subi	r18, 0x30	; 48
      72:	6f 75       	andi	r22, 0x5F	; 95
      74:	6e 64       	ori	r22, 0x4E	; 78
      76:	20 20       	and	r2, r0
      78:	20 20       	and	r2, r0
      7a:	20 20       	and	r2, r0
      7c:	20 20       	and	r2, r0
      7e:	20 20       	and	r2, r0
      80:	20 42       	sbci	r18, 0x20	; 32
      82:	72 69       	ori	r23, 0x92	; 146
      84:	67 68       	ori	r22, 0x87	; 135
      86:	74 6e       	ori	r23, 0xE4	; 228
      88:	65 73       	andi	r22, 0x35	; 53
      8a:	73 20       	and	r7, r3
      8c:	20 20       	and	r2, r0
      8e:	20 20       	and	r2, r0
      90:	20 43       	sbci	r18, 0x30	; 48
      92:	6f 6e       	ori	r22, 0xEF	; 239
      94:	74 72       	andi	r23, 0x24	; 36
      96:	6f 6c       	ori	r22, 0xCF	; 207
      98:	73 20       	and	r7, r3
      9a:	20 20       	and	r2, r0
      9c:	20 20       	and	r2, r0
      9e:	20 20       	and	r2, r0
      a0:	20 42       	sbci	r18, 0x20	; 32
      a2:	61 63       	ori	r22, 0x31	; 49
      a4:	6b 20       	and	r6, r11
      a6:	20 20       	and	r2, r0
      a8:	20 20       	and	r2, r0
      aa:	20 20       	and	r2, r0
      ac:	20 20       	and	r2, r0
      ae:	20 20       	and	r2, r0

000000b0 <scrollMenuItems>:
      b0:	20 49 74 65 6d 20 31 20 20 42 41 43 4b 20 20 20      Item 1  BACK   
      c0:	20 49 74 65 6d 20 32 20 20 20 20 20 20 20 20 20      Item 2         
      d0:	20 49 74 65 6d 20 33 20 20 20 20 20 20 20 20 20      Item 3         
      e0:	20 49 74 65 6d 20 34 20 20 20 20 20 20 20 20 20      Item 4         
      f0:	20 49 74 65 6d 20 35 20 20 20 20 20 20 20 20 20      Item 5         
     100:	20 49 74 65 6d 20 36 20 20 20 20 20 20 20 20 20      Item 6         
     110:	20 49 74 65 6d 20 37 20 20 20 20 20 20 20 20 20      Item 7         
     120:	20 49 74 65 6d 20 38 20 20 20 20 20 20 20 20 20      Item 8         
     130:	20 49 74 65 6d 20 39 20 20 20 20 20 20 20 20 20      Item 9         
     140:	20 49 74 65 6d 20 31 30 20 20 20 20 20 20 20 20      Item 10        
     150:	20 49 74 65 6d 20 31 31 20 20 20 20 20 20 20 20      Item 11        
     160:	20 49 74 65 6d 20 31 32 20 20 20 20 20 20 20 20      Item 12        
     170:	20 49 74 65 6d 20 31 33 20 20 20 20 20 20 20 20      Item 13        
     180:	20 49 74 65 6d 20 31 34 20 20 20 20 20 20 20 20      Item 14        
     190:	20 49 74 65 6d 20 31 35 20 20 20 20 20 20 20 20      Item 15        
     1a0:	20 49 74 65 6d 20 31 36 20 20 20 20 20 20 20 20      Item 16        
     1b0:	20 49 74 65 6d 20 31 37 20 20 20 20 20 20 20 20      Item 17        
     1c0:	20 49 74 65 6d 20 31 38 20 20 20 20 20 20 20 20      Item 18        
     1d0:	20 49 74 65 6d 20 31 39 20 20 20 20 20 20 20 20      Item 19        
     1e0:	20 49 74 65 6d 20 32 30 20 20 20 20 20 20 20 20      Item 20        

000001f0 <mainMenuItems>:
     1f0:	20 53 74 61 72 74 20 47 61 6d 65 20 20 20 20 20      Start Game     
     200:	20 53 65 74 74 69 6e 67 73 20 20 20 20 20 20 20      Settings       
     210:	20 48 69 67 68 20 53 63 6f 72 65 73 20 20 20 20      High Scores    
     220:	20 43 72 65 64 69 74 73 20 20 20 20 20 20 20 20      Credits        
     230:	20 45 78 69 74 20 20 20 20 20 20 20 20 20 20 20      Exit           
	...

00000270 <solkors>:
     270:	20 20 20 79 61 70 40 40 40 2a 20 20 20 20 20 20        yap@@@*      
     280:	20 20 20 23 40 40 40 23 20 20 20 2a 23 20 20 20        #@@@#   *#   
     290:	20 20 23 40 40 40 2a 20 20 2a 40 40 40 40 23 20       #@@@*  *@@@@# 
     2a0:	2a 20 20 2b 23 40 40 40 40 40 40 20 20 40 40 40     *  +#@@@@@@  @@@
     2b0:	40 40 20 20 20 2b 40 40 40 40 2a 20 20 20 40 40     @@   +@@@@*   @@
     2c0:	40 40 40 25 25 40 40 40 40 40 40 20 2b 20 20 2a     @@@%%@@@@@@ +  *
     2d0:	20 23 40 40 40 40 2a 20 20 2a 40 40 40 23 20 20      #@@@@*  *@@@#  
     2e0:	20 20 20 23 23 20 20 20 23 40 40 40 23 20 20 20        ##   #@@@#   

000002f0 <font8x8_basic>:
	...
     2f8:	00 00 5f 00 00 00 00 00 00 07 00 07 00 00 00 00     .._.............
     308:	14 7f 14 7f 14 00 00 00 24 2a 7f 2a 12 00 00 00     ........$*.*....
     318:	23 13 08 64 62 00 00 00 36 49 56 20 50 00 00 00     #..db...6IV P...
     328:	00 08 07 03 00 00 00 00 00 1c 22 41 00 00 00 00     .........."A....
     338:	00 41 22 1c 00 00 00 00 14 08 3e 08 14 00 00 00     .A".......>.....
     348:	08 08 3e 08 08 00 00 00 00 50 30 00 00 00 00 00     ..>......P0.....
     358:	08 08 08 08 08 00 00 00 00 60 60 00 00 00 00 00     .........``.....
     368:	20 10 08 04 02 00 00 00 3e 51 49 45 3e 00 00 00      .......>QIE>...
     378:	00 42 7f 40 00 00 00 00 42 61 51 49 46 00 00 00     .B.@....BaQIF...
     388:	21 41 45 4b 31 00 00 00 18 14 12 7f 10 00 00 00     !AEK1...........
     398:	27 45 45 45 39 00 00 00 3c 4a 49 49 30 00 00 00     'EEE9...<JII0...
     3a8:	01 71 09 05 03 00 00 00 36 49 49 49 36 00 00 00     .q......6III6...
     3b8:	06 49 49 29 1e 00 00 00 00 36 36 00 00 00 00 00     .II).....66.....
     3c8:	00 56 36 00 00 00 00 00 08 14 22 41 00 00 00 00     .V6......."A....
     3d8:	14 14 14 14 14 14 00 00 41 22 14 08 00 00 00 00     ........A"......
     3e8:	02 01 51 09 06 00 00 00 3e 41 5d 5d 1e 00 00 00     ..Q.....>A]]....
     3f8:	7e 11 11 11 7e 00 00 00 7f 49 49 49 36 00 00 00     ~...~....III6...
     408:	3e 41 41 41 22 00 00 00 7f 41 41 22 1c 00 00 00     >AAA"....AA"....
     418:	7f 49 49 49 41 00 00 00 7f 09 09 09 01 00 00 00     .IIIA...........
     428:	3e 41 49 49 7a 00 00 00 7f 08 08 08 7f 00 00 00     >AIIz...........
     438:	00 41 7f 41 00 00 00 00 20 40 41 3f 01 00 00 00     .A.A.... @A?....
     448:	7f 08 14 22 41 00 00 00 7f 40 40 40 40 00 00 00     ..."A....@@@@...
     458:	7f 02 04 02 7f 00 00 00 7f 02 04 08 7f 00 00 00     ................
     468:	3e 41 41 41 3e 00 00 00 7f 09 09 09 06 00 00 00     >AAA>...........
     478:	3e 41 51 21 5e 00 00 00 7f 09 19 29 46 00 00 00     >AQ!^......)F...
     488:	46 49 49 49 31 00 00 00 01 01 7f 01 01 00 00 00     FIII1...........
     498:	3f 40 40 40 3f 00 00 00 1f 20 40 20 1f 00 00 00     ?@@@?.... @ ....
     4a8:	7f 20 18 20 7f 00 00 00 63 14 08 14 63 00 00 00     . . ....c...c...
     4b8:	03 04 78 04 03 00 00 00 61 51 49 45 43 00 00 00     ..x.....aQIEC...
     4c8:	00 3e 41 41 00 00 00 00 02 04 08 10 20 00 00 00     .>AA........ ...
     4d8:	00 41 41 3e 00 00 00 00 04 02 01 02 04 00 00 00     .AA>............
     4e8:	40 40 40 40 40 40 00 00 00 00 03 07 00 00 00 00     @@@@@@..........
     4f8:	20 54 54 54 78 00 00 00 7f 48 44 44 38 00 00 00      TTTx....HDD8...
     508:	38 44 44 44 20 00 00 00 38 44 44 48 7f 00 00 00     8DDD ...8DDH....
     518:	38 54 54 54 18 00 00 00 08 7e 09 01 02 00 00 00     8TTT.....~......
     528:	08 14 54 54 3c 00 00 00 7f 08 04 04 78 00 00 00     ..TT<.......x...
     538:	00 44 7d 40 00 00 00 00 20 40 44 3d 00 00 00 00     .D}@.... @D=....
     548:	00 7f 10 28 44 00 00 00 00 41 7f 40 00 00 00 00     ...(D....A.@....
     558:	7c 04 18 04 78 00 00 00 7c 08 04 04 78 00 00 00     |...x...|...x...
     568:	38 44 44 44 38 00 00 00 7c 14 14 14 08 00 00 00     8DDD8...|.......
     578:	08 14 14 18 7c 00 00 00 7c 08 04 04 08 00 00 00     ....|...|.......
     588:	48 54 54 54 20 00 00 00 04 3f 44 40 20 00 00 00     HTTT ....?D@ ...
     598:	3c 40 40 20 7c 00 00 00 1c 20 40 20 1c 00 00 00     <@@ |.... @ ....
     5a8:	3c 40 30 40 3c 00 00 00 44 28 10 28 44 00 00 00     <@0@<...D(.(D...
     5b8:	0c 50 50 50 3c 00 00 00 44 64 54 4c 44 00 00 00     .PPP<...DdTLD...
     5c8:	00 08 36 41 00 00 00 00 00 00 7f 00 00 00 00 00     ..6A............
     5d8:	00 41 36 08 00 00 00 00 08 04 08 10 08 00 00 00     .A6.............

000005e8 <__ctors_end>:
     5e8:	11 24       	eor	r1, r1
     5ea:	1f be       	out	0x3f, r1	; 63
     5ec:	cf ef       	ldi	r28, 0xFF	; 255
     5ee:	d4 e0       	ldi	r29, 0x04	; 4
     5f0:	de bf       	out	0x3e, r29	; 62
     5f2:	cd bf       	out	0x3d, r28	; 61

000005f4 <__do_copy_data>:
     5f4:	11 e0       	ldi	r17, 0x01	; 1
     5f6:	a0 e0       	ldi	r26, 0x00	; 0
     5f8:	b1 e0       	ldi	r27, 0x01	; 1
     5fa:	e4 ef       	ldi	r30, 0xF4	; 244
     5fc:	f5 e1       	ldi	r31, 0x15	; 21
     5fe:	02 c0       	rjmp	.+4      	; 0x604 <__do_copy_data+0x10>
     600:	05 90       	lpm	r0, Z+
     602:	0d 92       	st	X+, r0
     604:	aa 3b       	cpi	r26, 0xBA	; 186
     606:	b1 07       	cpc	r27, r17
     608:	d9 f7       	brne	.-10     	; 0x600 <__do_copy_data+0xc>

0000060a <__do_clear_bss>:
     60a:	21 e0       	ldi	r18, 0x01	; 1
     60c:	aa eb       	ldi	r26, 0xBA	; 186
     60e:	b1 e0       	ldi	r27, 0x01	; 1
     610:	01 c0       	rjmp	.+2      	; 0x614 <.do_clear_bss_start>

00000612 <.do_clear_bss_loop>:
     612:	1d 92       	st	X+, r1

00000614 <.do_clear_bss_start>:
     614:	a9 3d       	cpi	r26, 0xD9	; 217
     616:	b2 07       	cpc	r27, r18
     618:	e1 f7       	brne	.-8      	; 0x612 <.do_clear_bss_loop>
     61a:	0e 94 4b 03 	call	0x696	; 0x696 <main>
     61e:	0c 94 f8 0a 	jmp	0x15f0	; 0x15f0 <_exit>

00000622 <__bad_interrupt>:
     622:	0c 94 00 00 	jmp	0	; 0x0 <__vectors>

00000626 <UART_Init>:
	setBit(UCSR0B, RXCIE0);
}

// Deaktiver avbrot for nÂr data blir mottatt
void UART_DisableReceiveInterrupt(void) {
	clearBit(UCSR0B, RXCIE0);
     626:	90 bd       	out	0x20, r25	; 32
     628:	89 b9       	out	0x09, r24	; 9
     62a:	54 9a       	sbi	0x0a, 4	; 10
     62c:	53 9a       	sbi	0x0a, 3	; 10
     62e:	8e e8       	ldi	r24, 0x8E	; 142
     630:	80 bd       	out	0x20, r24	; 32
     632:	08 95       	ret

00000634 <UART_SendChar>:
     634:	5d 9b       	sbis	0x0b, 5	; 11
     636:	fe cf       	rjmp	.-4      	; 0x634 <UART_SendChar>
     638:	8c b9       	out	0x0c, r24	; 12
     63a:	08 95       	ret

0000063c <UART_putChar>:
     63c:	0e 94 1a 03 	call	0x634	; 0x634 <UART_SendChar>
     640:	80 e0       	ldi	r24, 0x00	; 0
     642:	90 e0       	ldi	r25, 0x00	; 0
     644:	08 95       	ret

00000646 <UART_ReceiveChar>:
     646:	5f 9b       	sbis	0x0b, 7	; 11
     648:	fe cf       	rjmp	.-4      	; 0x646 <UART_ReceiveChar>
     64a:	8c b1       	in	r24, 0x0c	; 12
     64c:	08 95       	ret

0000064e <UART_getChar>:
     64e:	cf 93       	push	r28
     650:	0e 94 23 03 	call	0x646	; 0x646 <UART_ReceiveChar>
     654:	c8 2f       	mov	r28, r24
     656:	0e 94 1a 03 	call	0x634	; 0x634 <UART_SendChar>
     65a:	8c 2f       	mov	r24, r28
     65c:	90 e0       	ldi	r25, 0x00	; 0
     65e:	cf 91       	pop	r28
     660:	08 95       	ret

00000662 <URAT_initStudio>:
     662:	e3 ed       	ldi	r30, 0xD3	; 211
     664:	f1 e0       	ldi	r31, 0x01	; 1
     666:	8e e0       	ldi	r24, 0x0E	; 14
     668:	91 e0       	ldi	r25, 0x01	; 1
     66a:	93 83       	std	Z+3, r25	; 0x03
     66c:	82 83       	std	Z+2, r24	; 0x02
     66e:	80 e0       	ldi	r24, 0x00	; 0
     670:	91 e0       	ldi	r25, 0x01	; 1
     672:	91 83       	std	Z+1, r25	; 0x01
     674:	80 83       	st	Z, r24
     676:	08 95       	ret

00000678 <UART_EnableReceiveInterrupt>:
     678:	57 9a       	sbi	0x0a, 7	; 10
     67a:	08 95       	ret

0000067c <__vector_19>:
}

// UART mottaksavbrotvektor USART0_RX_vect
ISR(USART0_RXC_vect) {
     67c:	1f 92       	push	r1
     67e:	0f 92       	push	r0
     680:	0f b6       	in	r0, 0x3f	; 63
     682:	0f 92       	push	r0
     684:	11 24       	eor	r1, r1
     686:	8f 93       	push	r24
	// Handter mottatt data
	char received = UDR0;
     688:	8c b1       	in	r24, 0x0c	; 12
}
     68a:	8f 91       	pop	r24
     68c:	0f 90       	pop	r0
     68e:	0f be       	out	0x3f, r0	; 63
     690:	0f 90       	pop	r0
     692:	1f 90       	pop	r1
     694:	18 95       	reti

00000696 <main>:

#include "DriverUART.h"
#include "SRAM.h"
#include "Menu_init.h"

int main(void) {
     696:	cf 93       	push	r28
     698:	df 93       	push	r29
     69a:	cd b7       	in	r28, 0x3d	; 61
     69c:	de b7       	in	r29, 0x3e	; 62
     69e:	60 97       	sbiw	r28, 0x10	; 16
     6a0:	0f b6       	in	r0, 0x3f	; 63
     6a2:	f8 94       	cli
     6a4:	de bf       	out	0x3e, r29	; 62
     6a6:	0f be       	out	0x3f, r0	; 63
     6a8:	cd bf       	out	0x3d, r28	; 61
	/*_________________INITIALISERINGER START______________________*/
	/*--- Initialiser UART ---*/
	UART_Init(MYUBBR);
     6aa:	8f e1       	ldi	r24, 0x1F	; 31
     6ac:	90 e0       	ldi	r25, 0x00	; 0
     6ae:	0e 94 13 03 	call	0x626	; 0x626 <UART_Init>
	URAT_initStudio();
     6b2:	0e 94 31 03 	call	0x662	; 0x662 <URAT_initStudio>
	UART_EnableReceiveInterrupt();
     6b6:	0e 94 3c 03 	call	0x678	; 0x678 <UART_EnableReceiveInterrupt>
    setup_timer();						// Start millisekundteljinga
     6ba:	0e 94 4c 0a 	call	0x1498	; 0x1498 <setup_timer>
	sei();								// Aktiver globale avbrot
     6be:	78 94       	sei
	/*--- Ditta mÂ (noko av det ihvertfall) vere etter sei() ---*/
	externalMemoryInit();				// Initialiser eksternt minne mÂ vere etter sei
     6c0:	0e 94 5f 0a 	call	0x14be	; 0x14be <externalMemoryInit>
	initialize_menus();
     6c4:	0e 94 25 06 	call	0xc4a	; 0xc4a <initialize_menus>
	MultiBoard board;
	MultiBoard_Init(&board);			// Initialiser MultiBoard og kalibrer joystickens origo
     6c8:	ce 01       	movw	r24, r28
     6ca:	01 96       	adiw	r24, 0x01	; 1
     6cc:	0e 94 47 06 	call	0xc8e	; 0xc8e <MultiBoard_Init>
	oled_init();						// Initialiser OLED-skjermen
     6d0:	0e 94 54 07 	call	0xea8	; 0xea8 <oled_init>
		/*--- Optional setup ---*/
			//setup_printf_for_oled();		
			//SRAM_test();
		
	/*_______OLED + LOGO_______*/
	oled_clear_screen();
     6d4:	0e 94 00 09 	call	0x1200	; 0x1200 <oled_clear_screen>
	/*- Den komboen her var heilt nydelig -*/
		oled_draw_line(10, 10, 100, 50);
     6d8:	22 e3       	ldi	r18, 0x32	; 50
     6da:	44 e6       	ldi	r20, 0x64	; 100
     6dc:	6a e0       	ldi	r22, 0x0A	; 10
     6de:	8a e0       	ldi	r24, 0x0A	; 10
     6e0:	0e 94 10 09 	call	0x1220	; 0x1220 <oled_draw_line>
		oled_draw_circle(64, 32, 20);
     6e4:	44 e1       	ldi	r20, 0x14	; 20
     6e6:	50 e0       	ldi	r21, 0x00	; 0
     6e8:	60 e2       	ldi	r22, 0x20	; 32
     6ea:	70 e0       	ldi	r23, 0x00	; 0
     6ec:	80 e4       	ldi	r24, 0x40	; 64
     6ee:	90 e0       	ldi	r25, 0x00	; 0
     6f0:	0e 94 73 09 	call	0x12e6	; 0x12e6 <oled_draw_circle>
		oled_draw_square(20, 20, 40, 30);
     6f4:	2e e1       	ldi	r18, 0x1E	; 30
     6f6:	48 e2       	ldi	r20, 0x28	; 40
     6f8:	64 e1       	ldi	r22, 0x14	; 20
     6fa:	84 e1       	ldi	r24, 0x14	; 20
     6fc:	0e 94 e3 09 	call	0x13c6	; 0x13c6 <oled_draw_square>
	oled_data_from_SRAM();
     700:	0e 94 97 07 	call	0xf2e	; 0xf2e <oled_data_from_SRAM>
	#else
		//round up by default
		__ticks_dc = (uint32_t)(ceil(fabs(__tmp)));
	#endif

	__builtin_avr_delay_cycles(__ticks_dc);
     704:	2f ef       	ldi	r18, 0xFF	; 255
     706:	8f e7       	ldi	r24, 0x7F	; 127
     708:	97 e0       	ldi	r25, 0x07	; 7
     70a:	21 50       	subi	r18, 0x01	; 1
     70c:	80 40       	sbci	r24, 0x00	; 0
     70e:	90 40       	sbci	r25, 0x00	; 0
     710:	e1 f7       	brne	.-8      	; 0x70a <main+0x74>
     712:	00 c0       	rjmp	.+0      	; 0x714 <main+0x7e>
     714:	00 00       	nop
	_delay_ms(500);
	
	/*______MENY______*/
	current_menu = &mainMenu; //kan kanskje teste med Â starte i ein anna meny
     716:	87 ec       	ldi	r24, 0xC7	; 199
     718:	91 e0       	ldi	r25, 0x01	; 1
     71a:	90 93 bb 01 	sts	0x01BB, r25	; 0x8001bb <__data_end+0x1>
     71e:	80 93 ba 01 	sts	0x01BA, r24	; 0x8001ba <__data_end>
	write_menu_oled_to_SRAM(current_menu);
     722:	0e 94 ea 03 	call	0x7d4	; 0x7d4 <write_menu_oled_to_SRAM>
	
	/*_______HOVUDLÿKKE______*/
	 while (1) {

        menu_navigate(&board, current_menu);  // Kallar `menu_navigate` med referanse til gjeldande meny
     726:	60 91 ba 01 	lds	r22, 0x01BA	; 0x8001ba <__data_end>
     72a:	70 91 bb 01 	lds	r23, 0x01BB	; 0x8001bb <__data_end+0x1>
     72e:	ce 01       	movw	r24, r28
     730:	01 96       	adiw	r24, 0x01	; 1
     732:	0e 94 fd 05 	call	0xbfa	; 0xbfa <menu_navigate>
		Det kunne vert fornuftig med eit flag her dÂ
		
		16ms skal gi ich 60hz, gitt at resten av programmet kj¯rer raskt nok...
		*/
		
		if (get_screen_time_in_ms() >= 16) {
     736:	0e 94 41 0a 	call	0x1482	; 0x1482 <get_screen_time_in_ms>
     73a:	60 31       	cpi	r22, 0x10	; 16
     73c:	71 05       	cpc	r23, r1
     73e:	81 05       	cpc	r24, r1
     740:	91 05       	cpc	r25, r1
     742:	88 f3       	brcs	.-30     	; 0x726 <main+0x90>
			restart_screen_timer();
     744:	0e 94 54 0a 	call	0x14a8	; 0x14a8 <restart_screen_timer>
			oled_data_from_SRAM();
     748:	0e 94 97 07 	call	0xf2e	; 0xf2e <oled_data_from_SRAM>
     74c:	ec cf       	rjmp	.-40     	; 0x726 <main+0x90>

0000074e <update_menu_position_from_joystick>:
	oled_write_char_to_SRAM(new_position, 0, '>');
}


// Oppdaterer menyposisjonen fr√• joystick-input hugs √• kalle p√• MultiBoard_Update(board);  // Oppdater joystick-posisjonen
void update_menu_position_from_joystick(MultiBoard* board, Menu* menu) {
     74e:	fb 01       	movw	r30, r22
	int16_t joyY = (int16_t)(board->JoyYposCal);  // Les Y-posisjonen fr√• joysticken
     750:	dc 01       	movw	r26, r24
     752:	1c 96       	adiw	r26, 0x0c	; 12
     754:	8d 91       	ld	r24, X+
     756:	9c 91       	ld	r25, X
     758:	1d 97       	sbiw	r26, 0x0d	; 13
	
	// Beveg oppover i menyen
	if (joyY > 50) {
     75a:	83 33       	cpi	r24, 0x33	; 51
     75c:	91 05       	cpc	r25, r1
     75e:	ac f0       	brlt	.+42     	; 0x78a <update_menu_position_from_joystick+0x3c>
		if (menu->current_position > 0) {
     760:	82 81       	ldd	r24, Z+2	; 0x02
     762:	88 23       	and	r24, r24
     764:	b1 f1       	breq	.+108    	; 0x7d2 <update_menu_position_from_joystick+0x84>
			menu->prev_position = menu->current_position;
     766:	83 83       	std	Z+3, r24	; 0x03
			menu->current_position--;
     768:	81 50       	subi	r24, 0x01	; 1
     76a:	82 83       	std	Z+2, r24	; 0x02

			// Hvis vi har scrollet forbi synlege element, oppdater scroll_offset
			// d√• m√• vi og oppdatere heile menyen
			if (menu->current_position < menu->scroll_offset) {
     76c:	94 81       	ldd	r25, Z+4	; 0x04
     76e:	89 17       	cp	r24, r25
     770:	10 f4       	brcc	.+4      	; 0x776 <update_menu_position_from_joystick+0x28>
				menu->scroll_offset--;
     772:	91 50       	subi	r25, 0x01	; 1
     774:	94 83       	std	Z+4, r25	; 0x04
     776:	bf ef       	ldi	r27, 0xFF	; 255
     778:	2f e7       	ldi	r18, 0x7F	; 127
     77a:	81 e0       	ldi	r24, 0x01	; 1
     77c:	b1 50       	subi	r27, 0x01	; 1
     77e:	20 40       	sbci	r18, 0x00	; 0
     780:	80 40       	sbci	r24, 0x00	; 0
     782:	e1 f7       	brne	.-8      	; 0x77c <update_menu_position_from_joystick+0x2e>
     784:	00 c0       	rjmp	.+0      	; 0x786 <update_menu_position_from_joystick+0x38>
     786:	00 c0       	rjmp	.+0      	; 0x788 <update_menu_position_from_joystick+0x3a>
     788:	08 95       	ret
			//}
			_delay_ms(100);  // Forsinkelse for √• unng√• rask scrolling
		}
	}
	// Beveg nedover i menyen
	else if (joyY < -50) {
     78a:	8e 3c       	cpi	r24, 0xCE	; 206
     78c:	9f 4f       	sbci	r25, 0xFF	; 255
     78e:	0c f5       	brge	.+66     	; 0x7d2 <update_menu_position_from_joystick+0x84>
		if (menu->current_position < menu->num_items - 1) {
     790:	82 81       	ldd	r24, Z+2	; 0x02
     792:	48 2f       	mov	r20, r24
     794:	50 e0       	ldi	r21, 0x00	; 0
     796:	25 81       	ldd	r18, Z+5	; 0x05
     798:	30 e0       	ldi	r19, 0x00	; 0
     79a:	21 50       	subi	r18, 0x01	; 1
     79c:	31 09       	sbc	r19, r1
     79e:	42 17       	cp	r20, r18
     7a0:	53 07       	cpc	r21, r19
     7a2:	bc f4       	brge	.+46     	; 0x7d2 <update_menu_position_from_joystick+0x84>
			menu->prev_position = menu->current_position;
     7a4:	83 83       	std	Z+3, r24	; 0x03
			
			menu->current_position++;
     7a6:	8f 5f       	subi	r24, 0xFF	; 255
     7a8:	82 83       	std	Z+2, r24	; 0x02

			// Hvis vi har n√•dd slutten av den synlege menyen, oppdater scroll_offset
			if (menu->current_position >= menu->scroll_offset + MENU_ITEMS_PER_PAGE) {
     7aa:	44 81       	ldd	r20, Z+4	; 0x04
     7ac:	90 e0       	ldi	r25, 0x00	; 0
     7ae:	24 2f       	mov	r18, r20
     7b0:	30 e0       	ldi	r19, 0x00	; 0
     7b2:	28 5f       	subi	r18, 0xF8	; 248
     7b4:	3f 4f       	sbci	r19, 0xFF	; 255
     7b6:	82 17       	cp	r24, r18
     7b8:	93 07       	cpc	r25, r19
     7ba:	14 f0       	brlt	.+4      	; 0x7c0 <update_menu_position_from_joystick+0x72>
				menu->scroll_offset++;
     7bc:	4f 5f       	subi	r20, 0xFF	; 255
     7be:	44 83       	std	Z+4, r20	; 0x04
     7c0:	bf ef       	ldi	r27, 0xFF	; 255
     7c2:	2f e7       	ldi	r18, 0x7F	; 127
     7c4:	81 e0       	ldi	r24, 0x01	; 1
     7c6:	b1 50       	subi	r27, 0x01	; 1
     7c8:	20 40       	sbci	r18, 0x00	; 0
     7ca:	80 40       	sbci	r24, 0x00	; 0
     7cc:	e1 f7       	brne	.-8      	; 0x7c6 <update_menu_position_from_joystick+0x78>
     7ce:	00 c0       	rjmp	.+0      	; 0x7d0 <update_menu_position_from_joystick+0x82>
     7d0:	00 c0       	rjmp	.+0      	; 0x7d2 <update_menu_position_from_joystick+0x84>
     7d2:	08 95       	ret

000007d4 <write_menu_oled_to_SRAM>:
}




void write_menu_oled_to_SRAM(Menu* menu){
     7d4:	2f 92       	push	r2
     7d6:	3f 92       	push	r3
     7d8:	4f 92       	push	r4
     7da:	5f 92       	push	r5
     7dc:	6f 92       	push	r6
     7de:	7f 92       	push	r7
     7e0:	8f 92       	push	r8
     7e2:	9f 92       	push	r9
     7e4:	af 92       	push	r10
     7e6:	bf 92       	push	r11
     7e8:	cf 92       	push	r12
     7ea:	df 92       	push	r13
     7ec:	ef 92       	push	r14
     7ee:	ff 92       	push	r15
     7f0:	0f 93       	push	r16
     7f2:	1f 93       	push	r17
     7f4:	cf 93       	push	r28
     7f6:	df 93       	push	r29
     7f8:	cd b7       	in	r28, 0x3d	; 61
     7fa:	de b7       	in	r29, 0x3e	; 62
     7fc:	2a 97       	sbiw	r28, 0x0a	; 10
     7fe:	0f b6       	in	r0, 0x3f	; 63
     800:	f8 94       	cli
     802:	de bf       	out	0x3e, r29	; 62
     804:	0f be       	out	0x3f, r0	; 63
     806:	cd bf       	out	0x3d, r28	; 61
     808:	7c 01       	movw	r14, r24
	// vist m√•let er √• sjekke om det er meir enn 8 s√• blir ditta feil.
	//num_items helder antall "linjer"s√• i staden for √• sjekke over 128 skulle det vert over 8
	uint8_t menuSize = menu->num_items; 
     80a:	dc 01       	movw	r26, r24
     80c:	15 96       	adiw	r26, 0x05	; 5
     80e:	8c 91       	ld	r24, X
	
	//Om det er 8 eller mindre linjer (bytte til if(menuSize <= 8){
	if(menuSize <= 8){
     810:	89 30       	cpi	r24, 0x09	; 9
     812:	08 f0       	brcs	.+2      	; 0x816 <write_menu_oled_to_SRAM+0x42>
     814:	bb c0       	rjmp	.+374    	; 0x98c <write_menu_oled_to_SRAM+0x1b8>
		for(uint16_t j = 0; j < menuSize*16; j++) {
     816:	e8 2f       	mov	r30, r24
     818:	f0 e0       	ldi	r31, 0x00	; 0
     81a:	f8 87       	std	Y+8, r31	; 0x08
     81c:	ef 83       	std	Y+7, r30	; 0x07
     81e:	e2 95       	swap	r30
     820:	f2 95       	swap	r31
     822:	f0 7f       	andi	r31, 0xF0	; 240
     824:	fe 27       	eor	r31, r30
     826:	e0 7f       	andi	r30, 0xF0	; 240
     828:	fe 27       	eor	r31, r30
     82a:	fc 83       	std	Y+4, r31	; 0x04
     82c:	eb 83       	std	Y+3, r30	; 0x03
     82e:	fe 83       	std	Y+6, r31	; 0x06
     830:	ed 83       	std	Y+5, r30	; 0x05
     832:	ef 2b       	or	r30, r31
     834:	09 f4       	brne	.+2      	; 0x838 <write_menu_oled_to_SRAM+0x64>
     836:	6d c0       	rjmp	.+218    	; 0x912 <write_menu_oled_to_SRAM+0x13e>
     838:	1a 82       	std	Y+2, r1	; 0x02
     83a:	19 82       	std	Y+1, r1	; 0x01
     83c:	41 2c       	mov	r4, r1
     83e:	51 2c       	mov	r5, r1
     840:	0f 2e       	mov	r0, r31
     842:	f8 ee       	ldi	r31, 0xE8	; 232
     844:	8f 2e       	mov	r8, r31
     846:	f3 e0       	ldi	r31, 0x03	; 3
     848:	9f 2e       	mov	r9, r31
     84a:	f0 2d       	mov	r31, r0
			char c = pgm_read_byte(&menu->items[j]);
			for(int i = 0; i < 8; i++){
				if((j%16 == 0) & (j/16 == menu->current_position)){
     84c:	33 24       	eor	r3, r3
     84e:	33 94       	inc	r3
     850:	21 2c       	mov	r2, r1
	uint8_t menuSize = menu->num_items; 
	
	//Om det er 8 eller mindre linjer (bytte til if(menuSize <= 8){
	if(menuSize <= 8){
		for(uint16_t j = 0; j < menuSize*16; j++) {
			char c = pgm_read_byte(&menu->items[j]);
     852:	d7 01       	movw	r26, r14
     854:	ed 91       	ld	r30, X+
     856:	fc 91       	ld	r31, X
     858:	e4 0d       	add	r30, r4
     85a:	f5 1d       	adc	r31, r5
     85c:	84 91       	lpm	r24, Z
			for(int i = 0; i < 8; i++){
				if((j%16 == 0) & (j/16 == menu->current_position)){
     85e:	32 01       	movw	r6, r4
     860:	76 94       	lsr	r7
     862:	67 94       	ror	r6
     864:	76 94       	lsr	r7
     866:	67 94       	ror	r6
     868:	76 94       	lsr	r7
     86a:	67 94       	ror	r6
     86c:	76 94       	lsr	r7
     86e:	67 94       	ror	r6
					SRAM_write(j*8 + i, pgm_read_byte(&font8x8_basic[('>'-32)*8 + i]));
				}
				else{
					SRAM_write(j*8 + i, pgm_read_byte(&font8x8_basic[(c-32)*8 + i]));	
     870:	c8 2e       	mov	r12, r24
     872:	d1 2c       	mov	r13, r1
     874:	c6 01       	movw	r24, r12
     876:	88 0f       	add	r24, r24
     878:	99 1f       	adc	r25, r25
     87a:	88 0f       	add	r24, r24
     87c:	99 1f       	adc	r25, r25
     87e:	88 0f       	add	r24, r24
     880:	99 1f       	adc	r25, r25
     882:	e0 ee       	ldi	r30, 0xE0	; 224
     884:	f3 e0       	ldi	r31, 0x03	; 3
     886:	fa 87       	std	Y+10, r31	; 0x0a
     888:	e9 87       	std	Y+9, r30	; 0x09
     88a:	09 81       	ldd	r16, Y+1	; 0x01
     88c:	1a 81       	ldd	r17, Y+2	; 0x02
	//Om det er 8 eller mindre linjer (bytte til if(menuSize <= 8){
	if(menuSize <= 8){
		for(uint16_t j = 0; j < menuSize*16; j++) {
			char c = pgm_read_byte(&menu->items[j]);
			for(int i = 0; i < 8; i++){
				if((j%16 == 0) & (j/16 == menu->current_position)){
     88e:	52 01       	movw	r10, r4
     890:	ff e0       	ldi	r31, 0x0F	; 15
     892:	af 22       	and	r10, r31
     894:	bb 24       	eor	r11, r11
					SRAM_write(j*8 + i, pgm_read_byte(&font8x8_basic[('>'-32)*8 + i]));
				}
				else{
					SRAM_write(j*8 + i, pgm_read_byte(&font8x8_basic[(c-32)*8 + i]));	
     896:	9c 01       	movw	r18, r24
     898:	20 5f       	subi	r18, 0xF0	; 240
     89a:	31 40       	sbci	r19, 0x01	; 1
     89c:	69 01       	movw	r12, r18
	//Om det er 8 eller mindre linjer (bytte til if(menuSize <= 8){
	if(menuSize <= 8){
		for(uint16_t j = 0; j < menuSize*16; j++) {
			char c = pgm_read_byte(&menu->items[j]);
			for(int i = 0; i < 8; i++){
				if((j%16 == 0) & (j/16 == menu->current_position)){
     89e:	83 2d       	mov	r24, r3
     8a0:	a1 14       	cp	r10, r1
     8a2:	b1 04       	cpc	r11, r1
     8a4:	09 f0       	breq	.+2      	; 0x8a8 <write_menu_oled_to_SRAM+0xd4>
     8a6:	82 2d       	mov	r24, r2
     8a8:	88 23       	and	r24, r24
     8aa:	91 f0       	breq	.+36     	; 0x8d0 <write_menu_oled_to_SRAM+0xfc>
     8ac:	d7 01       	movw	r26, r14
     8ae:	12 96       	adiw	r26, 0x02	; 2
     8b0:	8c 91       	ld	r24, X
     8b2:	90 e0       	ldi	r25, 0x00	; 0
     8b4:	23 2d       	mov	r18, r3
     8b6:	86 15       	cp	r24, r6
     8b8:	97 05       	cpc	r25, r7
     8ba:	09 f0       	breq	.+2      	; 0x8be <write_menu_oled_to_SRAM+0xea>
     8bc:	22 2d       	mov	r18, r2
     8be:	22 23       	and	r18, r18
     8c0:	39 f0       	breq	.+14     	; 0x8d0 <write_menu_oled_to_SRAM+0xfc>
					SRAM_write(j*8 + i, pgm_read_byte(&font8x8_basic[('>'-32)*8 + i]));
     8c2:	e9 85       	ldd	r30, Y+9	; 0x09
     8c4:	fa 85       	ldd	r31, Y+10	; 0x0a
     8c6:	64 91       	lpm	r22, Z
     8c8:	c8 01       	movw	r24, r16
     8ca:	0e 94 6e 0a 	call	0x14dc	; 0x14dc <SRAM_write>
     8ce:	08 c0       	rjmp	.+16     	; 0x8e0 <write_menu_oled_to_SRAM+0x10c>
				}
				else{
					SRAM_write(j*8 + i, pgm_read_byte(&font8x8_basic[(c-32)*8 + i]));	
     8d0:	e9 85       	ldd	r30, Y+9	; 0x09
     8d2:	fa 85       	ldd	r31, Y+10	; 0x0a
     8d4:	ec 0d       	add	r30, r12
     8d6:	fd 1d       	adc	r31, r13
     8d8:	64 91       	lpm	r22, Z
     8da:	c8 01       	movw	r24, r16
     8dc:	0e 94 6e 0a 	call	0x14dc	; 0x14dc <SRAM_write>
     8e0:	29 85       	ldd	r18, Y+9	; 0x09
     8e2:	3a 85       	ldd	r19, Y+10	; 0x0a
     8e4:	2f 5f       	subi	r18, 0xFF	; 255
     8e6:	3f 4f       	sbci	r19, 0xFF	; 255
     8e8:	3a 87       	std	Y+10, r19	; 0x0a
     8ea:	29 87       	std	Y+9, r18	; 0x09
     8ec:	0f 5f       	subi	r16, 0xFF	; 255
     8ee:	1f 4f       	sbci	r17, 0xFF	; 255
	
	//Om det er 8 eller mindre linjer (bytte til if(menuSize <= 8){
	if(menuSize <= 8){
		for(uint16_t j = 0; j < menuSize*16; j++) {
			char c = pgm_read_byte(&menu->items[j]);
			for(int i = 0; i < 8; i++){
     8f0:	82 16       	cp	r8, r18
     8f2:	93 06       	cpc	r9, r19
     8f4:	a1 f6       	brne	.-88     	; 0x89e <write_menu_oled_to_SRAM+0xca>
	//num_items helder antall "linjer"s√• i staden for √• sjekke over 128 skulle det vert over 8
	uint8_t menuSize = menu->num_items; 
	
	//Om det er 8 eller mindre linjer (bytte til if(menuSize <= 8){
	if(menuSize <= 8){
		for(uint16_t j = 0; j < menuSize*16; j++) {
     8f6:	3f ef       	ldi	r19, 0xFF	; 255
     8f8:	43 1a       	sub	r4, r19
     8fa:	53 0a       	sbc	r5, r19
     8fc:	89 81       	ldd	r24, Y+1	; 0x01
     8fe:	9a 81       	ldd	r25, Y+2	; 0x02
     900:	08 96       	adiw	r24, 0x08	; 8
     902:	9a 83       	std	Y+2, r25	; 0x02
     904:	89 83       	std	Y+1, r24	; 0x01
     906:	ad 81       	ldd	r26, Y+5	; 0x05
     908:	be 81       	ldd	r27, Y+6	; 0x06
     90a:	4a 16       	cp	r4, r26
     90c:	5b 06       	cpc	r5, r27
     90e:	09 f0       	breq	.+2      	; 0x912 <write_menu_oled_to_SRAM+0x13e>
     910:	a0 cf       	rjmp	.-192    	; 0x852 <write_menu_oled_to_SRAM+0x7e>
				}	
			}	
		}
		// d√• blir det vell feil her og ?
		//om menyen er mindre enn 8 linjer fyll resten med ' ' 
		for(uint8_t i = 0; i < 128-menuSize*16; i++){
     912:	08 e0       	ldi	r16, 0x08	; 8
     914:	10 e0       	ldi	r17, 0x00	; 0
     916:	ef 81       	ldd	r30, Y+7	; 0x07
     918:	f8 85       	ldd	r31, Y+8	; 0x08
     91a:	0e 1b       	sub	r16, r30
     91c:	1f 0b       	sbc	r17, r31
     91e:	02 95       	swap	r16
     920:	12 95       	swap	r17
     922:	10 7f       	andi	r17, 0xF0	; 240
     924:	10 27       	eor	r17, r16
     926:	00 7f       	andi	r16, 0xF0	; 240
     928:	10 27       	eor	r17, r16
     92a:	10 16       	cp	r1, r16
     92c:	11 06       	cpc	r1, r17
     92e:	c4 f0       	brlt	.+48     	; 0x960 <write_menu_oled_to_SRAM+0x18c>
     930:	a7 c0       	rjmp	.+334    	; 0xa80 <write_menu_oled_to_SRAM+0x2ac>
			for(uint8_t j = 0; j < 8; j++){
				SRAM_write(menuSize*16*8+i*8+j, 0);
     932:	60 e0       	ldi	r22, 0x00	; 0
     934:	89 81       	ldd	r24, Y+1	; 0x01
     936:	9a 81       	ldd	r25, Y+2	; 0x02
     938:	0e 94 6e 0a 	call	0x14dc	; 0x14dc <SRAM_write>
     93c:	29 81       	ldd	r18, Y+1	; 0x01
     93e:	3a 81       	ldd	r19, Y+2	; 0x02
     940:	2f 5f       	subi	r18, 0xFF	; 255
     942:	3f 4f       	sbci	r19, 0xFF	; 255
     944:	3a 83       	std	Y+2, r19	; 0x02
     946:	29 83       	std	Y+1, r18	; 0x01
			}	
		}
		// d√• blir det vell feil her og ?
		//om menyen er mindre enn 8 linjer fyll resten med ' ' 
		for(uint8_t i = 0; i < 128-menuSize*16; i++){
			for(uint8_t j = 0; j < 8; j++){
     948:	2e 15       	cp	r18, r14
     94a:	3f 05       	cpc	r19, r15
     94c:	91 f7       	brne	.-28     	; 0x932 <write_menu_oled_to_SRAM+0x15e>
				}	
			}	
		}
		// d√• blir det vell feil her og ?
		//om menyen er mindre enn 8 linjer fyll resten med ' ' 
		for(uint8_t i = 0; i < 128-menuSize*16; i++){
     94e:	d3 94       	inc	r13
     950:	8d 2d       	mov	r24, r13
     952:	90 e0       	ldi	r25, 0x00	; 0
     954:	9a 83       	std	Y+2, r25	; 0x02
     956:	89 83       	std	Y+1, r24	; 0x01
     958:	80 17       	cp	r24, r16
     95a:	91 07       	cpc	r25, r17
     95c:	24 f0       	brlt	.+8      	; 0x966 <write_menu_oled_to_SRAM+0x192>
     95e:	90 c0       	rjmp	.+288    	; 0xa80 <write_menu_oled_to_SRAM+0x2ac>
     960:	1a 82       	std	Y+2, r1	; 0x02
     962:	19 82       	std	Y+1, r1	; 0x01
     964:	d1 2c       	mov	r13, r1
     966:	a9 81       	ldd	r26, Y+1	; 0x01
     968:	ba 81       	ldd	r27, Y+2	; 0x02
     96a:	eb 81       	ldd	r30, Y+3	; 0x03
     96c:	fc 81       	ldd	r31, Y+4	; 0x04
     96e:	ae 0f       	add	r26, r30
     970:	bf 1f       	adc	r27, r31
     972:	aa 0f       	add	r26, r26
     974:	bb 1f       	adc	r27, r27
     976:	aa 0f       	add	r26, r26
     978:	bb 1f       	adc	r27, r27
     97a:	aa 0f       	add	r26, r26
     97c:	bb 1f       	adc	r27, r27
     97e:	ba 83       	std	Y+2, r27	; 0x02
     980:	a9 83       	std	Y+1, r26	; 0x01
     982:	7d 01       	movw	r14, r26
     984:	f8 e0       	ldi	r31, 0x08	; 8
     986:	ef 0e       	add	r14, r31
     988:	f1 1c       	adc	r15, r1
     98a:	d3 cf       	rjmp	.-90     	; 0x932 <write_menu_oled_to_SRAM+0x15e>
     98c:	1a 82       	std	Y+2, r1	; 0x02
     98e:	19 82       	std	Y+1, r1	; 0x01
     990:	41 2c       	mov	r4, r1
     992:	51 2c       	mov	r5, r1
     994:	0f 2e       	mov	r0, r31
     996:	f8 ee       	ldi	r31, 0xE8	; 232
     998:	8f 2e       	mov	r8, r31
     99a:	f3 e0       	ldi	r31, 0x03	; 3
     99c:	9f 2e       	mov	r9, r31
     99e:	f0 2d       	mov	r31, r0
	//litt usikker om scroll kan g√• for h√∏y her, men satser p√• nei
	else{
		for(uint16_t j = 0; j < 8*16; j++) {
			char c = pgm_read_byte(&menu->items[menu->scroll_offset*16 + j]);
			for(int i = 0; i < 8; i++){
				if((j%16 == 0) & (j/16 == menu->current_position-menu->scroll_offset)){
     9a0:	33 24       	eor	r3, r3
     9a2:	33 94       	inc	r3
     9a4:	21 2c       	mov	r2, r1
	
	//Om det er mer enn 8 linjer
	//litt usikker om scroll kan g√• for h√∏y her, men satser p√• nei
	else{
		for(uint16_t j = 0; j < 8*16; j++) {
			char c = pgm_read_byte(&menu->items[menu->scroll_offset*16 + j]);
     9a6:	d7 01       	movw	r26, r14
     9a8:	14 96       	adiw	r26, 0x04	; 4
     9aa:	8c 91       	ld	r24, X
     9ac:	14 97       	sbiw	r26, 0x04	; 4
     9ae:	f2 01       	movw	r30, r4
     9b0:	20 e1       	ldi	r18, 0x10	; 16
     9b2:	82 9f       	mul	r24, r18
     9b4:	e0 0d       	add	r30, r0
     9b6:	f1 1d       	adc	r31, r1
     9b8:	11 24       	eor	r1, r1
     9ba:	cf 01       	movw	r24, r30
     9bc:	ed 91       	ld	r30, X+
     9be:	fc 91       	ld	r31, X
     9c0:	e8 0f       	add	r30, r24
     9c2:	f9 1f       	adc	r31, r25
     9c4:	c4 90       	lpm	r12, Z
			for(int i = 0; i < 8; i++){
				if((j%16 == 0) & (j/16 == menu->current_position-menu->scroll_offset)){
     9c6:	52 01       	movw	r10, r4
     9c8:	b6 94       	lsr	r11
     9ca:	a7 94       	ror	r10
     9cc:	b6 94       	lsr	r11
     9ce:	a7 94       	ror	r10
     9d0:	b6 94       	lsr	r11
     9d2:	a7 94       	ror	r10
     9d4:	b6 94       	lsr	r11
     9d6:	a7 94       	ror	r10
					SRAM_write(j*8 + i, pgm_read_byte(&font8x8_basic[('>'-32)*8 + i]));
				}
				else{
					SRAM_write(j*8 + i, pgm_read_byte(&font8x8_basic[(c-32)*8 + i]));
     9d8:	d1 2c       	mov	r13, r1
     9da:	c6 01       	movw	r24, r12
     9dc:	88 0f       	add	r24, r24
     9de:	99 1f       	adc	r25, r25
     9e0:	88 0f       	add	r24, r24
     9e2:	99 1f       	adc	r25, r25
     9e4:	88 0f       	add	r24, r24
     9e6:	99 1f       	adc	r25, r25
     9e8:	a0 ee       	ldi	r26, 0xE0	; 224
     9ea:	b3 e0       	ldi	r27, 0x03	; 3
     9ec:	bc 83       	std	Y+4, r27	; 0x04
     9ee:	ab 83       	std	Y+3, r26	; 0x03
     9f0:	09 81       	ldd	r16, Y+1	; 0x01
     9f2:	1a 81       	ldd	r17, Y+2	; 0x02
     9f4:	fc 01       	movw	r30, r24
     9f6:	e0 5f       	subi	r30, 0xF0	; 240
     9f8:	f1 40       	sbci	r31, 0x01	; 1
     9fa:	6f 01       	movw	r12, r30
	//litt usikker om scroll kan g√• for h√∏y her, men satser p√• nei
	else{
		for(uint16_t j = 0; j < 8*16; j++) {
			char c = pgm_read_byte(&menu->items[menu->scroll_offset*16 + j]);
			for(int i = 0; i < 8; i++){
				if((j%16 == 0) & (j/16 == menu->current_position-menu->scroll_offset)){
     9fc:	32 01       	movw	r6, r4
     9fe:	ff e0       	ldi	r31, 0x0F	; 15
     a00:	6f 22       	and	r6, r31
     a02:	77 24       	eor	r7, r7
     a04:	d7 01       	movw	r26, r14
     a06:	12 96       	adiw	r26, 0x02	; 2
     a08:	8c 91       	ld	r24, X
     a0a:	12 97       	sbiw	r26, 0x02	; 2
     a0c:	90 e0       	ldi	r25, 0x00	; 0
     a0e:	14 96       	adiw	r26, 0x04	; 4
     a10:	2c 91       	ld	r18, X
     a12:	82 1b       	sub	r24, r18
     a14:	91 09       	sbc	r25, r1
     a16:	23 2d       	mov	r18, r3
     a18:	8a 15       	cp	r24, r10
     a1a:	9b 05       	cpc	r25, r11
     a1c:	09 f0       	breq	.+2      	; 0xa20 <write_menu_oled_to_SRAM+0x24c>
     a1e:	22 2d       	mov	r18, r2
     a20:	22 23       	and	r18, r18
     a22:	71 f0       	breq	.+28     	; 0xa40 <write_menu_oled_to_SRAM+0x26c>
     a24:	83 2d       	mov	r24, r3
     a26:	61 14       	cp	r6, r1
     a28:	71 04       	cpc	r7, r1
     a2a:	09 f0       	breq	.+2      	; 0xa2e <write_menu_oled_to_SRAM+0x25a>
     a2c:	82 2d       	mov	r24, r2
     a2e:	88 23       	and	r24, r24
     a30:	39 f0       	breq	.+14     	; 0xa40 <write_menu_oled_to_SRAM+0x26c>
					SRAM_write(j*8 + i, pgm_read_byte(&font8x8_basic[('>'-32)*8 + i]));
     a32:	eb 81       	ldd	r30, Y+3	; 0x03
     a34:	fc 81       	ldd	r31, Y+4	; 0x04
     a36:	64 91       	lpm	r22, Z
     a38:	c8 01       	movw	r24, r16
     a3a:	0e 94 6e 0a 	call	0x14dc	; 0x14dc <SRAM_write>
     a3e:	08 c0       	rjmp	.+16     	; 0xa50 <write_menu_oled_to_SRAM+0x27c>
				}
				else{
					SRAM_write(j*8 + i, pgm_read_byte(&font8x8_basic[(c-32)*8 + i]));
     a40:	eb 81       	ldd	r30, Y+3	; 0x03
     a42:	fc 81       	ldd	r31, Y+4	; 0x04
     a44:	ec 0d       	add	r30, r12
     a46:	fd 1d       	adc	r31, r13
     a48:	64 91       	lpm	r22, Z
     a4a:	c8 01       	movw	r24, r16
     a4c:	0e 94 6e 0a 	call	0x14dc	; 0x14dc <SRAM_write>
     a50:	2b 81       	ldd	r18, Y+3	; 0x03
     a52:	3c 81       	ldd	r19, Y+4	; 0x04
     a54:	2f 5f       	subi	r18, 0xFF	; 255
     a56:	3f 4f       	sbci	r19, 0xFF	; 255
     a58:	3c 83       	std	Y+4, r19	; 0x04
     a5a:	2b 83       	std	Y+3, r18	; 0x03
     a5c:	0f 5f       	subi	r16, 0xFF	; 255
     a5e:	1f 4f       	sbci	r17, 0xFF	; 255
	//Om det er mer enn 8 linjer
	//litt usikker om scroll kan g√• for h√∏y her, men satser p√• nei
	else{
		for(uint16_t j = 0; j < 8*16; j++) {
			char c = pgm_read_byte(&menu->items[menu->scroll_offset*16 + j]);
			for(int i = 0; i < 8; i++){
     a60:	28 15       	cp	r18, r8
     a62:	39 05       	cpc	r19, r9
     a64:	79 f6       	brne	.-98     	; 0xa04 <write_menu_oled_to_SRAM+0x230>
	
	
	//Om det er mer enn 8 linjer
	//litt usikker om scroll kan g√• for h√∏y her, men satser p√• nei
	else{
		for(uint16_t j = 0; j < 8*16; j++) {
     a66:	3f ef       	ldi	r19, 0xFF	; 255
     a68:	43 1a       	sub	r4, r19
     a6a:	53 0a       	sbc	r5, r19
     a6c:	89 81       	ldd	r24, Y+1	; 0x01
     a6e:	9a 81       	ldd	r25, Y+2	; 0x02
     a70:	08 96       	adiw	r24, 0x08	; 8
     a72:	9a 83       	std	Y+2, r25	; 0x02
     a74:	89 83       	std	Y+1, r24	; 0x01
     a76:	90 e8       	ldi	r25, 0x80	; 128
     a78:	49 16       	cp	r4, r25
     a7a:	51 04       	cpc	r5, r1
     a7c:	09 f0       	breq	.+2      	; 0xa80 <write_menu_oled_to_SRAM+0x2ac>
     a7e:	93 cf       	rjmp	.-218    	; 0x9a6 <write_menu_oled_to_SRAM+0x1d2>
				}
			}
		}
	}
	
}
     a80:	2a 96       	adiw	r28, 0x0a	; 10
     a82:	0f b6       	in	r0, 0x3f	; 63
     a84:	f8 94       	cli
     a86:	de bf       	out	0x3e, r29	; 62
     a88:	0f be       	out	0x3f, r0	; 63
     a8a:	cd bf       	out	0x3d, r28	; 61
     a8c:	df 91       	pop	r29
     a8e:	cf 91       	pop	r28
     a90:	1f 91       	pop	r17
     a92:	0f 91       	pop	r16
     a94:	ff 90       	pop	r15
     a96:	ef 90       	pop	r14
     a98:	df 90       	pop	r13
     a9a:	cf 90       	pop	r12
     a9c:	bf 90       	pop	r11
     a9e:	af 90       	pop	r10
     aa0:	9f 90       	pop	r9
     aa2:	8f 90       	pop	r8
     aa4:	7f 90       	pop	r7
     aa6:	6f 90       	pop	r6
     aa8:	5f 90       	pop	r5
     aaa:	4f 90       	pop	r4
     aac:	3f 90       	pop	r3
     aae:	2f 90       	pop	r2
     ab0:	08 95       	ret

00000ab2 <handleMenuSelection>:
	board->prevJoyBtn = board->JoyBtn;
}



void handleMenuSelection(MultiBoard* board, Menu* menu) {
     ab2:	cf 93       	push	r28
     ab4:	df 93       	push	r29
     ab6:	eb 01       	movw	r28, r22
	oled_clear_screen();
     ab8:	0e 94 00 09 	call	0x1200	; 0x1200 <oled_clear_screen>
	switch (currentMenuState) {
     abc:	80 91 bc 01 	lds	r24, 0x01BC	; 0x8001bc <currentMenuState>
     ac0:	81 30       	cpi	r24, 0x01	; 1
     ac2:	09 f4       	brne	.+2      	; 0xac6 <handleMenuSelection+0x14>
     ac4:	78 c0       	rjmp	.+240    	; 0xbb6 <handleMenuSelection+0x104>
     ac6:	20 f0       	brcs	.+8      	; 0xad0 <handleMenuSelection+0x1e>
     ac8:	82 30       	cpi	r24, 0x02	; 2
     aca:	09 f4       	brne	.+2      	; 0xace <handleMenuSelection+0x1c>
     acc:	4a c0       	rjmp	.+148    	; 0xb62 <handleMenuSelection+0xb0>
     ace:	92 c0       	rjmp	.+292    	; 0xbf4 <handleMenuSelection+0x142>
		case MAIN_MENU:
		switch (menu->current_position) {
     ad0:	8a 81       	ldd	r24, Y+2	; 0x02
     ad2:	82 30       	cpi	r24, 0x02	; 2
     ad4:	31 f1       	breq	.+76     	; 0xb22 <handleMenuSelection+0x70>
     ad6:	28 f4       	brcc	.+10     	; 0xae2 <handleMenuSelection+0x30>
     ad8:	88 23       	and	r24, r24
     ada:	41 f0       	breq	.+16     	; 0xaec <handleMenuSelection+0x3a>
     adc:	81 30       	cpi	r24, 0x01	; 1
     ade:	b9 f0       	breq	.+46     	; 0xb0e <handleMenuSelection+0x5c>
     ae0:	3a c0       	rjmp	.+116    	; 0xb56 <handleMenuSelection+0xa4>
     ae2:	83 30       	cpi	r24, 0x03	; 3
     ae4:	41 f1       	breq	.+80     	; 0xb36 <handleMenuSelection+0x84>
     ae6:	84 30       	cpi	r24, 0x04	; 4
     ae8:	81 f1       	breq	.+96     	; 0xb4a <handleMenuSelection+0x98>
     aea:	35 c0       	rjmp	.+106    	; 0xb56 <handleMenuSelection+0xa4>
			case 0:
			oled_write_line_to_SRAM(0, "Startar spelet...");
     aec:	6c e1       	ldi	r22, 0x1C	; 28
     aee:	71 e0       	ldi	r23, 0x01	; 1
     af0:	80 e0       	ldi	r24, 0x00	; 0
     af2:	0e 94 54 08 	call	0x10a8	; 0x10a8 <oled_write_line_to_SRAM>
			oled_data_from_SRAM();
     af6:	0e 94 97 07 	call	0xf2e	; 0xf2e <oled_data_from_SRAM>
     afa:	2f ef       	ldi	r18, 0xFF	; 255
     afc:	8f ef       	ldi	r24, 0xFF	; 255
     afe:	9e e0       	ldi	r25, 0x0E	; 14
     b00:	21 50       	subi	r18, 0x01	; 1
     b02:	80 40       	sbci	r24, 0x00	; 0
     b04:	90 40       	sbci	r25, 0x00	; 0
     b06:	e1 f7       	brne	.-8      	; 0xb00 <handleMenuSelection+0x4e>
     b08:	00 c0       	rjmp	.+0      	; 0xb0a <handleMenuSelection+0x58>
     b0a:	00 00       	nop
     b0c:	73 c0       	rjmp	.+230    	; 0xbf4 <handleMenuSelection+0x142>
			_delay_ms(1000);
			break;
			case 1:
			// G√• til innstillingar
			currentMenuState = SETTINGS_MENU;
     b0e:	82 e0       	ldi	r24, 0x02	; 2
     b10:	80 93 bc 01 	sts	0x01BC, r24	; 0x8001bc <currentMenuState>
			current_menu = &settingsMenu;  // Oppdater til innstillingsmeny
     b14:	81 ec       	ldi	r24, 0xC1	; 193
     b16:	91 e0       	ldi	r25, 0x01	; 1
     b18:	90 93 bb 01 	sts	0x01BB, r25	; 0x8001bb <__data_end+0x1>
     b1c:	80 93 ba 01 	sts	0x01BA, r24	; 0x8001ba <__data_end>
			break;
     b20:	69 c0       	rjmp	.+210    	; 0xbf4 <handleMenuSelection+0x142>
			case 2:
			// G√• til scrollemeny
			currentMenuState = SCROLL_MENU;
     b22:	81 e0       	ldi	r24, 0x01	; 1
     b24:	80 93 bc 01 	sts	0x01BC, r24	; 0x8001bc <currentMenuState>
			current_menu = &scrollMenu;  // Oppdater til scrollemeny
     b28:	8d ec       	ldi	r24, 0xCD	; 205
     b2a:	91 e0       	ldi	r25, 0x01	; 1
     b2c:	90 93 bb 01 	sts	0x01BB, r25	; 0x8001bb <__data_end+0x1>
     b30:	80 93 ba 01 	sts	0x01BA, r24	; 0x8001ba <__data_end>
			break;
     b34:	5f c0       	rjmp	.+190    	; 0xbf4 <handleMenuSelection+0x142>
			case 3:
			oled_write_line_to_SRAM(0, "Viser kredittar...");
     b36:	6e e2       	ldi	r22, 0x2E	; 46
     b38:	71 e0       	ldi	r23, 0x01	; 1
     b3a:	80 e0       	ldi	r24, 0x00	; 0
     b3c:	0e 94 54 08 	call	0x10a8	; 0x10a8 <oled_write_line_to_SRAM>
			oled_write_screen_to_SRAM(solkors);  // Vis kredittar p√• skjermen
     b40:	80 e7       	ldi	r24, 0x70	; 112
     b42:	92 e0       	ldi	r25, 0x02	; 2
     b44:	0e 94 e9 07 	call	0xfd2	; 0xfd2 <oled_write_screen_to_SRAM>
			break;
     b48:	55 c0       	rjmp	.+170    	; 0xbf4 <handleMenuSelection+0x142>
			case 4:
			oled_write_line_to_SRAM(0, "Avsluttar...");
     b4a:	61 e4       	ldi	r22, 0x41	; 65
     b4c:	71 e0       	ldi	r23, 0x01	; 1
     b4e:	80 e0       	ldi	r24, 0x00	; 0
     b50:	0e 94 54 08 	call	0x10a8	; 0x10a8 <oled_write_line_to_SRAM>
			// Legg eventuelt til funksjonalitet for √• avslutte
			break;
     b54:	4f c0       	rjmp	.+158    	; 0xbf4 <handleMenuSelection+0x142>
			default:
			oled_write_line_to_SRAM(0, "Ugyldig valg");
     b56:	6e e4       	ldi	r22, 0x4E	; 78
     b58:	71 e0       	ldi	r23, 0x01	; 1
     b5a:	80 e0       	ldi	r24, 0x00	; 0
     b5c:	0e 94 54 08 	call	0x10a8	; 0x10a8 <oled_write_line_to_SRAM>
			break;
     b60:	49 c0       	rjmp	.+146    	; 0xbf4 <handleMenuSelection+0x142>
		}
		break;

		case SETTINGS_MENU:
		// H√•ndter valg i innstillingsmenyen
		switch (menu->current_position) {
     b62:	8a 81       	ldd	r24, Y+2	; 0x02
     b64:	81 30       	cpi	r24, 0x01	; 1
     b66:	61 f0       	breq	.+24     	; 0xb80 <handleMenuSelection+0xce>
     b68:	28 f0       	brcs	.+10     	; 0xb74 <handleMenuSelection+0xc2>
     b6a:	82 30       	cpi	r24, 0x02	; 2
     b6c:	79 f0       	breq	.+30     	; 0xb8c <handleMenuSelection+0xda>
     b6e:	83 30       	cpi	r24, 0x03	; 3
     b70:	99 f0       	breq	.+38     	; 0xb98 <handleMenuSelection+0xe6>
     b72:	1b c0       	rjmp	.+54     	; 0xbaa <handleMenuSelection+0xf8>
			case 0:
			oled_write_line_to_SRAM(0, "Endrer lydinnstillingar...");
     b74:	6b e5       	ldi	r22, 0x5B	; 91
     b76:	71 e0       	ldi	r23, 0x01	; 1
     b78:	80 e0       	ldi	r24, 0x00	; 0
     b7a:	0e 94 54 08 	call	0x10a8	; 0x10a8 <oled_write_line_to_SRAM>
			break;
     b7e:	3a c0       	rjmp	.+116    	; 0xbf4 <handleMenuSelection+0x142>
			case 1:
			oled_write_line_to_SRAM(0, "Endrer lysstyrke...");
     b80:	66 e7       	ldi	r22, 0x76	; 118
     b82:	71 e0       	ldi	r23, 0x01	; 1
     b84:	80 e0       	ldi	r24, 0x00	; 0
     b86:	0e 94 54 08 	call	0x10a8	; 0x10a8 <oled_write_line_to_SRAM>
			break;
     b8a:	34 c0       	rjmp	.+104    	; 0xbf4 <handleMenuSelection+0x142>
			case 2:
			oled_write_line_to_SRAM(0, "Endrer kontrollar...");
     b8c:	6a e8       	ldi	r22, 0x8A	; 138
     b8e:	71 e0       	ldi	r23, 0x01	; 1
     b90:	80 e0       	ldi	r24, 0x00	; 0
     b92:	0e 94 54 08 	call	0x10a8	; 0x10a8 <oled_write_line_to_SRAM>
			break;
     b96:	2e c0       	rjmp	.+92     	; 0xbf4 <handleMenuSelection+0x142>
			case 3:
			// G√• tilbake til hovudmenyen
			currentMenuState = MAIN_MENU;
     b98:	10 92 bc 01 	sts	0x01BC, r1	; 0x8001bc <currentMenuState>
			current_menu = &mainMenu;
     b9c:	87 ec       	ldi	r24, 0xC7	; 199
     b9e:	91 e0       	ldi	r25, 0x01	; 1
     ba0:	90 93 bb 01 	sts	0x01BB, r25	; 0x8001bb <__data_end+0x1>
     ba4:	80 93 ba 01 	sts	0x01BA, r24	; 0x8001ba <__data_end>
			break;
     ba8:	25 c0       	rjmp	.+74     	; 0xbf4 <handleMenuSelection+0x142>
			default:
			oled_write_line_to_SRAM(0, "Ugyldig valg");
     baa:	6e e4       	ldi	r22, 0x4E	; 78
     bac:	71 e0       	ldi	r23, 0x01	; 1
     bae:	80 e0       	ldi	r24, 0x00	; 0
     bb0:	0e 94 54 08 	call	0x10a8	; 0x10a8 <oled_write_line_to_SRAM>
			break;
     bb4:	1f c0       	rjmp	.+62     	; 0xbf4 <handleMenuSelection+0x142>
		}
		break;

		case SCROLL_MENU:
		// H√•ndter valg i scrollemenyen
		switch (menu->current_position) {
     bb6:	8a 81       	ldd	r24, Y+2	; 0x02
     bb8:	88 23       	and	r24, r24
     bba:	19 f0       	breq	.+6      	; 0xbc2 <handleMenuSelection+0x110>
     bbc:	81 30       	cpi	r24, 0x01	; 1
     bbe:	79 f0       	breq	.+30     	; 0xbde <handleMenuSelection+0x12c>
     bc0:	14 c0       	rjmp	.+40     	; 0xbea <handleMenuSelection+0x138>
			case 0:
			oled_write_line_to_SRAM(0, "Item 1 valgt");
     bc2:	6f e9       	ldi	r22, 0x9F	; 159
     bc4:	71 e0       	ldi	r23, 0x01	; 1
     bc6:	80 e0       	ldi	r24, 0x00	; 0
     bc8:	0e 94 54 08 	call	0x10a8	; 0x10a8 <oled_write_line_to_SRAM>
			currentMenuState = MAIN_MENU;
     bcc:	10 92 bc 01 	sts	0x01BC, r1	; 0x8001bc <currentMenuState>
			current_menu = &mainMenu;
     bd0:	87 ec       	ldi	r24, 0xC7	; 199
     bd2:	91 e0       	ldi	r25, 0x01	; 1
     bd4:	90 93 bb 01 	sts	0x01BB, r25	; 0x8001bb <__data_end+0x1>
     bd8:	80 93 ba 01 	sts	0x01BA, r24	; 0x8001ba <__data_end>
			break;
     bdc:	0b c0       	rjmp	.+22     	; 0xbf4 <handleMenuSelection+0x142>
			case 1:
			oled_write_line_to_SRAM(0, "Item 2 valgt");
     bde:	6c ea       	ldi	r22, 0xAC	; 172
     be0:	71 e0       	ldi	r23, 0x01	; 1
     be2:	80 e0       	ldi	r24, 0x00	; 0
     be4:	0e 94 54 08 	call	0x10a8	; 0x10a8 <oled_write_line_to_SRAM>
			break;
     be8:	05 c0       	rjmp	.+10     	; 0xbf4 <handleMenuSelection+0x142>
			default:
			oled_write_line_to_SRAM(0, "Ugyldig valg");
     bea:	6e e4       	ldi	r22, 0x4E	; 78
     bec:	71 e0       	ldi	r23, 0x01	; 1
     bee:	80 e0       	ldi	r24, 0x00	; 0
     bf0:	0e 94 54 08 	call	0x10a8	; 0x10a8 <oled_write_line_to_SRAM>
			break;
		}
		break;	
	}
}
     bf4:	df 91       	pop	r29
     bf6:	cf 91       	pop	r28
     bf8:	08 95       	ret

00000bfa <menu_navigate>:
	}
	
}


void menu_navigate(MultiBoard* board, Menu* menu) {
     bfa:	0f 93       	push	r16
     bfc:	1f 93       	push	r17
     bfe:	cf 93       	push	r28
     c00:	df 93       	push	r29
     c02:	ec 01       	movw	r28, r24
     c04:	8b 01       	movw	r16, r22
	// Oppdater joystick- og menyposisjon
	MultiBoard_Update(board);
     c06:	0e 94 de 06 	call	0xdbc	; 0xdbc <MultiBoard_Update>
	update_menu_position_from_joystick(board, menu);
     c0a:	b8 01       	movw	r22, r16
     c0c:	ce 01       	movw	r24, r28
     c0e:	0e 94 a7 03 	call	0x74e	; 0x74e <update_menu_position_from_joystick>
	// Sjekk om knappen er trykt for √• bekrefte menyval
	if (board->JoyBtn & !board->prevJoyBtn) {
     c12:	21 e0       	ldi	r18, 0x01	; 1
     c14:	30 e0       	ldi	r19, 0x00	; 0
     c16:	8f 81       	ldd	r24, Y+7	; 0x07
     c18:	88 23       	and	r24, r24
     c1a:	11 f0       	breq	.+4      	; 0xc20 <menu_navigate+0x26>
     c1c:	20 e0       	ldi	r18, 0x00	; 0
     c1e:	30 e0       	ldi	r19, 0x00	; 0
     c20:	9e 81       	ldd	r25, Y+6	; 0x06
     c22:	89 2f       	mov	r24, r25
     c24:	90 e0       	ldi	r25, 0x00	; 0
     c26:	82 23       	and	r24, r18
     c28:	93 23       	and	r25, r19
     c2a:	89 2b       	or	r24, r25
     c2c:	21 f0       	breq	.+8      	; 0xc36 <menu_navigate+0x3c>
		handleMenuSelection(board, menu);  // Behandlar menyvalet (trenger tilsyn)
     c2e:	b8 01       	movw	r22, r16
     c30:	ce 01       	movw	r24, r28
     c32:	0e 94 59 05 	call	0xab2	; 0xab2 <handleMenuSelection>
	}
	write_menu_oled_to_SRAM(menu); // 15 ms ikke bra, pontus har ansvar for √• finne en l√∏sning
     c36:	c8 01       	movw	r24, r16
     c38:	0e 94 ea 03 	call	0x7d4	; 0x7d4 <write_menu_oled_to_SRAM>
	board->prevJoyBtn = board->JoyBtn;
     c3c:	8e 81       	ldd	r24, Y+6	; 0x06
     c3e:	8f 83       	std	Y+7, r24	; 0x07
}
     c40:	df 91       	pop	r29
     c42:	cf 91       	pop	r28
     c44:	1f 91       	pop	r17
     c46:	0f 91       	pop	r16
     c48:	08 95       	ret

00000c4a <initialize_menus>:
	/*
	Hadde det vert penare Â initialisere main menue her i staden for i main?
	*/
	
	
	mainMenu.items = &mainMenuItems;
     c4a:	e7 ec       	ldi	r30, 0xC7	; 199
     c4c:	f1 e0       	ldi	r31, 0x01	; 1
     c4e:	80 ef       	ldi	r24, 0xF0	; 240
     c50:	91 e0       	ldi	r25, 0x01	; 1
     c52:	91 83       	std	Z+1, r25	; 0x01
     c54:	80 83       	st	Z, r24
	mainMenu.num_items = 5;
     c56:	85 e0       	ldi	r24, 0x05	; 5
     c58:	85 83       	std	Z+5, r24	; 0x05
	mainMenu.current_position = 0;
     c5a:	12 82       	std	Z+2, r1	; 0x02
	mainMenu.prev_position = 0;
     c5c:	13 82       	std	Z+3, r1	; 0x03
	mainMenu.scroll_offset = 0;
     c5e:	14 82       	std	Z+4, r1	; 0x04

	scrollMenu.items = &scrollMenuItems;
     c60:	ed ec       	ldi	r30, 0xCD	; 205
     c62:	f1 e0       	ldi	r31, 0x01	; 1
     c64:	80 eb       	ldi	r24, 0xB0	; 176
     c66:	90 e0       	ldi	r25, 0x00	; 0
     c68:	91 83       	std	Z+1, r25	; 0x01
     c6a:	80 83       	st	Z, r24
	scrollMenu.num_items = 20;
     c6c:	84 e1       	ldi	r24, 0x14	; 20
     c6e:	85 83       	std	Z+5, r24	; 0x05
	scrollMenu.current_position = 0;
     c70:	12 82       	std	Z+2, r1	; 0x02
	scrollMenu.prev_position = 0;
     c72:	13 82       	std	Z+3, r1	; 0x03
	scrollMenu.scroll_offset = 0;
     c74:	14 82       	std	Z+4, r1	; 0x04

	settingsMenu.items = &settingsMenuItems;
     c76:	e1 ec       	ldi	r30, 0xC1	; 193
     c78:	f1 e0       	ldi	r31, 0x01	; 1
     c7a:	80 e7       	ldi	r24, 0x70	; 112
     c7c:	90 e0       	ldi	r25, 0x00	; 0
     c7e:	91 83       	std	Z+1, r25	; 0x01
     c80:	80 83       	st	Z, r24
	settingsMenu.num_items = 4;
     c82:	84 e0       	ldi	r24, 0x04	; 4
     c84:	85 83       	std	Z+5, r24	; 0x05
	settingsMenu.current_position = 0;
     c86:	12 82       	std	Z+2, r1	; 0x02
	settingsMenu.prev_position = 0;
     c88:	13 82       	std	Z+3, r1	; 0x03
	settingsMenu.scroll_offset = 0;
     c8a:	14 82       	std	Z+4, r1	; 0x04
     c8c:	08 95       	ret

00000c8e <MultiBoard_Init>:
 * Created: 14.09.2024 11:00:59
 *  Author: ravneb
 */ 
#include "MultiBoard.h"

void MultiBoard_Init(MultiBoard* board) {
     c8e:	cf 93       	push	r28
     c90:	df 93       	push	r29
     c92:	ec 01       	movw	r28, r24
	// Set pinner for knapper som input
	clearBit(DDRB, LEFT_BUTTON_PIN);  // Set Left button pin as input
     c94:	bc 98       	cbi	0x17, 4	; 23
	clearBit(DDRB, RIGHT_BUTTON_PIN); // Set Right button pin as input
     c96:	bb 98       	cbi	0x17, 3	; 23
	clearBit(DDRB, JOY_BUTTON_PIN);   // Set Joystick button pin as input
     c98:	ba 98       	cbi	0x17, 2	; 23
	clearBit(DDRB, BUSY_PIN);         // Set BUSY pin as input
     c9a:	b9 98       	cbi	0x17, 1	; 23
	
	// Aktiver pullup
	setBit(PORTB, JOY_BUTTON_PIN);
     c9c:	c2 9a       	sbi	0x18, 2	; 24
	

	// Kalibrer joysticken (finn origo)
	Universal_write(ADC_START, 0x80); // For Chip Enable til ADC, (data her er irrelevant)
     c9e:	60 e8       	ldi	r22, 0x80	; 128
     ca0:	80 e0       	ldi	r24, 0x00	; 0
     ca2:	94 e1       	ldi	r25, 0x14	; 20
     ca4:	0e 94 8e 0a 	call	0x151c	; 0x151c <Universal_write>
	loopUntilBitIsClear(PINB, BUSY_PIN);    // Vent til BUSY gÔøΩr lav
     ca8:	b1 99       	sbic	0x16, 1	; 22
     caa:	fe cf       	rjmp	.-4      	; 0xca8 <MultiBoard_Init+0x1a>
	board->JoyYOrigo = Universal_read(ADC_START); //CH0
     cac:	80 e0       	ldi	r24, 0x00	; 0
     cae:	94 e1       	ldi	r25, 0x14	; 20
     cb0:	0e 94 9e 0a 	call	0x153c	; 0x153c <Universal_read>
     cb4:	89 87       	std	Y+9, r24	; 0x09
	board->JoyXOrigo = Universal_read(ADC_START); //CH1
     cb6:	80 e0       	ldi	r24, 0x00	; 0
     cb8:	94 e1       	ldi	r25, 0x14	; 20
     cba:	0e 94 9e 0a 	call	0x153c	; 0x153c <Universal_read>
     cbe:	88 87       	std	Y+8, r24	; 0x08
	
	// Initialiser alle andre verdier
	board->LSpos = 0;
     cc0:	1a 82       	std	Y+2, r1	; 0x02
	board->RSpos = 0;
     cc2:	1b 82       	std	Y+3, r1	; 0x03
	board->LBtn = 0;
     cc4:	1c 82       	std	Y+4, r1	; 0x04
	board->RBtn = 0;
     cc6:	1d 82       	std	Y+5, r1	; 0x05
	board->JoyXpos = 0;
     cc8:	19 82       	std	Y+1, r1	; 0x01
	board->JoyYpos = 0;
     cca:	18 82       	st	Y, r1
	board->JoyXposCal = 0;
     ccc:	1b 86       	std	Y+11, r1	; 0x0b
     cce:	1a 86       	std	Y+10, r1	; 0x0a
	board->JoyYposCal = 0;
     cd0:	1d 86       	std	Y+13, r1	; 0x0d
     cd2:	1c 86       	std	Y+12, r1	; 0x0c
	board->JoyAngle = 0;
     cd4:	1f 86       	std	Y+15, r1	; 0x0f
     cd6:	1e 86       	std	Y+14, r1	; 0x0e
	board->JoyBtn = 0;  // Endra fra en, vi bruker fortsatt 0 for av basert p√• logikk i MB_Update()
     cd8:	1e 82       	std	Y+6, r1	; 0x06
	board->prevJoyBtn = 0;
     cda:	1f 82       	std	Y+7, r1	; 0x07
}
     cdc:	df 91       	pop	r29
     cde:	cf 91       	pop	r28
     ce0:	08 95       	ret

00000ce2 <MultiBoard_UpdateJoystickAngle>:
	///IKKJE TESTA
	MultiBoard_UpdateJoystickAngle(board);
}

/// IKKJE TESTA 
void MultiBoard_UpdateJoystickAngle(MultiBoard* board) {
     ce2:	fc 01       	movw	r30, r24
	int16_t x = board->JoyXposCal;
     ce4:	62 85       	ldd	r22, Z+10	; 0x0a
     ce6:	73 85       	ldd	r23, Z+11	; 0x0b
	int16_t y = board->JoyYposCal;
     ce8:	44 85       	ldd	r20, Z+12	; 0x0c
     cea:	55 85       	ldd	r21, Z+13	; 0x0d

	// UnngÔøΩ divisjon med 0 (nÔøΩr senterpunkt) + hysterese
	if (!(abs(x) > JOY_ANGLE_HYSTERESIS || abs(y) >  JOY_ANGLE_HYSTERESIS)) {
     cec:	cb 01       	movw	r24, r22
     cee:	05 96       	adiw	r24, 0x05	; 5
     cf0:	0b 97       	sbiw	r24, 0x0b	; 11
     cf2:	38 f4       	brcc	.+14     	; 0xd02 <MultiBoard_UpdateJoystickAngle+0x20>
     cf4:	ca 01       	movw	r24, r20
     cf6:	05 96       	adiw	r24, 0x05	; 5
     cf8:	0b 97       	sbiw	r24, 0x0b	; 11
     cfa:	18 f4       	brcc	.+6      	; 0xd02 <MultiBoard_UpdateJoystickAngle+0x20>
		board->JoyAngle = 0;  // Midtpunkt, sett vinkelen til 0
     cfc:	17 86       	std	Z+15, r1	; 0x0f
     cfe:	16 86       	std	Z+14, r1	; 0x0e
     d00:	08 95       	ret
		} else {
		// Bestem kvadrant basert pÔøΩ verdiane til x og y
		switch ((x >= 0) << 1 | (y >= 0)) {
     d02:	87 2f       	mov	r24, r23
     d04:	80 95       	com	r24
     d06:	88 1f       	adc	r24, r24
     d08:	88 27       	eor	r24, r24
     d0a:	88 1f       	adc	r24, r24
     d0c:	90 e0       	ldi	r25, 0x00	; 0
     d0e:	88 0f       	add	r24, r24
     d10:	99 1f       	adc	r25, r25
     d12:	25 2f       	mov	r18, r21
     d14:	20 95       	com	r18
     d16:	22 1f       	adc	r18, r18
     d18:	22 27       	eor	r18, r18
     d1a:	22 1f       	adc	r18, r18
     d1c:	82 2b       	or	r24, r18
     d1e:	81 30       	cpi	r24, 0x01	; 1
     d20:	91 05       	cpc	r25, r1
     d22:	b9 f0       	breq	.+46     	; 0xd52 <MultiBoard_UpdateJoystickAngle+0x70>
     d24:	1c f4       	brge	.+6      	; 0xd2c <MultiBoard_UpdateJoystickAngle+0x4a>
     d26:	89 2b       	or	r24, r25
     d28:	29 f1       	breq	.+74     	; 0xd74 <MultiBoard_UpdateJoystickAngle+0x92>
     d2a:	45 c0       	rjmp	.+138    	; 0xdb6 <MultiBoard_UpdateJoystickAngle+0xd4>
     d2c:	82 30       	cpi	r24, 0x02	; 2
     d2e:	91 05       	cpc	r25, r1
     d30:	99 f1       	breq	.+102    	; 0xd98 <MultiBoard_UpdateJoystickAngle+0xb6>
     d32:	03 97       	sbiw	r24, 0x03	; 3
     d34:	09 f0       	breq	.+2      	; 0xd38 <MultiBoard_UpdateJoystickAngle+0x56>
     d36:	3f c0       	rjmp	.+126    	; 0xdb6 <MultiBoard_UpdateJoystickAngle+0xd4>
			case 0b11:  // FÔøΩrste kvadrant (x >= 0, y >= 0)
			board->JoyAngle = (y * 90) / (x + y);
     d38:	2a e5       	ldi	r18, 0x5A	; 90
     d3a:	24 9f       	mul	r18, r20
     d3c:	c0 01       	movw	r24, r0
     d3e:	25 9f       	mul	r18, r21
     d40:	90 0d       	add	r25, r0
     d42:	11 24       	eor	r1, r1
     d44:	64 0f       	add	r22, r20
     d46:	75 1f       	adc	r23, r21
     d48:	0e 94 ae 0a 	call	0x155c	; 0x155c <__divmodhi4>
     d4c:	77 87       	std	Z+15, r23	; 0x0f
     d4e:	66 87       	std	Z+14, r22	; 0x0e
			break;
     d50:	08 95       	ret
			case 0b01:  // Andre kvadrant (x < 0, y >= 0)
			board->JoyAngle = 90 + ((-x * 90) / (-x + y));
     d52:	26 ea       	ldi	r18, 0xA6	; 166
     d54:	26 03       	mulsu	r18, r22
     d56:	c0 01       	movw	r24, r0
     d58:	27 9f       	mul	r18, r23
     d5a:	90 0d       	add	r25, r0
     d5c:	11 24       	eor	r1, r1
     d5e:	9a 01       	movw	r18, r20
     d60:	26 1b       	sub	r18, r22
     d62:	37 0b       	sbc	r19, r23
     d64:	b9 01       	movw	r22, r18
     d66:	0e 94 ae 0a 	call	0x155c	; 0x155c <__divmodhi4>
     d6a:	66 5a       	subi	r22, 0xA6	; 166
     d6c:	7f 4f       	sbci	r23, 0xFF	; 255
     d6e:	77 87       	std	Z+15, r23	; 0x0f
     d70:	66 87       	std	Z+14, r22	; 0x0e
			break;
     d72:	08 95       	ret
			case 0b00:  // Tredje kvadrant (x < 0, y < 0)
			board->JoyAngle = 180 + ((-y * 90) / (-x - y));
     d74:	26 ea       	ldi	r18, 0xA6	; 166
     d76:	24 03       	mulsu	r18, r20
     d78:	c0 01       	movw	r24, r0
     d7a:	25 9f       	mul	r18, r21
     d7c:	90 0d       	add	r25, r0
     d7e:	11 24       	eor	r1, r1
     d80:	71 95       	neg	r23
     d82:	61 95       	neg	r22
     d84:	71 09       	sbc	r23, r1
     d86:	64 1b       	sub	r22, r20
     d88:	75 0b       	sbc	r23, r21
     d8a:	0e 94 ae 0a 	call	0x155c	; 0x155c <__divmodhi4>
     d8e:	6c 54       	subi	r22, 0x4C	; 76
     d90:	7f 4f       	sbci	r23, 0xFF	; 255
     d92:	77 87       	std	Z+15, r23	; 0x0f
     d94:	66 87       	std	Z+14, r22	; 0x0e
			break;
     d96:	08 95       	ret
			case 0b10:  // Fjerde kvadrant (x >= 0, y < 0)
			board->JoyAngle = 270 + ((x * 90) / (x - y));
     d98:	2a e5       	ldi	r18, 0x5A	; 90
     d9a:	26 9f       	mul	r18, r22
     d9c:	c0 01       	movw	r24, r0
     d9e:	27 9f       	mul	r18, r23
     da0:	90 0d       	add	r25, r0
     da2:	11 24       	eor	r1, r1
     da4:	64 1b       	sub	r22, r20
     da6:	75 0b       	sbc	r23, r21
     da8:	0e 94 ae 0a 	call	0x155c	; 0x155c <__divmodhi4>
     dac:	62 5f       	subi	r22, 0xF2	; 242
     dae:	7e 4f       	sbci	r23, 0xFE	; 254
     db0:	77 87       	std	Z+15, r23	; 0x0f
     db2:	66 87       	std	Z+14, r22	; 0x0e
			break;
     db4:	08 95       	ret
			default:
			board->JoyAngle = 0;  // Feiltilfelle, skal ikkje skje
     db6:	17 86       	std	Z+15, r1	; 0x0f
     db8:	16 86       	std	Z+14, r1	; 0x0e
     dba:	08 95       	ret

00000dbc <MultiBoard_Update>:
	board->JoyBtn = 0;  // Endra fra en, vi bruker fortsatt 0 for av basert p√• logikk i MB_Update()
	board->prevJoyBtn = 0;
}


void MultiBoard_Update(MultiBoard* board) {
     dbc:	cf 93       	push	r28
     dbe:	df 93       	push	r29
     dc0:	ec 01       	movw	r28, r24
	// Velg kanal for venstre skyvebryter (LSpos)
	Universal_write(ADC_START, 0x00);
     dc2:	60 e0       	ldi	r22, 0x00	; 0
     dc4:	80 e0       	ldi	r24, 0x00	; 0
     dc6:	94 e1       	ldi	r25, 0x14	; 20
     dc8:	0e 94 8e 0a 	call	0x151c	; 0x151c <Universal_write>
	loopUntilBitIsClear(PINB, BUSY_PIN);		// Vent til BUSY gÔøΩr lav - klar for ÔøΩ sende pÔøΩ ny
     dcc:	b1 99       	sbic	0x16, 1	; 22
     dce:	fe cf       	rjmp	.-4      	; 0xdcc <MultiBoard_Update+0x10>
	board->JoyYpos = Universal_read(ADC_START); //  - CH0 fÔøΩrste RD low gir channel 0
     dd0:	80 e0       	ldi	r24, 0x00	; 0
     dd2:	94 e1       	ldi	r25, 0x14	; 20
     dd4:	0e 94 9e 0a 	call	0x153c	; 0x153c <Universal_read>
     dd8:	88 83       	st	Y, r24
	board->JoyXpos = Universal_read(ADC_START); //	- CH1 andre RD low gir channel 1
     dda:	80 e0       	ldi	r24, 0x00	; 0
     ddc:	94 e1       	ldi	r25, 0x14	; 20
     dde:	0e 94 9e 0a 	call	0x153c	; 0x153c <Universal_read>
     de2:	89 83       	std	Y+1, r24	; 0x01
	board->RSpos = Universal_read(ADC_START);	//	- CH2
     de4:	80 e0       	ldi	r24, 0x00	; 0
     de6:	94 e1       	ldi	r25, 0x14	; 20
     de8:	0e 94 9e 0a 	call	0x153c	; 0x153c <Universal_read>
     dec:	8b 83       	std	Y+3, r24	; 0x03
	board->LSpos = Universal_read(ADC_START);	//	- CH3
     dee:	80 e0       	ldi	r24, 0x00	; 0
     df0:	94 e1       	ldi	r25, 0x14	; 20
     df2:	0e 94 9e 0a 	call	0x153c	; 0x153c <Universal_read>
     df6:	8a 83       	std	Y+2, r24	; 0x02
	// Les knappestatus
	board->LBtn = 0<testBit(PINB, LEFT_BUTTON_PIN);
     df8:	81 e0       	ldi	r24, 0x01	; 1
     dfa:	b4 9b       	sbis	0x16, 4	; 22
     dfc:	80 e0       	ldi	r24, 0x00	; 0
     dfe:	8c 83       	std	Y+4, r24	; 0x04
	board->RBtn = 0<testBit(PINB, RIGHT_BUTTON_PIN);
     e00:	81 e0       	ldi	r24, 0x01	; 1
     e02:	b3 9b       	sbis	0x16, 3	; 22
     e04:	80 e0       	ldi	r24, 0x00	; 0
     e06:	8d 83       	std	Y+5, r24	; 0x05
	board->JoyBtn = !(0<testBit(PINB, JOY_BUTTON_PIN));
     e08:	81 e0       	ldi	r24, 0x01	; 1
     e0a:	b2 99       	sbic	0x16, 2	; 22
     e0c:	80 e0       	ldi	r24, 0x00	; 0
     e0e:	8e 83       	std	Y+6, r24	; 0x06
	// Opretter ein int med pluss og minus slik at vi kan finne riktig vinkel med _UpdateJoystickAngel
	board->JoyYposCal = (int16_t)(board->JoyYpos) - (int16_t)(board->JoyYOrigo);
     e10:	88 81       	ld	r24, Y
     e12:	90 e0       	ldi	r25, 0x00	; 0
     e14:	29 85       	ldd	r18, Y+9	; 0x09
     e16:	82 1b       	sub	r24, r18
     e18:	91 09       	sbc	r25, r1
     e1a:	9d 87       	std	Y+13, r25	; 0x0d
     e1c:	8c 87       	std	Y+12, r24	; 0x0c
	board->JoyXposCal = (int16_t)(board->JoyXpos) - (int16_t)(board->JoyXOrigo);
     e1e:	89 81       	ldd	r24, Y+1	; 0x01
     e20:	90 e0       	ldi	r25, 0x00	; 0
     e22:	28 85       	ldd	r18, Y+8	; 0x08
     e24:	82 1b       	sub	r24, r18
     e26:	91 09       	sbc	r25, r1
     e28:	9b 87       	std	Y+11, r25	; 0x0b
     e2a:	8a 87       	std	Y+10, r24	; 0x0a
	///IKKJE TESTA
	MultiBoard_UpdateJoystickAngle(board);
     e2c:	ce 01       	movw	r24, r28
     e2e:	0e 94 71 06 	call	0xce2	; 0xce2 <MultiBoard_UpdateJoystickAngle>
}
     e32:	df 91       	pop	r29
     e34:	cf 91       	pop	r28
     e36:	08 95       	ret

00000e38 <oled_write_command>:
	}
	uint16_t sram_address = row * 128 + (col * 8); 
	for (uint8_t i = 0; i < 8; i++) {
		SRAM_write(sram_address + i, pgm_read_byte(&font8x8_basic[(c - 32) * 8 + i]));
	}
}
     e38:	68 2f       	mov	r22, r24
     e3a:	80 e0       	ldi	r24, 0x00	; 0
     e3c:	90 e0       	ldi	r25, 0x00	; 0
     e3e:	0e 94 8e 0a 	call	0x151c	; 0x151c <Universal_write>
     e42:	08 95       	ret

00000e44 <oled_write_data>:
     e44:	ef 92       	push	r14
     e46:	ff 92       	push	r15
     e48:	0f 93       	push	r16
     e4a:	1f 93       	push	r17
     e4c:	cf 93       	push	r28
     e4e:	df 93       	push	r29
     e50:	61 15       	cp	r22, r1
     e52:	71 05       	cpc	r23, r1
     e54:	81 f0       	breq	.+32     	; 0xe76 <oled_write_data+0x32>
     e56:	7c 01       	movw	r14, r24
     e58:	8c 01       	movw	r16, r24
     e5a:	e6 0e       	add	r14, r22
     e5c:	f7 1e       	adc	r15, r23
     e5e:	c0 e0       	ldi	r28, 0x00	; 0
     e60:	d2 e0       	ldi	r29, 0x02	; 2
     e62:	f8 01       	movw	r30, r16
     e64:	61 91       	ld	r22, Z+
     e66:	8f 01       	movw	r16, r30
     e68:	ce 01       	movw	r24, r28
     e6a:	0e 94 8e 0a 	call	0x151c	; 0x151c <Universal_write>
     e6e:	21 96       	adiw	r28, 0x01	; 1
     e70:	0e 15       	cp	r16, r14
     e72:	1f 05       	cpc	r17, r15
     e74:	b1 f7       	brne	.-20     	; 0xe62 <oled_write_data+0x1e>
     e76:	df 91       	pop	r29
     e78:	cf 91       	pop	r28
     e7a:	1f 91       	pop	r17
     e7c:	0f 91       	pop	r16
     e7e:	ff 90       	pop	r15
     e80:	ef 90       	pop	r14
     e82:	08 95       	ret

00000e84 <oled_set_page>:
     e84:	87 70       	andi	r24, 0x07	; 7
     e86:	80 6b       	ori	r24, 0xB0	; 176
     e88:	0e 94 1c 07 	call	0xe38	; 0xe38 <oled_write_command>
     e8c:	08 95       	ret

00000e8e <oled_set_column>:
     e8e:	cf 93       	push	r28
     e90:	c8 2f       	mov	r28, r24
     e92:	82 95       	swap	r24
     e94:	8f 70       	andi	r24, 0x0F	; 15
     e96:	80 61       	ori	r24, 0x10	; 16
     e98:	0e 94 1c 07 	call	0xe38	; 0xe38 <oled_write_command>
     e9c:	8c 2f       	mov	r24, r28
     e9e:	8f 70       	andi	r24, 0x0F	; 15
     ea0:	0e 94 1c 07 	call	0xe38	; 0xe38 <oled_write_command>
     ea4:	cf 91       	pop	r28
     ea6:	08 95       	ret

00000ea8 <oled_init>:
     ea8:	8e ea       	ldi	r24, 0xAE	; 174
     eaa:	0e 94 1c 07 	call	0xe38	; 0xe38 <oled_write_command>
     eae:	81 ea       	ldi	r24, 0xA1	; 161
     eb0:	0e 94 1c 07 	call	0xe38	; 0xe38 <oled_write_command>
     eb4:	8a ed       	ldi	r24, 0xDA	; 218
     eb6:	0e 94 1c 07 	call	0xe38	; 0xe38 <oled_write_command>
     eba:	82 e1       	ldi	r24, 0x12	; 18
     ebc:	0e 94 1c 07 	call	0xe38	; 0xe38 <oled_write_command>
     ec0:	88 ec       	ldi	r24, 0xC8	; 200
     ec2:	0e 94 1c 07 	call	0xe38	; 0xe38 <oled_write_command>
     ec6:	88 ea       	ldi	r24, 0xA8	; 168
     ec8:	0e 94 1c 07 	call	0xe38	; 0xe38 <oled_write_command>
     ecc:	8f e3       	ldi	r24, 0x3F	; 63
     ece:	0e 94 1c 07 	call	0xe38	; 0xe38 <oled_write_command>
     ed2:	85 ed       	ldi	r24, 0xD5	; 213
     ed4:	0e 94 1c 07 	call	0xe38	; 0xe38 <oled_write_command>
     ed8:	80 e8       	ldi	r24, 0x80	; 128
     eda:	0e 94 1c 07 	call	0xe38	; 0xe38 <oled_write_command>
     ede:	81 e8       	ldi	r24, 0x81	; 129
     ee0:	0e 94 1c 07 	call	0xe38	; 0xe38 <oled_write_command>
     ee4:	80 e5       	ldi	r24, 0x50	; 80
     ee6:	0e 94 1c 07 	call	0xe38	; 0xe38 <oled_write_command>
     eea:	89 ed       	ldi	r24, 0xD9	; 217
     eec:	0e 94 1c 07 	call	0xe38	; 0xe38 <oled_write_command>
     ef0:	81 e2       	ldi	r24, 0x21	; 33
     ef2:	0e 94 1c 07 	call	0xe38	; 0xe38 <oled_write_command>
     ef6:	80 e2       	ldi	r24, 0x20	; 32
     ef8:	0e 94 1c 07 	call	0xe38	; 0xe38 <oled_write_command>
     efc:	82 e0       	ldi	r24, 0x02	; 2
     efe:	0e 94 1c 07 	call	0xe38	; 0xe38 <oled_write_command>
     f02:	8b ed       	ldi	r24, 0xDB	; 219
     f04:	0e 94 1c 07 	call	0xe38	; 0xe38 <oled_write_command>
     f08:	80 e3       	ldi	r24, 0x30	; 48
     f0a:	0e 94 1c 07 	call	0xe38	; 0xe38 <oled_write_command>
     f0e:	8d ea       	ldi	r24, 0xAD	; 173
     f10:	0e 94 1c 07 	call	0xe38	; 0xe38 <oled_write_command>
     f14:	80 e0       	ldi	r24, 0x00	; 0
     f16:	0e 94 1c 07 	call	0xe38	; 0xe38 <oled_write_command>
     f1a:	84 ea       	ldi	r24, 0xA4	; 164
     f1c:	0e 94 1c 07 	call	0xe38	; 0xe38 <oled_write_command>
     f20:	86 ea       	ldi	r24, 0xA6	; 166
     f22:	0e 94 1c 07 	call	0xe38	; 0xe38 <oled_write_command>
     f26:	8f ea       	ldi	r24, 0xAF	; 175
     f28:	0e 94 1c 07 	call	0xe38	; 0xe38 <oled_write_command>
     f2c:	08 95       	ret

00000f2e <oled_data_from_SRAM>:
     f2e:	8f 92       	push	r8
     f30:	9f 92       	push	r9
     f32:	bf 92       	push	r11
     f34:	cf 92       	push	r12
     f36:	df 92       	push	r13
     f38:	ef 92       	push	r14
     f3a:	ff 92       	push	r15
     f3c:	0f 93       	push	r16
     f3e:	1f 93       	push	r17
     f40:	cf 93       	push	r28
     f42:	df 93       	push	r29
     f44:	cd b7       	in	r28, 0x3d	; 61
     f46:	de b7       	in	r29, 0x3e	; 62
     f48:	c0 58       	subi	r28, 0x80	; 128
     f4a:	d1 09       	sbc	r29, r1
     f4c:	0f b6       	in	r0, 0x3f	; 63
     f4e:	f8 94       	cli
     f50:	de bf       	out	0x3e, r29	; 62
     f52:	0f be       	out	0x3f, r0	; 63
     f54:	cd bf       	out	0x3d, r28	; 61
     f56:	ce 01       	movw	r24, r28
     f58:	01 96       	adiw	r24, 0x01	; 1
     f5a:	4c 01       	movw	r8, r24
     f5c:	ee 24       	eor	r14, r14
     f5e:	ff 24       	eor	r15, r15
     f60:	e8 1a       	sub	r14, r24
     f62:	f9 0a       	sbc	r15, r25
     f64:	b1 2c       	mov	r11, r1
     f66:	6e 01       	movw	r12, r28
     f68:	91 e8       	ldi	r25, 0x81	; 129
     f6a:	c9 0e       	add	r12, r25
     f6c:	d1 1c       	adc	r13, r1
     f6e:	8b 2d       	mov	r24, r11
     f70:	0e 94 42 07 	call	0xe84	; 0xe84 <oled_set_page>
     f74:	80 e0       	ldi	r24, 0x00	; 0
     f76:	0e 94 47 07 	call	0xe8e	; 0xe8e <oled_set_column>
     f7a:	84 01       	movw	r16, r8
     f7c:	c8 01       	movw	r24, r16
     f7e:	8e 0d       	add	r24, r14
     f80:	9f 1d       	adc	r25, r15
     f82:	0e 94 7e 0a 	call	0x14fc	; 0x14fc <SRAM_read>
     f86:	f8 01       	movw	r30, r16
     f88:	81 93       	st	Z+, r24
     f8a:	8f 01       	movw	r16, r30
     f8c:	ec 15       	cp	r30, r12
     f8e:	fd 05       	cpc	r31, r13
     f90:	a9 f7       	brne	.-22     	; 0xf7c <oled_data_from_SRAM+0x4e>
     f92:	60 e8       	ldi	r22, 0x80	; 128
     f94:	70 e0       	ldi	r23, 0x00	; 0
     f96:	ce 01       	movw	r24, r28
     f98:	01 96       	adiw	r24, 0x01	; 1
     f9a:	0e 94 22 07 	call	0xe44	; 0xe44 <oled_write_data>
     f9e:	b3 94       	inc	r11
     fa0:	f0 e8       	ldi	r31, 0x80	; 128
     fa2:	ef 0e       	add	r14, r31
     fa4:	f1 1c       	adc	r15, r1
     fa6:	88 e0       	ldi	r24, 0x08	; 8
     fa8:	b8 12       	cpse	r11, r24
     faa:	e1 cf       	rjmp	.-62     	; 0xf6e <oled_data_from_SRAM+0x40>
     fac:	c0 58       	subi	r28, 0x80	; 128
     fae:	df 4f       	sbci	r29, 0xFF	; 255
     fb0:	0f b6       	in	r0, 0x3f	; 63
     fb2:	f8 94       	cli
     fb4:	de bf       	out	0x3e, r29	; 62
     fb6:	0f be       	out	0x3f, r0	; 63
     fb8:	cd bf       	out	0x3d, r28	; 61
     fba:	df 91       	pop	r29
     fbc:	cf 91       	pop	r28
     fbe:	1f 91       	pop	r17
     fc0:	0f 91       	pop	r16
     fc2:	ff 90       	pop	r15
     fc4:	ef 90       	pop	r14
     fc6:	df 90       	pop	r13
     fc8:	cf 90       	pop	r12
     fca:	bf 90       	pop	r11
     fcc:	9f 90       	pop	r9
     fce:	8f 90       	pop	r8
     fd0:	08 95       	ret

00000fd2 <oled_write_screen_to_SRAM>:
     fd2:	6f 92       	push	r6
     fd4:	7f 92       	push	r7
     fd6:	8f 92       	push	r8
     fd8:	9f 92       	push	r9
     fda:	af 92       	push	r10
     fdc:	bf 92       	push	r11
     fde:	cf 92       	push	r12
     fe0:	df 92       	push	r13
     fe2:	ef 92       	push	r14
     fe4:	ff 92       	push	r15
     fe6:	0f 93       	push	r16
     fe8:	1f 93       	push	r17
     fea:	cf 93       	push	r28
     fec:	df 93       	push	r29
     fee:	4c 01       	movw	r8, r24
     ff0:	e1 2c       	mov	r14, r1
     ff2:	f1 2c       	mov	r15, r1
     ff4:	0f 2e       	mov	r0, r31
     ff6:	f0 ef       	ldi	r31, 0xF0	; 240
     ff8:	6f 2e       	mov	r6, r31
     ffa:	f2 e0       	ldi	r31, 0x02	; 2
     ffc:	7f 2e       	mov	r7, r31
     ffe:	f0 2d       	mov	r31, r0
    1000:	0f 2e       	mov	r0, r31
    1002:	f8 ef       	ldi	r31, 0xF8	; 248
    1004:	af 2e       	mov	r10, r31
    1006:	f2 e0       	ldi	r31, 0x02	; 2
    1008:	bf 2e       	mov	r11, r31
    100a:	f0 2d       	mov	r31, r0
    100c:	f4 01       	movw	r30, r8
    100e:	04 91       	lpm	r16, Z
    1010:	80 ee       	ldi	r24, 0xE0	; 224
    1012:	80 0f       	add	r24, r16
    1014:	80 36       	cpi	r24, 0x60	; 96
    1016:	f0 f4       	brcc	.+60     	; 0x1054 <oled_write_screen_to_SRAM+0x82>
    1018:	10 e0       	ldi	r17, 0x00	; 0
    101a:	00 52       	subi	r16, 0x20	; 32
    101c:	11 09       	sbc	r17, r1
    101e:	00 0f       	add	r16, r16
    1020:	11 1f       	adc	r17, r17
    1022:	00 0f       	add	r16, r16
    1024:	11 1f       	adc	r17, r17
    1026:	00 0f       	add	r16, r16
    1028:	11 1f       	adc	r17, r17
    102a:	67 01       	movw	r12, r14
    102c:	f8 e0       	ldi	r31, 0x08	; 8
    102e:	cf 0e       	add	r12, r31
    1030:	d1 1c       	adc	r13, r1
    1032:	e7 01       	movw	r28, r14
    1034:	0e 19       	sub	r16, r14
    1036:	1f 09       	sbc	r17, r15
    1038:	f8 01       	movw	r30, r16
    103a:	ec 0f       	add	r30, r28
    103c:	fd 1f       	adc	r31, r29
    103e:	e0 51       	subi	r30, 0x10	; 16
    1040:	fd 4f       	sbci	r31, 0xFD	; 253
    1042:	64 91       	lpm	r22, Z
    1044:	ce 01       	movw	r24, r28
    1046:	0e 94 6e 0a 	call	0x14dc	; 0x14dc <SRAM_write>
    104a:	21 96       	adiw	r28, 0x01	; 1
    104c:	cc 16       	cp	r12, r28
    104e:	dd 06       	cpc	r13, r29
    1050:	99 f7       	brne	.-26     	; 0x1038 <oled_write_screen_to_SRAM+0x66>
    1052:	10 c0       	rjmp	.+32     	; 0x1074 <oled_write_screen_to_SRAM+0xa2>
    1054:	c0 ef       	ldi	r28, 0xF0	; 240
    1056:	d2 e0       	ldi	r29, 0x02	; 2
    1058:	87 01       	movw	r16, r14
    105a:	06 19       	sub	r16, r6
    105c:	17 09       	sbc	r17, r7
    105e:	fe 01       	movw	r30, r28
    1060:	64 91       	lpm	r22, Z
    1062:	c8 01       	movw	r24, r16
    1064:	8c 0f       	add	r24, r28
    1066:	9d 1f       	adc	r25, r29
    1068:	0e 94 6e 0a 	call	0x14dc	; 0x14dc <SRAM_write>
    106c:	21 96       	adiw	r28, 0x01	; 1
    106e:	ca 15       	cp	r28, r10
    1070:	db 05       	cpc	r29, r11
    1072:	a9 f7       	brne	.-22     	; 0x105e <oled_write_screen_to_SRAM+0x8c>
    1074:	ff ef       	ldi	r31, 0xFF	; 255
    1076:	8f 1a       	sub	r8, r31
    1078:	9f 0a       	sbc	r9, r31
    107a:	88 e0       	ldi	r24, 0x08	; 8
    107c:	e8 0e       	add	r14, r24
    107e:	f1 1c       	adc	r15, r1
    1080:	e1 14       	cp	r14, r1
    1082:	e4 e0       	ldi	r30, 0x04	; 4
    1084:	fe 06       	cpc	r15, r30
    1086:	09 f0       	breq	.+2      	; 0x108a <oled_write_screen_to_SRAM+0xb8>
    1088:	c1 cf       	rjmp	.-126    	; 0x100c <oled_write_screen_to_SRAM+0x3a>
    108a:	df 91       	pop	r29
    108c:	cf 91       	pop	r28
    108e:	1f 91       	pop	r17
    1090:	0f 91       	pop	r16
    1092:	ff 90       	pop	r15
    1094:	ef 90       	pop	r14
    1096:	df 90       	pop	r13
    1098:	cf 90       	pop	r12
    109a:	bf 90       	pop	r11
    109c:	af 90       	pop	r10
    109e:	9f 90       	pop	r9
    10a0:	8f 90       	pop	r8
    10a2:	7f 90       	pop	r7
    10a4:	6f 90       	pop	r6
    10a6:	08 95       	ret

000010a8 <oled_write_line_to_SRAM>:
    10a8:	8f 92       	push	r8
    10aa:	9f 92       	push	r9
    10ac:	bf 92       	push	r11
    10ae:	cf 92       	push	r12
    10b0:	df 92       	push	r13
    10b2:	ef 92       	push	r14
    10b4:	ff 92       	push	r15
    10b6:	0f 93       	push	r16
    10b8:	1f 93       	push	r17
    10ba:	cf 93       	push	r28
    10bc:	df 93       	push	r29
    10be:	88 30       	cpi	r24, 0x08	; 8
    10c0:	08 f0       	brcs	.+2      	; 0x10c4 <oled_write_line_to_SRAM+0x1c>
    10c2:	5e c0       	rjmp	.+188    	; 0x1180 <oled_write_line_to_SRAM+0xd8>
    10c4:	fb 01       	movw	r30, r22
    10c6:	90 e8       	ldi	r25, 0x80	; 128
    10c8:	89 9f       	mul	r24, r25
    10ca:	60 01       	movw	r12, r0
    10cc:	11 24       	eor	r1, r1
    10ce:	80 81       	ld	r24, Z
    10d0:	88 23       	and	r24, r24
    10d2:	09 f4       	brne	.+2      	; 0x10d6 <oled_write_line_to_SRAM+0x2e>
    10d4:	47 c0       	rjmp	.+142    	; 0x1164 <oled_write_line_to_SRAM+0xbc>
    10d6:	76 01       	movw	r14, r12
    10d8:	8b 01       	movw	r16, r22
    10da:	b1 2c       	mov	r11, r1
    10dc:	0a c0       	rjmp	.+20     	; 0x10f2 <oled_write_line_to_SRAM+0x4a>
    10de:	0f 5f       	subi	r16, 0xFF	; 255
    10e0:	1f 4f       	sbci	r17, 0xFF	; 255
    10e2:	a8 e0       	ldi	r26, 0x08	; 8
    10e4:	ea 0e       	add	r14, r26
    10e6:	f1 1c       	adc	r15, r1
    10e8:	f8 01       	movw	r30, r16
    10ea:	80 81       	ld	r24, Z
    10ec:	88 23       	and	r24, r24
    10ee:	09 f4       	brne	.+2      	; 0x10f2 <oled_write_line_to_SRAM+0x4a>
    10f0:	3a c0       	rjmp	.+116    	; 0x1166 <oled_write_line_to_SRAM+0xbe>
    10f2:	c0 e0       	ldi	r28, 0x00	; 0
    10f4:	d0 e0       	ldi	r29, 0x00	; 0
    10f6:	d8 01       	movw	r26, r16
    10f8:	ec 91       	ld	r30, X
    10fa:	f0 e0       	ldi	r31, 0x00	; 0
    10fc:	b0 97       	sbiw	r30, 0x20	; 32
    10fe:	ee 0f       	add	r30, r30
    1100:	ff 1f       	adc	r31, r31
    1102:	ee 0f       	add	r30, r30
    1104:	ff 1f       	adc	r31, r31
    1106:	ee 0f       	add	r30, r30
    1108:	ff 1f       	adc	r31, r31
    110a:	ec 0f       	add	r30, r28
    110c:	fd 1f       	adc	r31, r29
    110e:	e0 51       	subi	r30, 0x10	; 16
    1110:	fd 4f       	sbci	r31, 0xFD	; 253
    1112:	64 91       	lpm	r22, Z
    1114:	c7 01       	movw	r24, r14
    1116:	8c 0f       	add	r24, r28
    1118:	9d 1f       	adc	r25, r29
    111a:	0e 94 6e 0a 	call	0x14dc	; 0x14dc <SRAM_write>
    111e:	21 96       	adiw	r28, 0x01	; 1
    1120:	c8 30       	cpi	r28, 0x08	; 8
    1122:	d1 05       	cpc	r29, r1
    1124:	41 f7       	brne	.-48     	; 0x10f6 <oled_write_line_to_SRAM+0x4e>
    1126:	b3 94       	inc	r11
    1128:	b0 e1       	ldi	r27, 0x10	; 16
    112a:	bb 12       	cpse	r11, r27
    112c:	d8 cf       	rjmp	.-80     	; 0x10de <oled_write_line_to_SRAM+0x36>
    112e:	28 c0       	rjmp	.+80     	; 0x1180 <oled_write_line_to_SRAM+0xd8>
    1130:	fe 01       	movw	r30, r28
    1132:	64 91       	lpm	r22, Z
    1134:	c8 01       	movw	r24, r16
    1136:	8c 0f       	add	r24, r28
    1138:	9d 1f       	adc	r25, r29
    113a:	0e 94 6e 0a 	call	0x14dc	; 0x14dc <SRAM_write>
    113e:	21 96       	adiw	r28, 0x01	; 1
    1140:	ce 15       	cp	r28, r14
    1142:	df 05       	cpc	r29, r15
    1144:	a9 f7       	brne	.-22     	; 0x1130 <oled_write_line_to_SRAM+0x88>
    1146:	b3 94       	inc	r11
    1148:	ff e0       	ldi	r31, 0x0F	; 15
    114a:	fb 15       	cp	r31, r11
    114c:	c8 f0       	brcs	.+50     	; 0x1180 <oled_write_line_to_SRAM+0xd8>
    114e:	c0 ef       	ldi	r28, 0xF0	; 240
    1150:	d2 e0       	ldi	r29, 0x02	; 2
    1152:	86 01       	movw	r16, r12
    1154:	88 e0       	ldi	r24, 0x08	; 8
    1156:	b8 9e       	mul	r11, r24
    1158:	00 0d       	add	r16, r0
    115a:	11 1d       	adc	r17, r1
    115c:	11 24       	eor	r1, r1
    115e:	08 19       	sub	r16, r8
    1160:	19 09       	sbc	r17, r9
    1162:	e6 cf       	rjmp	.-52     	; 0x1130 <oled_write_line_to_SRAM+0x88>
    1164:	b1 2c       	mov	r11, r1
    1166:	0f 2e       	mov	r0, r31
    1168:	f0 ef       	ldi	r31, 0xF0	; 240
    116a:	8f 2e       	mov	r8, r31
    116c:	f2 e0       	ldi	r31, 0x02	; 2
    116e:	9f 2e       	mov	r9, r31
    1170:	f0 2d       	mov	r31, r0
    1172:	0f 2e       	mov	r0, r31
    1174:	f8 ef       	ldi	r31, 0xF8	; 248
    1176:	ef 2e       	mov	r14, r31
    1178:	f2 e0       	ldi	r31, 0x02	; 2
    117a:	ff 2e       	mov	r15, r31
    117c:	f0 2d       	mov	r31, r0
    117e:	e7 cf       	rjmp	.-50     	; 0x114e <oled_write_line_to_SRAM+0xa6>
    1180:	df 91       	pop	r29
    1182:	cf 91       	pop	r28
    1184:	1f 91       	pop	r17
    1186:	0f 91       	pop	r16
    1188:	ff 90       	pop	r15
    118a:	ef 90       	pop	r14
    118c:	df 90       	pop	r13
    118e:	cf 90       	pop	r12
    1190:	bf 90       	pop	r11
    1192:	9f 90       	pop	r9
    1194:	8f 90       	pop	r8
    1196:	08 95       	ret

00001198 <oled_write_pixel_to_SRAM>:

void oled_write_pixel_to_SRAM(uint8_t row, uint8_t col, uint8_t value) {
    1198:	0f 93       	push	r16
    119a:	1f 93       	push	r17
    119c:	cf 93       	push	r28
    119e:	df 93       	push	r29
	if (row >= 64 || col >= 128) {
    11a0:	80 34       	cpi	r24, 0x40	; 64
    11a2:	48 f5       	brcc	.+82     	; 0x11f6 <oled_write_pixel_to_SRAM+0x5e>
    11a4:	66 23       	and	r22, r22
    11a6:	3c f1       	brlt	.+78     	; 0x11f6 <oled_write_pixel_to_SRAM+0x5e>
    11a8:	04 2f       	mov	r16, r20
    11aa:	18 2f       	mov	r17, r24
		return;
	}
	
	// Finn korrekt byte i SRAM for Â justere pikslen
	uint16_t sram_address = (row / 8) * 128 + col;
    11ac:	86 95       	lsr	r24
    11ae:	86 95       	lsr	r24
    11b0:	86 95       	lsr	r24
    11b2:	c6 2f       	mov	r28, r22
    11b4:	d0 e0       	ldi	r29, 0x00	; 0
    11b6:	90 e8       	ldi	r25, 0x80	; 128
    11b8:	89 9f       	mul	r24, r25
    11ba:	c0 0d       	add	r28, r0
    11bc:	d1 1d       	adc	r29, r1
    11be:	11 24       	eor	r1, r1
	uint8_t current_byte = SRAM_read(sram_address);
    11c0:	ce 01       	movw	r24, r28
    11c2:	0e 94 7e 0a 	call	0x14fc	; 0x14fc <SRAM_read>
	uint8_t bit_position = row % 8;
    11c6:	17 70       	andi	r17, 0x07	; 7

	// Sett eller nullstill den ¯nskede biten
	if (value) {
    11c8:	00 23       	and	r16, r16
    11ca:	49 f0       	breq	.+18     	; 0x11de <oled_write_pixel_to_SRAM+0x46>
		current_byte |= (1 << bit_position);  // Sett bit til 1
    11cc:	61 e0       	ldi	r22, 0x01	; 1
    11ce:	70 e0       	ldi	r23, 0x00	; 0
    11d0:	02 c0       	rjmp	.+4      	; 0x11d6 <oled_write_pixel_to_SRAM+0x3e>
    11d2:	66 0f       	add	r22, r22
    11d4:	77 1f       	adc	r23, r23
    11d6:	1a 95       	dec	r17
    11d8:	e2 f7       	brpl	.-8      	; 0x11d2 <oled_write_pixel_to_SRAM+0x3a>
    11da:	68 2b       	or	r22, r24
    11dc:	09 c0       	rjmp	.+18     	; 0x11f0 <oled_write_pixel_to_SRAM+0x58>
		} else {
		current_byte &= ~(1 << bit_position);  // Nullstill bit til 0
    11de:	61 e0       	ldi	r22, 0x01	; 1
    11e0:	70 e0       	ldi	r23, 0x00	; 0
    11e2:	02 c0       	rjmp	.+4      	; 0x11e8 <oled_write_pixel_to_SRAM+0x50>
    11e4:	66 0f       	add	r22, r22
    11e6:	77 1f       	adc	r23, r23
    11e8:	1a 95       	dec	r17
    11ea:	e2 f7       	brpl	.-8      	; 0x11e4 <oled_write_pixel_to_SRAM+0x4c>
    11ec:	60 95       	com	r22
    11ee:	68 23       	and	r22, r24
	}
	
	SRAM_write(sram_address, current_byte);
    11f0:	ce 01       	movw	r24, r28
    11f2:	0e 94 6e 0a 	call	0x14dc	; 0x14dc <SRAM_write>
}
    11f6:	df 91       	pop	r29
    11f8:	cf 91       	pop	r28
    11fa:	1f 91       	pop	r17
    11fc:	0f 91       	pop	r16
    11fe:	08 95       	ret

00001200 <oled_clear_screen>:

void oled_clear_screen(void) {
    1200:	cf 93       	push	r28
    1202:	df 93       	push	r29
	// Lag en tom buffer fylt med nuller eller mellomrom (0 er nok, fordi funksjonen oversetter til ' ')
	char empty_buffer[128] = {0};  // Heile skjermen, 128 tegn

	// Skriv den tomme bufferen til SRAM, som vil t¯mme skjermen
	oled_write_screen_to_SRAM(empty_buffer);*/
	for(int i = 0; i < 1024; i++){
    1204:	c0 e0       	ldi	r28, 0x00	; 0
    1206:	d0 e0       	ldi	r29, 0x00	; 0
		SRAM_write(i, 0);
    1208:	60 e0       	ldi	r22, 0x00	; 0
    120a:	ce 01       	movw	r24, r28
    120c:	0e 94 6e 0a 	call	0x14dc	; 0x14dc <SRAM_write>
	// Lag en tom buffer fylt med nuller eller mellomrom (0 er nok, fordi funksjonen oversetter til ' ')
	char empty_buffer[128] = {0};  // Heile skjermen, 128 tegn

	// Skriv den tomme bufferen til SRAM, som vil t¯mme skjermen
	oled_write_screen_to_SRAM(empty_buffer);*/
	for(int i = 0; i < 1024; i++){
    1210:	21 96       	adiw	r28, 0x01	; 1
    1212:	c1 15       	cp	r28, r1
    1214:	84 e0       	ldi	r24, 0x04	; 4
    1216:	d8 07       	cpc	r29, r24
    1218:	b9 f7       	brne	.-18     	; 0x1208 <oled_clear_screen+0x8>
		SRAM_write(i, 0);
	}
}
    121a:	df 91       	pop	r29
    121c:	cf 91       	pop	r28
    121e:	08 95       	ret

00001220 <oled_draw_line>:

void oled_draw_line(uint8_t x0, uint8_t y0, uint8_t x1, uint8_t y1) {
    1220:	6f 92       	push	r6
    1222:	7f 92       	push	r7
    1224:	8f 92       	push	r8
    1226:	9f 92       	push	r9
    1228:	af 92       	push	r10
    122a:	bf 92       	push	r11
    122c:	cf 92       	push	r12
    122e:	df 92       	push	r13
    1230:	ef 92       	push	r14
    1232:	ff 92       	push	r15
    1234:	0f 93       	push	r16
    1236:	1f 93       	push	r17
    1238:	cf 93       	push	r28
    123a:	df 93       	push	r29
    123c:	c8 2f       	mov	r28, r24
    123e:	d6 2f       	mov	r29, r22
    1240:	94 2e       	mov	r9, r20
    1242:	62 2e       	mov	r6, r18
	int dx = abs(x1 - x0);
    1244:	84 2f       	mov	r24, r20
    1246:	90 e0       	ldi	r25, 0x00	; 0
    1248:	8c 1b       	sub	r24, r28
    124a:	91 09       	sbc	r25, r1
    124c:	7c 01       	movw	r14, r24
    124e:	22 f4       	brpl	.+8      	; 0x1258 <oled_draw_line+0x38>
    1250:	ee 24       	eor	r14, r14
    1252:	ff 24       	eor	r15, r15
    1254:	e8 1a       	sub	r14, r24
    1256:	f9 0a       	sbc	r15, r25
	int dy = abs(y1 - y0);
    1258:	86 2d       	mov	r24, r6
    125a:	90 e0       	ldi	r25, 0x00	; 0
    125c:	8d 1b       	sub	r24, r29
    125e:	91 09       	sbc	r25, r1
    1260:	5c 01       	movw	r10, r24
    1262:	22 f4       	brpl	.+8      	; 0x126c <oled_draw_line+0x4c>
    1264:	aa 24       	eor	r10, r10
    1266:	bb 24       	eor	r11, r11
    1268:	a8 1a       	sub	r10, r24
    126a:	b9 0a       	sbc	r11, r25
	int sx = (x0 < x1) ? 1 : -1;
    126c:	c9 15       	cp	r28, r9
    126e:	18 f0       	brcs	.+6      	; 0x1276 <oled_draw_line+0x56>
    1270:	88 24       	eor	r8, r8
    1272:	8a 94       	dec	r8
    1274:	02 c0       	rjmp	.+4      	; 0x127a <oled_draw_line+0x5a>
    1276:	88 24       	eor	r8, r8
    1278:	83 94       	inc	r8
	int sy = (y0 < y1) ? 1 : -1;
    127a:	d6 15       	cp	r29, r6
    127c:	18 f0       	brcs	.+6      	; 0x1284 <oled_draw_line+0x64>
    127e:	77 24       	eor	r7, r7
    1280:	7a 94       	dec	r7
    1282:	02 c0       	rjmp	.+4      	; 0x1288 <oled_draw_line+0x68>
    1284:	77 24       	eor	r7, r7
    1286:	73 94       	inc	r7
	int err = dx - dy;
    1288:	87 01       	movw	r16, r14
    128a:	0a 19       	sub	r16, r10
    128c:	1b 09       	sbc	r17, r11
	while (1) {
		oled_write_pixel_to_SRAM(y0, x0, 1);  // Tegn piksel

		if (x0 == x1 && y0 == y1) break;
		int e2 = 2 * err;
		if (e2 > -dy) {
    128e:	cc 24       	eor	r12, r12
    1290:	dd 24       	eor	r13, r13
    1292:	ca 18       	sub	r12, r10
    1294:	db 08       	sbc	r13, r11
	int sx = (x0 < x1) ? 1 : -1;
	int sy = (y0 < y1) ? 1 : -1;
	int err = dx - dy;

	while (1) {
		oled_write_pixel_to_SRAM(y0, x0, 1);  // Tegn piksel
    1296:	41 e0       	ldi	r20, 0x01	; 1
    1298:	6c 2f       	mov	r22, r28
    129a:	8d 2f       	mov	r24, r29
    129c:	0e 94 cc 08 	call	0x1198	; 0x1198 <oled_write_pixel_to_SRAM>

		if (x0 == x1 && y0 == y1) break;
    12a0:	c9 11       	cpse	r28, r9
    12a2:	02 c0       	rjmp	.+4      	; 0x12a8 <oled_draw_line+0x88>
    12a4:	d6 15       	cp	r29, r6
    12a6:	81 f0       	breq	.+32     	; 0x12c8 <oled_draw_line+0xa8>
		int e2 = 2 * err;
    12a8:	c8 01       	movw	r24, r16
    12aa:	88 0f       	add	r24, r24
    12ac:	99 1f       	adc	r25, r25
		if (e2 > -dy) {
    12ae:	c8 16       	cp	r12, r24
    12b0:	d9 06       	cpc	r13, r25
    12b2:	1c f4       	brge	.+6      	; 0x12ba <oled_draw_line+0x9a>
			err -= dy;
    12b4:	0a 19       	sub	r16, r10
    12b6:	1b 09       	sbc	r17, r11
			x0 += sx;
    12b8:	c8 0d       	add	r28, r8
		}
		if (e2 < dx) {
    12ba:	8e 15       	cp	r24, r14
    12bc:	9f 05       	cpc	r25, r15
    12be:	5c f7       	brge	.-42     	; 0x1296 <oled_draw_line+0x76>
			err += dx;
    12c0:	0e 0d       	add	r16, r14
    12c2:	1f 1d       	adc	r17, r15
			y0 += sy;
    12c4:	d7 0d       	add	r29, r7
    12c6:	e7 cf       	rjmp	.-50     	; 0x1296 <oled_draw_line+0x76>
		}
	}
}
    12c8:	df 91       	pop	r29
    12ca:	cf 91       	pop	r28
    12cc:	1f 91       	pop	r17
    12ce:	0f 91       	pop	r16
    12d0:	ff 90       	pop	r15
    12d2:	ef 90       	pop	r14
    12d4:	df 90       	pop	r13
    12d6:	cf 90       	pop	r12
    12d8:	bf 90       	pop	r11
    12da:	af 90       	pop	r10
    12dc:	9f 90       	pop	r9
    12de:	8f 90       	pop	r8
    12e0:	7f 90       	pop	r7
    12e2:	6f 90       	pop	r6
    12e4:	08 95       	ret

000012e6 <oled_draw_circle>:

void oled_draw_circle(uint8_t x0, uint8_t y0, uint8_t radius) {
    12e6:	9f 92       	push	r9
    12e8:	af 92       	push	r10
    12ea:	bf 92       	push	r11
    12ec:	cf 92       	push	r12
    12ee:	df 92       	push	r13
    12f0:	ef 92       	push	r14
    12f2:	ff 92       	push	r15
    12f4:	0f 93       	push	r16
    12f6:	1f 93       	push	r17
    12f8:	cf 93       	push	r28
    12fa:	df 93       	push	r29
    12fc:	98 2e       	mov	r9, r24
    12fe:	c6 2e       	mov	r12, r22
	int x = radius;
    1300:	c4 2f       	mov	r28, r20
    1302:	d0 e0       	ldi	r29, 0x00	; 0
    1304:	a1 2c       	mov	r10, r1
    1306:	b1 2c       	mov	r11, r1
    1308:	00 e0       	ldi	r16, 0x00	; 0
    130a:	10 e0       	ldi	r17, 0x00	; 0
	int y = 0;
	int err = 0;

	while (x >= y) {
		oled_write_pixel_to_SRAM(y0 + y, x0 + x, 1);
    130c:	41 e0       	ldi	r20, 0x01	; 1
    130e:	fc 2e       	mov	r15, r28
    1310:	f9 0c       	add	r15, r9
    1312:	6f 2d       	mov	r22, r15
    1314:	dc 2c       	mov	r13, r12
    1316:	d0 0e       	add	r13, r16
    1318:	8d 2d       	mov	r24, r13
    131a:	0e 94 cc 08 	call	0x1198	; 0x1198 <oled_write_pixel_to_SRAM>
		oled_write_pixel_to_SRAM(y0 + y, x0 - x, 1);
    131e:	41 e0       	ldi	r20, 0x01	; 1
    1320:	e9 2c       	mov	r14, r9
    1322:	ec 1a       	sub	r14, r28
    1324:	6e 2d       	mov	r22, r14
    1326:	8d 2d       	mov	r24, r13
    1328:	0e 94 cc 08 	call	0x1198	; 0x1198 <oled_write_pixel_to_SRAM>
		oled_write_pixel_to_SRAM(y0 - y, x0 + x, 1);
    132c:	41 e0       	ldi	r20, 0x01	; 1
    132e:	6f 2d       	mov	r22, r15
    1330:	fc 2c       	mov	r15, r12
    1332:	f0 1a       	sub	r15, r16
    1334:	8f 2d       	mov	r24, r15
    1336:	0e 94 cc 08 	call	0x1198	; 0x1198 <oled_write_pixel_to_SRAM>
		oled_write_pixel_to_SRAM(y0 - y, x0 - x, 1);
    133a:	41 e0       	ldi	r20, 0x01	; 1
    133c:	6e 2d       	mov	r22, r14
    133e:	8f 2d       	mov	r24, r15
    1340:	0e 94 cc 08 	call	0x1198	; 0x1198 <oled_write_pixel_to_SRAM>
		oled_write_pixel_to_SRAM(y0 + x, x0 + y, 1);
    1344:	41 e0       	ldi	r20, 0x01	; 1
    1346:	f9 2c       	mov	r15, r9
    1348:	f0 0e       	add	r15, r16
    134a:	6f 2d       	mov	r22, r15
    134c:	dc 2e       	mov	r13, r28
    134e:	dc 0c       	add	r13, r12
    1350:	8d 2d       	mov	r24, r13
    1352:	0e 94 cc 08 	call	0x1198	; 0x1198 <oled_write_pixel_to_SRAM>
		oled_write_pixel_to_SRAM(y0 + x, x0 - y, 1);
    1356:	41 e0       	ldi	r20, 0x01	; 1
    1358:	e9 2c       	mov	r14, r9
    135a:	e0 1a       	sub	r14, r16
    135c:	6e 2d       	mov	r22, r14
    135e:	8d 2d       	mov	r24, r13
    1360:	0e 94 cc 08 	call	0x1198	; 0x1198 <oled_write_pixel_to_SRAM>
		oled_write_pixel_to_SRAM(y0 - x, x0 + y, 1);
    1364:	41 e0       	ldi	r20, 0x01	; 1
    1366:	6f 2d       	mov	r22, r15
    1368:	fc 2c       	mov	r15, r12
    136a:	fc 1a       	sub	r15, r28
    136c:	8f 2d       	mov	r24, r15
    136e:	0e 94 cc 08 	call	0x1198	; 0x1198 <oled_write_pixel_to_SRAM>
		oled_write_pixel_to_SRAM(y0 - x, x0 - y, 1);
    1372:	41 e0       	ldi	r20, 0x01	; 1
    1374:	6e 2d       	mov	r22, r14
    1376:	8f 2d       	mov	r24, r15
    1378:	0e 94 cc 08 	call	0x1198	; 0x1198 <oled_write_pixel_to_SRAM>

		if (err <= 0) {
    137c:	1a 14       	cp	r1, r10
    137e:	1b 04       	cpc	r1, r11
    1380:	5c f0       	brlt	.+22     	; 0x1398 <oled_draw_circle+0xb2>
			y += 1;
    1382:	0f 5f       	subi	r16, 0xFF	; 255
    1384:	1f 4f       	sbci	r17, 0xFF	; 255
			err += 2 * y + 1;
    1386:	c8 01       	movw	r24, r16
    1388:	88 0f       	add	r24, r24
    138a:	99 1f       	adc	r25, r25
    138c:	01 96       	adiw	r24, 0x01	; 1
    138e:	a8 0e       	add	r10, r24
    1390:	b9 1e       	adc	r11, r25
		}
		if (err > 0) {
    1392:	1a 14       	cp	r1, r10
    1394:	1b 04       	cpc	r1, r11
    1396:	3c f4       	brge	.+14     	; 0x13a6 <oled_draw_circle+0xc0>
			x -= 1;
    1398:	21 97       	sbiw	r28, 0x01	; 1
			err -= 2 * x + 1;
    139a:	ce 01       	movw	r24, r28
    139c:	88 0f       	add	r24, r24
    139e:	99 1f       	adc	r25, r25
    13a0:	01 96       	adiw	r24, 0x01	; 1
    13a2:	a8 1a       	sub	r10, r24
    13a4:	b9 0a       	sbc	r11, r25
void oled_draw_circle(uint8_t x0, uint8_t y0, uint8_t radius) {
	int x = radius;
	int y = 0;
	int err = 0;

	while (x >= y) {
    13a6:	c0 17       	cp	r28, r16
    13a8:	d1 07       	cpc	r29, r17
    13aa:	0c f0       	brlt	.+2      	; 0x13ae <oled_draw_circle+0xc8>
    13ac:	af cf       	rjmp	.-162    	; 0x130c <oled_draw_circle+0x26>
		if (err > 0) {
			x -= 1;
			err -= 2 * x + 1;
		}
	}
}
    13ae:	df 91       	pop	r29
    13b0:	cf 91       	pop	r28
    13b2:	1f 91       	pop	r17
    13b4:	0f 91       	pop	r16
    13b6:	ff 90       	pop	r15
    13b8:	ef 90       	pop	r14
    13ba:	df 90       	pop	r13
    13bc:	cf 90       	pop	r12
    13be:	bf 90       	pop	r11
    13c0:	af 90       	pop	r10
    13c2:	9f 90       	pop	r9
    13c4:	08 95       	ret

000013c6 <oled_draw_square>:

void oled_draw_square(uint8_t x0, uint8_t y0, uint8_t width, uint8_t height) {
    13c6:	0f 93       	push	r16
    13c8:	1f 93       	push	r17
    13ca:	cf 93       	push	r28
    13cc:	df 93       	push	r29
    13ce:	08 2f       	mov	r16, r24
    13d0:	16 2f       	mov	r17, r22
    13d2:	d2 2f       	mov	r29, r18
	oled_draw_line(x0, y0, x0 + width, y0);           // ÿvre linje
    13d4:	c8 2f       	mov	r28, r24
    13d6:	c4 0f       	add	r28, r20
    13d8:	26 2f       	mov	r18, r22
    13da:	4c 2f       	mov	r20, r28
    13dc:	0e 94 10 09 	call	0x1220	; 0x1220 <oled_draw_line>
	oled_draw_line(x0, y0 + height, x0 + width, y0 + height);  // Nedre linje
    13e0:	d1 0f       	add	r29, r17
    13e2:	2d 2f       	mov	r18, r29
    13e4:	4c 2f       	mov	r20, r28
    13e6:	6d 2f       	mov	r22, r29
    13e8:	80 2f       	mov	r24, r16
    13ea:	0e 94 10 09 	call	0x1220	; 0x1220 <oled_draw_line>
	oled_draw_line(x0, y0, x0, y0 + height);           // Venstre linje
    13ee:	2d 2f       	mov	r18, r29
    13f0:	40 2f       	mov	r20, r16
    13f2:	61 2f       	mov	r22, r17
    13f4:	80 2f       	mov	r24, r16
    13f6:	0e 94 10 09 	call	0x1220	; 0x1220 <oled_draw_line>
	oled_draw_line(x0 + width, y0, x0 + width, y0 + height);   // H¯yre linje
    13fa:	2d 2f       	mov	r18, r29
    13fc:	4c 2f       	mov	r20, r28
    13fe:	61 2f       	mov	r22, r17
    1400:	8c 2f       	mov	r24, r28
    1402:	0e 94 10 09 	call	0x1220	; 0x1220 <oled_draw_line>
}
    1406:	df 91       	pop	r29
    1408:	cf 91       	pop	r28
    140a:	1f 91       	pop	r17
    140c:	0f 91       	pop	r16
    140e:	08 95       	ret

00001410 <__vector_15>:

// Definer den globale variabelen for Â telje millisekund
volatile uint32_t overflow_count = 0;

// Timer-overflyt interrupt service rutine
ISR(TIMER1_OVF_vect) {
    1410:	1f 92       	push	r1
    1412:	0f 92       	push	r0
    1414:	0f b6       	in	r0, 0x3f	; 63
    1416:	0f 92       	push	r0
    1418:	11 24       	eor	r1, r1
    141a:	8f 93       	push	r24
    141c:	9f 93       	push	r25
    141e:	af 93       	push	r26
    1420:	bf 93       	push	r27
	overflow_count++;
    1422:	80 91 bd 01 	lds	r24, 0x01BD	; 0x8001bd <overflow_count>
    1426:	90 91 be 01 	lds	r25, 0x01BE	; 0x8001be <overflow_count+0x1>
    142a:	a0 91 bf 01 	lds	r26, 0x01BF	; 0x8001bf <overflow_count+0x2>
    142e:	b0 91 c0 01 	lds	r27, 0x01C0	; 0x8001c0 <overflow_count+0x3>
    1432:	01 96       	adiw	r24, 0x01	; 1
    1434:	a1 1d       	adc	r26, r1
    1436:	b1 1d       	adc	r27, r1
    1438:	80 93 bd 01 	sts	0x01BD, r24	; 0x8001bd <overflow_count>
    143c:	90 93 be 01 	sts	0x01BE, r25	; 0x8001be <overflow_count+0x1>
    1440:	a0 93 bf 01 	sts	0x01BF, r26	; 0x8001bf <overflow_count+0x2>
    1444:	b0 93 c0 01 	sts	0x01C0, r27	; 0x8001c0 <overflow_count+0x3>
}
    1448:	bf 91       	pop	r27
    144a:	af 91       	pop	r26
    144c:	9f 91       	pop	r25
    144e:	8f 91       	pop	r24
    1450:	0f 90       	pop	r0
    1452:	0f be       	out	0x3f, r0	; 63
    1454:	0f 90       	pop	r0
    1456:	1f 90       	pop	r1
    1458:	18 95       	reti

0000145a <get_screen_time_in_cycles>:
}

uint32_t get_screen_time_in_cycles(void) {
	// Returner tiden i klokkesykluser
	// Hver gang timeren overflyter, har vi telt 65536 klokkesykluser
	return (overflow_count * 65536UL) + TCNT1;
    145a:	80 91 bd 01 	lds	r24, 0x01BD	; 0x8001bd <overflow_count>
    145e:	90 91 be 01 	lds	r25, 0x01BE	; 0x8001be <overflow_count+0x1>
    1462:	a0 91 bf 01 	lds	r26, 0x01BF	; 0x8001bf <overflow_count+0x2>
    1466:	b0 91 c0 01 	lds	r27, 0x01C0	; 0x8001c0 <overflow_count+0x3>
    146a:	2c b5       	in	r18, 0x2c	; 44
    146c:	3d b5       	in	r19, 0x2d	; 45
    146e:	dc 01       	movw	r26, r24
    1470:	99 27       	eor	r25, r25
    1472:	88 27       	eor	r24, r24
    1474:	bc 01       	movw	r22, r24
    1476:	cd 01       	movw	r24, r26
    1478:	62 0f       	add	r22, r18
    147a:	73 1f       	adc	r23, r19
    147c:	81 1d       	adc	r24, r1
    147e:	91 1d       	adc	r25, r1
}
    1480:	08 95       	ret

00001482 <get_screen_time_in_ms>:
	overflow_count++;
}

// Funksjon som returnerer tida i millisekund sidan programstart
uint32_t get_screen_time_in_ms(void){
	return get_screen_time_in_cycles()/(4915200UL/1000);
    1482:	0e 94 2d 0a 	call	0x145a	; 0x145a <get_screen_time_in_cycles>
    1486:	23 e3       	ldi	r18, 0x33	; 51
    1488:	33 e1       	ldi	r19, 0x13	; 19
    148a:	40 e0       	ldi	r20, 0x00	; 0
    148c:	50 e0       	ldi	r21, 0x00	; 0
    148e:	0e 94 c2 0a 	call	0x1584	; 0x1584 <__udivmodsi4>
}
    1492:	ca 01       	movw	r24, r20
    1494:	b9 01       	movw	r22, r18
    1496:	08 95       	ret

00001498 <setup_timer>:

// Funksjon for Â setje opp Timer1 til Â generere 1 ms avbrot
void setup_timer() {
	/*______SCREEN TIMER______*/
	// Sett normal modus (WGM12 = 0)
	TCCR1A = 0;      // Normal mode
    1498:	1f bc       	out	0x2f, r1	; 47
	TCCR1B = (1 << CS10); // Prescaler = 1 (ingen prescaling, f_CPU direkte)
    149a:	81 e0       	ldi	r24, 0x01	; 1
    149c:	8e bd       	out	0x2e, r24	; 46

	// Aktiver Timer1 overflow interrupt
	TIMSK = (1 << TOIE1);
    149e:	80 e8       	ldi	r24, 0x80	; 128
    14a0:	89 bf       	out	0x39, r24	; 57

	// Nullstill Timer/Counter1
	TCNT1 = 0;
    14a2:	1d bc       	out	0x2d, r1	; 45
    14a4:	1c bc       	out	0x2c, r1	; 44
    14a6:	08 95       	ret

000014a8 <restart_screen_timer>:
	//TCNT3 = 0;
	//
}
void restart_screen_timer(){
	// Nullstill Timer/Counter1
	TCNT1 = 0;
    14a8:	1d bc       	out	0x2d, r1	; 45
    14aa:	1c bc       	out	0x2c, r1	; 44
	overflow_count = 0;
    14ac:	10 92 bd 01 	sts	0x01BD, r1	; 0x8001bd <overflow_count>
    14b0:	10 92 be 01 	sts	0x01BE, r1	; 0x8001be <overflow_count+0x1>
    14b4:	10 92 bf 01 	sts	0x01BF, r1	; 0x8001bf <overflow_count+0x2>
    14b8:	10 92 c0 01 	sts	0x01C0, r1	; 0x8001c0 <overflow_count+0x3>
    14bc:	08 95       	ret

000014be <externalMemoryInit>:
 */ 
#include "XMEM_Decode.h"
// Funksjon for ÔøΩ initialisere det eksterne minnet (SRAM + latch)
void externalMemoryInit(void) {
	// Set Port A (AD0-AD7) og Port C (A8-A15) som utgang for adresse- og databuss
	DDRA = 0xFF;  // PA0-PA7 som utgang
    14be:	8f ef       	ldi	r24, 0xFF	; 255
    14c0:	8a bb       	out	0x1a, r24	; 26
	DDRC = 0x0F ;  // PC0-PC3 som utgang
    14c2:	8f e0       	ldi	r24, 0x0F	; 15
    14c4:	84 bb       	out	0x14, r24	; 20
	
	// Set Port D (PD6 og PD7) som utgang for WR og RD signal
	setBit(DDRD, PD6);  // WR
    14c6:	8e 9a       	sbi	0x11, 6	; 17
	setBit(DDRD, PD7);  // RD
    14c8:	8f 9a       	sbi	0x11, 7	; 17

	// Set Port E (PE1) som utgang for ALE
	setBit(DDRE, PE1);  // ALE
    14ca:	31 9a       	sbi	0x06, 1	; 6

	// Aktivere ekstern minnegrensesnitt
	setBit(MCUCR, SRE);   // Enable external SRAM interface
    14cc:	85 b7       	in	r24, 0x35	; 53
    14ce:	80 68       	ori	r24, 0x80	; 128
    14d0:	85 bf       	out	0x35, r24	; 53
	SFIOR = 0x00;         // No wait state
    14d2:	10 be       	out	0x30, r1	; 48
	
	//Maskes pc4-pc7 (disables as output) (s32 ATmega datasheet)
	setBit(SFIOR, XMM2);
    14d4:	80 b7       	in	r24, 0x30	; 48
    14d6:	80 62       	ori	r24, 0x20	; 32
    14d8:	80 bf       	out	0x30, r24	; 48
    14da:	08 95       	ret

000014dc <SRAM_write>:
}


// Funksjon for ÔøΩ skrive data til SRAM
void SRAM_write(volatile uint16_t addr, uint8_t data) {
    14dc:	cf 93       	push	r28
    14de:	df 93       	push	r29
    14e0:	00 d0       	rcall	.+0      	; 0x14e2 <SRAM_write+0x6>
    14e2:	cd b7       	in	r28, 0x3d	; 61
    14e4:	de b7       	in	r29, 0x3e	; 62
    14e6:	9a 83       	std	Y+2, r25	; 0x02
    14e8:	89 83       	std	Y+1, r24	; 0x01
	volatile char *ext_ram = (char *) SRAM_START; // Startadresse for SRAM
	uint16_t ext_ram_size = SRAM_SIZE; // StÔøΩrrelsen pÔøΩ SRAM (2 KB) - kan fjernast
	ext_ram[addr] = data;
    14ea:	e9 81       	ldd	r30, Y+1	; 0x01
    14ec:	fa 81       	ldd	r31, Y+2	; 0x02
    14ee:	f8 5e       	subi	r31, 0xE8	; 232
    14f0:	60 83       	st	Z, r22
}
    14f2:	0f 90       	pop	r0
    14f4:	0f 90       	pop	r0
    14f6:	df 91       	pop	r29
    14f8:	cf 91       	pop	r28
    14fa:	08 95       	ret

000014fc <SRAM_read>:

// Funksjon for ÔøΩ lese data frÔøΩ SRAM
uint8_t SRAM_read(volatile uint16_t addr) {
    14fc:	cf 93       	push	r28
    14fe:	df 93       	push	r29
    1500:	00 d0       	rcall	.+0      	; 0x1502 <SRAM_read+0x6>
    1502:	cd b7       	in	r28, 0x3d	; 61
    1504:	de b7       	in	r29, 0x3e	; 62
    1506:	9a 83       	std	Y+2, r25	; 0x02
    1508:	89 83       	std	Y+1, r24	; 0x01
	volatile char *ext_ram = (char *) SRAM_START; // Startadresse for SRAM
	uint16_t ext_ram_size = SRAM_SIZE; // StÔøΩrrelsen pÔøΩ SRAM (2 KB) - kan fjernast
	uint8_t data = ext_ram[addr];
    150a:	e9 81       	ldd	r30, Y+1	; 0x01
    150c:	fa 81       	ldd	r31, Y+2	; 0x02
    150e:	f8 5e       	subi	r31, 0xE8	; 232
    1510:	80 81       	ld	r24, Z
	
	return data;
}
    1512:	0f 90       	pop	r0
    1514:	0f 90       	pop	r0
    1516:	df 91       	pop	r29
    1518:	cf 91       	pop	r28
    151a:	08 95       	ret

0000151c <Universal_write>:

// Funksjon for ÔøΩ skrive data til SRAM
void Universal_write(volatile uint16_t addr, uint8_t data) {
    151c:	cf 93       	push	r28
    151e:	df 93       	push	r29
    1520:	00 d0       	rcall	.+0      	; 0x1522 <Universal_write+0x6>
    1522:	cd b7       	in	r28, 0x3d	; 61
    1524:	de b7       	in	r29, 0x3e	; 62
    1526:	9a 83       	std	Y+2, r25	; 0x02
    1528:	89 83       	std	Y+1, r24	; 0x01
	volatile char *ext_ram = (char *) OLED_START; // Startadresse for SRAM
	ext_ram[addr] = data;
    152a:	e9 81       	ldd	r30, Y+1	; 0x01
    152c:	fa 81       	ldd	r31, Y+2	; 0x02
    152e:	f0 5f       	subi	r31, 0xF0	; 240
    1530:	60 83       	st	Z, r22
		
}
    1532:	0f 90       	pop	r0
    1534:	0f 90       	pop	r0
    1536:	df 91       	pop	r29
    1538:	cf 91       	pop	r28
    153a:	08 95       	ret

0000153c <Universal_read>:

// Funksjon for ÔøΩ lese data frÔøΩ SRAM
uint8_t Universal_read(volatile uint16_t addr) {
    153c:	cf 93       	push	r28
    153e:	df 93       	push	r29
    1540:	00 d0       	rcall	.+0      	; 0x1542 <Universal_read+0x6>
    1542:	cd b7       	in	r28, 0x3d	; 61
    1544:	de b7       	in	r29, 0x3e	; 62
    1546:	9a 83       	std	Y+2, r25	; 0x02
    1548:	89 83       	std	Y+1, r24	; 0x01
	volatile char *ext_ram = (char *) OLED_START; // Startadresse for SRAM
	uint8_t data = ext_ram[addr];
    154a:	e9 81       	ldd	r30, Y+1	; 0x01
    154c:	fa 81       	ldd	r31, Y+2	; 0x02
    154e:	f0 5f       	subi	r31, 0xF0	; 240
    1550:	80 81       	ld	r24, Z
	
	return data;
}
    1552:	0f 90       	pop	r0
    1554:	0f 90       	pop	r0
    1556:	df 91       	pop	r29
    1558:	cf 91       	pop	r28
    155a:	08 95       	ret

0000155c <__divmodhi4>:
    155c:	97 fb       	bst	r25, 7
    155e:	07 2e       	mov	r0, r23
    1560:	16 f4       	brtc	.+4      	; 0x1566 <__divmodhi4+0xa>
    1562:	00 94       	com	r0
    1564:	07 d0       	rcall	.+14     	; 0x1574 <__divmodhi4_neg1>
    1566:	77 fd       	sbrc	r23, 7
    1568:	09 d0       	rcall	.+18     	; 0x157c <__divmodhi4_neg2>
    156a:	0e 94 e4 0a 	call	0x15c8	; 0x15c8 <__udivmodhi4>
    156e:	07 fc       	sbrc	r0, 7
    1570:	05 d0       	rcall	.+10     	; 0x157c <__divmodhi4_neg2>
    1572:	3e f4       	brtc	.+14     	; 0x1582 <__divmodhi4_exit>

00001574 <__divmodhi4_neg1>:
    1574:	90 95       	com	r25
    1576:	81 95       	neg	r24
    1578:	9f 4f       	sbci	r25, 0xFF	; 255
    157a:	08 95       	ret

0000157c <__divmodhi4_neg2>:
    157c:	70 95       	com	r23
    157e:	61 95       	neg	r22
    1580:	7f 4f       	sbci	r23, 0xFF	; 255

00001582 <__divmodhi4_exit>:
    1582:	08 95       	ret

00001584 <__udivmodsi4>:
    1584:	a1 e2       	ldi	r26, 0x21	; 33
    1586:	1a 2e       	mov	r1, r26
    1588:	aa 1b       	sub	r26, r26
    158a:	bb 1b       	sub	r27, r27
    158c:	fd 01       	movw	r30, r26
    158e:	0d c0       	rjmp	.+26     	; 0x15aa <__udivmodsi4_ep>

00001590 <__udivmodsi4_loop>:
    1590:	aa 1f       	adc	r26, r26
    1592:	bb 1f       	adc	r27, r27
    1594:	ee 1f       	adc	r30, r30
    1596:	ff 1f       	adc	r31, r31
    1598:	a2 17       	cp	r26, r18
    159a:	b3 07       	cpc	r27, r19
    159c:	e4 07       	cpc	r30, r20
    159e:	f5 07       	cpc	r31, r21
    15a0:	20 f0       	brcs	.+8      	; 0x15aa <__udivmodsi4_ep>
    15a2:	a2 1b       	sub	r26, r18
    15a4:	b3 0b       	sbc	r27, r19
    15a6:	e4 0b       	sbc	r30, r20
    15a8:	f5 0b       	sbc	r31, r21

000015aa <__udivmodsi4_ep>:
    15aa:	66 1f       	adc	r22, r22
    15ac:	77 1f       	adc	r23, r23
    15ae:	88 1f       	adc	r24, r24
    15b0:	99 1f       	adc	r25, r25
    15b2:	1a 94       	dec	r1
    15b4:	69 f7       	brne	.-38     	; 0x1590 <__udivmodsi4_loop>
    15b6:	60 95       	com	r22
    15b8:	70 95       	com	r23
    15ba:	80 95       	com	r24
    15bc:	90 95       	com	r25
    15be:	9b 01       	movw	r18, r22
    15c0:	ac 01       	movw	r20, r24
    15c2:	bd 01       	movw	r22, r26
    15c4:	cf 01       	movw	r24, r30
    15c6:	08 95       	ret

000015c8 <__udivmodhi4>:
    15c8:	aa 1b       	sub	r26, r26
    15ca:	bb 1b       	sub	r27, r27
    15cc:	51 e1       	ldi	r21, 0x11	; 17
    15ce:	07 c0       	rjmp	.+14     	; 0x15de <__udivmodhi4_ep>

000015d0 <__udivmodhi4_loop>:
    15d0:	aa 1f       	adc	r26, r26
    15d2:	bb 1f       	adc	r27, r27
    15d4:	a6 17       	cp	r26, r22
    15d6:	b7 07       	cpc	r27, r23
    15d8:	10 f0       	brcs	.+4      	; 0x15de <__udivmodhi4_ep>
    15da:	a6 1b       	sub	r26, r22
    15dc:	b7 0b       	sbc	r27, r23

000015de <__udivmodhi4_ep>:
    15de:	88 1f       	adc	r24, r24
    15e0:	99 1f       	adc	r25, r25
    15e2:	5a 95       	dec	r21
    15e4:	a9 f7       	brne	.-22     	; 0x15d0 <__udivmodhi4_loop>
    15e6:	80 95       	com	r24
    15e8:	90 95       	com	r25
    15ea:	bc 01       	movw	r22, r24
    15ec:	cd 01       	movw	r24, r26
    15ee:	08 95       	ret

000015f0 <_exit>:
    15f0:	f8 94       	cli

000015f2 <__stop_program>:
    15f2:	ff cf       	rjmp	.-2      	; 0x15f2 <__stop_program>
