
RosaElefant.elf:     file format elf32-littlearm

Sections:
Idx Name          Size      VMA       LMA       File off  Algn
  0 .text         00000a74  00080000  00080000  00010000  2**2
                  CONTENTS, ALLOC, LOAD, READONLY, CODE
  1 .relocate     00000434  20000000  00080a74  00020000  2**3
                  CONTENTS, ALLOC, LOAD, DATA
  2 .bss          0000009c  20000438  00080eb0  00020438  2**3
                  ALLOC
  3 .stack        00000404  200004d4  00080f4c  00020438  2**0
                  ALLOC
  4 .heap         00000200  200008d8  00081350  00020438  2**0
                  ALLOC
  5 .ARM.attributes 00000029  00000000  00000000  00020434  2**0
                  CONTENTS, READONLY
  6 .comment      00000059  00000000  00000000  0002045d  2**0
                  CONTENTS, READONLY
  7 .debug_frame  000001c0  00000000  00000000  000204b8  2**2
                  CONTENTS, READONLY, DEBUGGING

Disassembly of section .text:

00080000 <exception_table>:
   80000:	d8 08 00 20 65 01 08 00 61 01 08 00 61 01 08 00     ... e...a...a...
   80010:	61 01 08 00 61 01 08 00 61 01 08 00 00 00 00 00     a...a...a.......
	...
   8002c:	61 01 08 00 61 01 08 00 00 00 00 00 61 01 08 00     a...a.......a...
   8003c:	e1 07 08 00 61 01 08 00 61 01 08 00 61 01 08 00     ....a...a...a...
   8004c:	61 01 08 00 61 01 08 00 61 01 08 00 61 01 08 00     a...a...a...a...
   8005c:	61 01 08 00 e9 06 08 00 61 01 08 00 00 00 00 00     a.......a.......
   8006c:	61 01 08 00 61 01 08 00 61 01 08 00 61 01 08 00     a...a...a...a...
	...
   80084:	61 01 08 00 61 01 08 00 61 01 08 00 61 01 08 00     a...a...a...a...
   80094:	61 01 08 00 61 01 08 00 61 01 08 00 61 01 08 00     a...a...a...a...
   800a4:	00 00 00 00 61 01 08 00 61 01 08 00 61 01 08 00     ....a...a...a...
   800b4:	61 01 08 00 61 01 08 00 61 01 08 00 61 01 08 00     a...a...a...a...
   800c4:	61 01 08 00 61 01 08 00 61 01 08 00 61 01 08 00     a...a...a...a...
   800d4:	61 01 08 00 61 01 08 00 61 01 08 00 61 01 08 00     a...a...a...a...
   800e4:	61 01 08 00 61 01 08 00 29 04 08 00 61 01 08 00     a...a...)...a...

000800f4 <__do_global_dtors_aux>:
   800f4:	b510      	push	{r4, lr}
   800f6:	4c05      	ldr	r4, [pc, #20]	; (8010c <__do_global_dtors_aux+0x18>)
   800f8:	7823      	ldrb	r3, [r4, #0]
   800fa:	b933      	cbnz	r3, 8010a <__do_global_dtors_aux+0x16>
   800fc:	4b04      	ldr	r3, [pc, #16]	; (80110 <__do_global_dtors_aux+0x1c>)
   800fe:	b113      	cbz	r3, 80106 <__do_global_dtors_aux+0x12>
   80100:	4804      	ldr	r0, [pc, #16]	; (80114 <__do_global_dtors_aux+0x20>)
   80102:	f3af 8000 	nop.w
   80106:	2301      	movs	r3, #1
   80108:	7023      	strb	r3, [r4, #0]
   8010a:	bd10      	pop	{r4, pc}
   8010c:	20000438 	.word	0x20000438
   80110:	00000000 	.word	0x00000000
   80114:	00080a74 	.word	0x00080a74

00080118 <frame_dummy>:
   80118:	4b0c      	ldr	r3, [pc, #48]	; (8014c <frame_dummy+0x34>)
   8011a:	b143      	cbz	r3, 8012e <frame_dummy+0x16>
   8011c:	480c      	ldr	r0, [pc, #48]	; (80150 <frame_dummy+0x38>)
   8011e:	b510      	push	{r4, lr}
   80120:	490c      	ldr	r1, [pc, #48]	; (80154 <frame_dummy+0x3c>)
   80122:	f3af 8000 	nop.w
   80126:	480c      	ldr	r0, [pc, #48]	; (80158 <frame_dummy+0x40>)
   80128:	6803      	ldr	r3, [r0, #0]
   8012a:	b923      	cbnz	r3, 80136 <frame_dummy+0x1e>
   8012c:	bd10      	pop	{r4, pc}
   8012e:	480a      	ldr	r0, [pc, #40]	; (80158 <frame_dummy+0x40>)
   80130:	6803      	ldr	r3, [r0, #0]
   80132:	b933      	cbnz	r3, 80142 <frame_dummy+0x2a>
   80134:	4770      	bx	lr
   80136:	4b09      	ldr	r3, [pc, #36]	; (8015c <frame_dummy+0x44>)
   80138:	2b00      	cmp	r3, #0
   8013a:	d0f7      	beq.n	8012c <frame_dummy+0x14>
   8013c:	e8bd 4010 	ldmia.w	sp!, {r4, lr}
   80140:	4718      	bx	r3
   80142:	4b06      	ldr	r3, [pc, #24]	; (8015c <frame_dummy+0x44>)
   80144:	2b00      	cmp	r3, #0
   80146:	d0f5      	beq.n	80134 <frame_dummy+0x1c>
   80148:	4718      	bx	r3
   8014a:	bf00      	nop
   8014c:	00000000 	.word	0x00000000
   80150:	00080a74 	.word	0x00080a74
   80154:	2000043c 	.word	0x2000043c
   80158:	00080a74 	.word	0x00080a74
   8015c:	00000000 	.word	0x00000000

00080160 <Dummy_Handler>:
   80160:	e7fe      	b.n	80160 <Dummy_Handler>
	...

00080164 <Reset_Handler>:
   80164:	b508      	push	{r3, lr}
   80166:	4a10      	ldr	r2, [pc, #64]	; (801a8 <Reset_Handler+0x44>)
   80168:	4b10      	ldr	r3, [pc, #64]	; (801ac <Reset_Handler+0x48>)
   8016a:	429a      	cmp	r2, r3
   8016c:	d110      	bne.n	80190 <Reset_Handler+0x2c>
   8016e:	2100      	movs	r1, #0
   80170:	4b0f      	ldr	r3, [pc, #60]	; (801b0 <Reset_Handler+0x4c>)
   80172:	4a10      	ldr	r2, [pc, #64]	; (801b4 <Reset_Handler+0x50>)
   80174:	4293      	cmp	r3, r2
   80176:	d314      	bcc.n	801a2 <Reset_Handler+0x3e>
   80178:	4b0f      	ldr	r3, [pc, #60]	; (801b8 <Reset_Handler+0x54>)
   8017a:	4a10      	ldr	r2, [pc, #64]	; (801bc <Reset_Handler+0x58>)
   8017c:	f023 4360 	bic.w	r3, r3, #3758096384	; 0xe0000000
   80180:	f023 037f 	bic.w	r3, r3, #127	; 0x7f
   80184:	6093      	str	r3, [r2, #8]
   80186:	4b0e      	ldr	r3, [pc, #56]	; (801c0 <Reset_Handler+0x5c>)
   80188:	4798      	blx	r3
   8018a:	4b0e      	ldr	r3, [pc, #56]	; (801c4 <Reset_Handler+0x60>)
   8018c:	4798      	blx	r3
   8018e:	e7fe      	b.n	8018e <Reset_Handler+0x2a>
   80190:	490d      	ldr	r1, [pc, #52]	; (801c8 <Reset_Handler+0x64>)
   80192:	3a04      	subs	r2, #4
   80194:	428b      	cmp	r3, r1
   80196:	d2ea      	bcs.n	8016e <Reset_Handler+0xa>
   80198:	f852 0f04 	ldr.w	r0, [r2, #4]!
   8019c:	f843 0b04 	str.w	r0, [r3], #4
   801a0:	e7f8      	b.n	80194 <Reset_Handler+0x30>
   801a2:	f843 1b04 	str.w	r1, [r3], #4
   801a6:	e7e5      	b.n	80174 <Reset_Handler+0x10>
   801a8:	00080a74 	.word	0x00080a74
   801ac:	20000000 	.word	0x20000000
   801b0:	20000438 	.word	0x20000438
   801b4:	200004d4 	.word	0x200004d4
   801b8:	00080000 	.word	0x00080000
   801bc:	e000ed00 	.word	0xe000ed00
   801c0:	00080861 	.word	0x00080861
   801c4:	00080739 	.word	0x00080739
   801c8:	20000434 	.word	0x20000434

000801cc <SystemInit>:
   801cc:	f44f 6380 	mov.w	r3, #1024	; 0x400
   801d0:	4a17      	ldr	r2, [pc, #92]	; (80230 <SystemInit+0x64>)
   801d2:	6013      	str	r3, [r2, #0]
   801d4:	f8c2 3200 	str.w	r3, [r2, #512]	; 0x200
   801d8:	4b16      	ldr	r3, [pc, #88]	; (80234 <SystemInit+0x68>)
   801da:	6a1a      	ldr	r2, [r3, #32]
   801dc:	01d2      	lsls	r2, r2, #7
   801de:	d520      	bpl.n	80222 <SystemInit+0x56>
   801e0:	4a15      	ldr	r2, [pc, #84]	; (80238 <SystemInit+0x6c>)
   801e2:	621a      	str	r2, [r3, #32]
   801e4:	6e9a      	ldr	r2, [r3, #104]	; 0x68
   801e6:	03d1      	lsls	r1, r2, #15
   801e8:	d5fc      	bpl.n	801e4 <SystemInit+0x18>
   801ea:	6b1a      	ldr	r2, [r3, #48]	; 0x30
   801ec:	f022 0203 	bic.w	r2, r2, #3
   801f0:	f042 0201 	orr.w	r2, r2, #1
   801f4:	631a      	str	r2, [r3, #48]	; 0x30
   801f6:	6e9a      	ldr	r2, [r3, #104]	; 0x68
   801f8:	0712      	lsls	r2, r2, #28
   801fa:	d5fc      	bpl.n	801f6 <SystemInit+0x2a>
   801fc:	4a0f      	ldr	r2, [pc, #60]	; (8023c <SystemInit+0x70>)
   801fe:	629a      	str	r2, [r3, #40]	; 0x28
   80200:	6e9a      	ldr	r2, [r3, #104]	; 0x68
   80202:	0790      	lsls	r0, r2, #30
   80204:	d5fc      	bpl.n	80200 <SystemInit+0x34>
   80206:	2211      	movs	r2, #17
   80208:	631a      	str	r2, [r3, #48]	; 0x30
   8020a:	6e9a      	ldr	r2, [r3, #104]	; 0x68
   8020c:	0711      	lsls	r1, r2, #28
   8020e:	d5fc      	bpl.n	8020a <SystemInit+0x3e>
   80210:	2212      	movs	r2, #18
   80212:	631a      	str	r2, [r3, #48]	; 0x30
   80214:	6e9a      	ldr	r2, [r3, #104]	; 0x68
   80216:	0712      	lsls	r2, r2, #28
   80218:	d5fc      	bpl.n	80214 <SystemInit+0x48>
   8021a:	4a09      	ldr	r2, [pc, #36]	; (80240 <SystemInit+0x74>)
   8021c:	4b09      	ldr	r3, [pc, #36]	; (80244 <SystemInit+0x78>)
   8021e:	601a      	str	r2, [r3, #0]
   80220:	4770      	bx	lr
   80222:	4a09      	ldr	r2, [pc, #36]	; (80248 <SystemInit+0x7c>)
   80224:	621a      	str	r2, [r3, #32]
   80226:	6e9a      	ldr	r2, [r3, #104]	; 0x68
   80228:	07d0      	lsls	r0, r2, #31
   8022a:	d5fc      	bpl.n	80226 <SystemInit+0x5a>
   8022c:	e7d8      	b.n	801e0 <SystemInit+0x14>
   8022e:	bf00      	nop
   80230:	400e0a00 	.word	0x400e0a00
   80234:	400e0600 	.word	0x400e0600
   80238:	01370809 	.word	0x01370809
   8023c:	200d3f01 	.word	0x200d3f01
   80240:	0501bd00 	.word	0x0501bd00
   80244:	20000000 	.word	0x20000000
   80248:	00370809 	.word	0x00370809

0008024c <can_init_controller>:
   8024c:	2808      	cmp	r0, #8
   8024e:	bf98      	it	ls
   80250:	2908      	cmpls	r1, #8
   80252:	e92d 41f0 	stmdb	sp!, {r4, r5, r6, r7, r8, lr}
   80256:	eb01 0500 	add.w	r5, r1, r0
   8025a:	d868      	bhi.n	8032e <can_init_controller+0xe2>
   8025c:	2d08      	cmp	r5, #8
   8025e:	bfd4      	ite	le
   80260:	2300      	movle	r3, #0
   80262:	2301      	movgt	r3, #1
   80264:	2b00      	cmp	r3, #0
   80266:	d162      	bne.n	8032e <can_init_controller+0xe2>
   80268:	f44f 7140 	mov.w	r1, #768	; 0x300
   8026c:	4f31      	ldr	r7, [pc, #196]	; (80334 <can_init_controller+0xe8>)
   8026e:	461e      	mov	r6, r3
   80270:	683a      	ldr	r2, [r7, #0]
   80272:	f04f 5e00 	mov.w	lr, #536870912	; 0x20000000
   80276:	f022 0201 	bic.w	r2, r2, #1
   8027a:	603a      	str	r2, [r7, #0]
   8027c:	693a      	ldr	r2, [r7, #16]
   8027e:	4a2e      	ldr	r2, [pc, #184]	; (80338 <can_init_controller+0xec>)
   80280:	f04f 7c80 	mov.w	ip, #16777216	; 0x1000000
   80284:	6451      	str	r1, [r2, #68]	; 0x44
   80286:	6f11      	ldr	r1, [r2, #112]	; 0x70
   80288:	f5a2 6200 	sub.w	r2, r2, #2048	; 0x800
   8028c:	f021 0103 	bic.w	r1, r1, #3
   80290:	f8c2 1870 	str.w	r1, [r2, #2160]	; 0x870
   80294:	2103      	movs	r1, #3
   80296:	f8c2 1804 	str.w	r1, [r2, #2052]	; 0x804
   8029a:	f8c2 1864 	str.w	r1, [r2, #2148]	; 0x864
   8029e:	4927      	ldr	r1, [pc, #156]	; (8033c <can_init_controller+0xf0>)
   802a0:	f04f 0801 	mov.w	r8, #1
   802a4:	f8c2 110c 	str.w	r1, [r2, #268]	; 0x10c
   802a8:	f8d2 1100 	ldr.w	r1, [r2, #256]	; 0x100
   802ac:	f441 6100 	orr.w	r1, r1, #2048	; 0x800
   802b0:	f8c2 1100 	str.w	r1, [r2, #256]	; 0x100
   802b4:	4601      	mov	r1, r0
   802b6:	4a22      	ldr	r2, [pc, #136]	; (80340 <can_init_controller+0xf4>)
   802b8:	617a      	str	r2, [r7, #20]
   802ba:	42a9      	cmp	r1, r5
   802bc:	dd16      	ble.n	802ec <can_init_controller+0xa0>
   802be:	2100      	movs	r1, #0
   802c0:	f04f 5500 	mov.w	r5, #536870912	; 0x20000000
   802c4:	f04f 7640 	mov.w	r6, #50331648	; 0x3000000
   802c8:	4a1a      	ldr	r2, [pc, #104]	; (80334 <can_init_controller+0xe8>)
   802ca:	4281      	cmp	r1, r0
   802cc:	db25      	blt.n	8031a <can_init_controller+0xce>
   802ce:	f44f 6100 	mov.w	r1, #2048	; 0x800
   802d2:	6053      	str	r3, [r2, #4]
   802d4:	4b1b      	ldr	r3, [pc, #108]	; (80344 <can_init_controller+0xf8>)
   802d6:	2000      	movs	r0, #0
   802d8:	6059      	str	r1, [r3, #4]
   802da:	2110      	movs	r1, #16
   802dc:	f883 132b 	strb.w	r1, [r3, #811]	; 0x32b
   802e0:	6813      	ldr	r3, [r2, #0]
   802e2:	f043 0301 	orr.w	r3, r3, #1
   802e6:	6013      	str	r3, [r2, #0]
   802e8:	e8bd 81f0 	ldmia.w	sp!, {r4, r5, r6, r7, r8, pc}
   802ec:	014a      	lsls	r2, r1, #5
   802ee:	f102 2440 	add.w	r4, r2, #1073758208	; 0x40004000
   802f2:	f504 2430 	add.w	r4, r4, #720896	; 0xb0000
   802f6:	443a      	add	r2, r7
   802f8:	f8c4 6204 	str.w	r6, [r4, #516]	; 0x204
   802fc:	f8c2 e208 	str.w	lr, [r2, #520]	; 0x208
   80300:	f8c4 c200 	str.w	ip, [r4, #512]	; 0x200
   80304:	f8d2 421c 	ldr.w	r4, [r2, #540]	; 0x21c
   80308:	f444 0400 	orr.w	r4, r4, #8388608	; 0x800000
   8030c:	f8c2 421c 	str.w	r4, [r2, #540]	; 0x21c
   80310:	fa08 f201 	lsl.w	r2, r8, r1
   80314:	4313      	orrs	r3, r2
   80316:	3101      	adds	r1, #1
   80318:	e7cf      	b.n	802ba <can_init_controller+0x6e>
   8031a:	eb02 1441 	add.w	r4, r2, r1, lsl #5
   8031e:	f8c4 5208 	str.w	r5, [r4, #520]	; 0x208
   80322:	f101 0410 	add.w	r4, r1, #16
   80326:	0164      	lsls	r4, r4, #5
   80328:	5116      	str	r6, [r2, r4]
   8032a:	3101      	adds	r1, #1
   8032c:	e7cd      	b.n	802ca <can_init_controller+0x7e>
   8032e:	2001      	movs	r0, #1
   80330:	e8bd 81f0 	ldmia.w	sp!, {r4, r5, r6, r7, r8, pc}
   80334:	400b4000 	.word	0x400b4000
   80338:	400e0e00 	.word	0x400e0e00
   8033c:	1000102b 	.word	0x1000102b
   80340:	00290165 	.word	0x00290165
   80344:	e000e100 	.word	0xe000e100

00080348 <can_init_def_tx_rx_mb>:
   80348:	2102      	movs	r1, #2
   8034a:	2001      	movs	r0, #1
   8034c:	4b00      	ldr	r3, [pc, #0]	; (80350 <can_init_def_tx_rx_mb+0x8>)
   8034e:	4718      	bx	r3
   80350:	0008024d 	.word	0x0008024d

00080354 <can_send>:
   80354:	0149      	lsls	r1, r1, #5
   80356:	f101 2240 	add.w	r2, r1, #1073758208	; 0x40004000
   8035a:	f502 2230 	add.w	r2, r2, #720896	; 0xb0000
   8035e:	f8d2 3210 	ldr.w	r3, [r2, #528]	; 0x210
   80362:	b510      	push	{r4, lr}
   80364:	021b      	lsls	r3, r3, #8
   80366:	d520      	bpl.n	803aa <can_send+0x56>
   80368:	8804      	ldrh	r4, [r0, #0]
   8036a:	4b11      	ldr	r3, [pc, #68]	; (803b0 <can_send+0x5c>)
   8036c:	f101 2140 	add.w	r1, r1, #1073758208	; 0x40004000
   80370:	ea03 4384 	and.w	r3, r3, r4, lsl #18
   80374:	f043 5300 	orr.w	r3, r3, #536870912	; 0x20000000
   80378:	f8c2 3208 	str.w	r3, [r2, #520]	; 0x208
   8037c:	7883      	ldrb	r3, [r0, #2]
   8037e:	f501 2130 	add.w	r1, r1, #720896	; 0xb0000
   80382:	2b07      	cmp	r3, #7
   80384:	bf84      	itt	hi
   80386:	2307      	movhi	r3, #7
   80388:	7083      	strbhi	r3, [r0, #2]
   8038a:	f8d0 3003 	ldr.w	r3, [r0, #3]
   8038e:	f8c1 3214 	str.w	r3, [r1, #532]	; 0x214
   80392:	f8d0 3007 	ldr.w	r3, [r0, #7]
   80396:	f8c1 3218 	str.w	r3, [r1, #536]	; 0x218
   8039a:	7883      	ldrb	r3, [r0, #2]
   8039c:	2000      	movs	r0, #0
   8039e:	041b      	lsls	r3, r3, #16
   803a0:	f443 0300 	orr.w	r3, r3, #8388608	; 0x800000
   803a4:	f8c1 321c 	str.w	r3, [r1, #540]	; 0x21c
   803a8:	bd10      	pop	{r4, pc}
   803aa:	2001      	movs	r0, #1
   803ac:	bd10      	pop	{r4, pc}
   803ae:	bf00      	nop
   803b0:	1ffc0000 	.word	0x1ffc0000

000803b4 <can_receive>:
   803b4:	b5f0      	push	{r4, r5, r6, r7, lr}
   803b6:	014f      	lsls	r7, r1, #5
   803b8:	f107 2340 	add.w	r3, r7, #1073758208	; 0x40004000
   803bc:	f503 2330 	add.w	r3, r3, #720896	; 0xb0000
   803c0:	f8d3 2210 	ldr.w	r2, [r3, #528]	; 0x210
   803c4:	0212      	lsls	r2, r2, #8
   803c6:	d52b      	bpl.n	80420 <can_receive+0x6c>
   803c8:	2400      	movs	r4, #0
   803ca:	f8d3 5214 	ldr.w	r5, [r3, #532]	; 0x214
   803ce:	f8d3 6218 	ldr.w	r6, [r3, #536]	; 0x218
   803d2:	f8d3 2208 	ldr.w	r2, [r3, #520]	; 0x208
   803d6:	3003      	adds	r0, #3
   803d8:	f3c2 428a 	ubfx	r2, r2, #18, #11
   803dc:	f820 2c03 	strh.w	r2, [r0, #-3]
   803e0:	f8d3 2210 	ldr.w	r2, [r3, #528]	; 0x210
   803e4:	f3c2 4203 	ubfx	r2, r2, #16, #4
   803e8:	f800 2c01 	strb.w	r2, [r0, #-1]
   803ec:	4294      	cmp	r4, r2
   803ee:	db0e      	blt.n	8040e <can_receive+0x5a>
   803f0:	f04f 7280 	mov.w	r2, #16777216	; 0x1000000
   803f4:	4b0b      	ldr	r3, [pc, #44]	; (80424 <can_receive+0x70>)
   803f6:	3110      	adds	r1, #16
   803f8:	0149      	lsls	r1, r1, #5
   803fa:	505a      	str	r2, [r3, r1]
   803fc:	443b      	add	r3, r7
   803fe:	f8d3 221c 	ldr.w	r2, [r3, #540]	; 0x21c
   80402:	2000      	movs	r0, #0
   80404:	f442 0200 	orr.w	r2, r2, #8388608	; 0x800000
   80408:	f8c3 221c 	str.w	r2, [r3, #540]	; 0x21c
   8040c:	bdf0      	pop	{r4, r5, r6, r7, pc}
   8040e:	2c03      	cmp	r4, #3
   80410:	bfd5      	itete	le
   80412:	7005      	strble	r5, [r0, #0]
   80414:	7006      	strbgt	r6, [r0, #0]
   80416:	0a2d      	lsrle	r5, r5, #8
   80418:	0a36      	lsrgt	r6, r6, #8
   8041a:	3401      	adds	r4, #1
   8041c:	3001      	adds	r0, #1
   8041e:	e7e5      	b.n	803ec <can_receive+0x38>
   80420:	2001      	movs	r0, #1
   80422:	bdf0      	pop	{r4, r5, r6, r7, pc}
   80424:	400b4000 	.word	0x400b4000

00080428 <CAN0_Handler>:
   80428:	b51f      	push	{r0, r1, r2, r3, r4, lr}
   8042a:	4b0f      	ldr	r3, [pc, #60]	; (80468 <CAN0_Handler+0x40>)
   8042c:	691c      	ldr	r4, [r3, #16]
   8042e:	f014 0f06 	tst.w	r4, #6
   80432:	d005      	beq.n	80440 <CAN0_Handler+0x18>
   80434:	07a1      	lsls	r1, r4, #30
   80436:	d50f      	bpl.n	80458 <CAN0_Handler+0x30>
   80438:	2101      	movs	r1, #1
   8043a:	a801      	add	r0, sp, #4
   8043c:	4b0b      	ldr	r3, [pc, #44]	; (8046c <CAN0_Handler+0x44>)
   8043e:	4798      	blx	r3
   80440:	07e3      	lsls	r3, r4, #31
   80442:	bf42      	ittt	mi
   80444:	2201      	movmi	r2, #1
   80446:	4b08      	ldrmi	r3, [pc, #32]	; (80468 <CAN0_Handler+0x40>)
   80448:	609a      	strmi	r2, [r3, #8]
   8044a:	f44f 6200 	mov.w	r2, #2048	; 0x800
   8044e:	4b08      	ldr	r3, [pc, #32]	; (80470 <CAN0_Handler+0x48>)
   80450:	f8c3 2184 	str.w	r2, [r3, #388]	; 0x184
   80454:	b004      	add	sp, #16
   80456:	bd10      	pop	{r4, pc}
   80458:	0762      	lsls	r2, r4, #29
   8045a:	d501      	bpl.n	80460 <CAN0_Handler+0x38>
   8045c:	2102      	movs	r1, #2
   8045e:	e7ec      	b.n	8043a <CAN0_Handler+0x12>
   80460:	4b04      	ldr	r3, [pc, #16]	; (80474 <CAN0_Handler+0x4c>)
   80462:	4805      	ldr	r0, [pc, #20]	; (80478 <CAN0_Handler+0x50>)
   80464:	4798      	blx	r3
   80466:	e7eb      	b.n	80440 <CAN0_Handler+0x18>
   80468:	400b4000 	.word	0x400b4000
   8046c:	000803b5 	.word	0x000803b5
   80470:	e000e100 	.word	0xe000e100
   80474:	000806ad 	.word	0x000806ad
   80478:	000809d0 	.word	0x000809d0

0008047c <prints.isra.1>:
   8047c:	e92d 43f8 	stmdb	sp!, {r3, r4, r5, r6, r7, r8, r9, lr}
   80480:	1e0c      	subs	r4, r1, #0
   80482:	4605      	mov	r5, r0
   80484:	dd2f      	ble.n	804e6 <prints.isra.1+0x6a>
   80486:	4603      	mov	r3, r0
   80488:	1b58      	subs	r0, r3, r5
   8048a:	f813 1b01 	ldrb.w	r1, [r3], #1
   8048e:	2900      	cmp	r1, #0
   80490:	d1fa      	bne.n	80488 <prints.isra.1+0xc>
   80492:	4284      	cmp	r4, r0
   80494:	bfcc      	ite	gt
   80496:	1a24      	subgt	r4, r4, r0
   80498:	460c      	movle	r4, r1
   8049a:	f012 0f02 	tst.w	r2, #2
   8049e:	bf0c      	ite	eq
   804a0:	2620      	moveq	r6, #32
   804a2:	2630      	movne	r6, #48	; 0x30
   804a4:	07d3      	lsls	r3, r2, #31
   804a6:	d424      	bmi.n	804f2 <prints.isra.1+0x76>
   804a8:	4627      	mov	r7, r4
   804aa:	f8df 9058 	ldr.w	r9, [pc, #88]	; 80504 <prints.isra.1+0x88>
   804ae:	fa5f f886 	uxtb.w	r8, r6
   804b2:	2f00      	cmp	r7, #0
   804b4:	dc19      	bgt.n	804ea <prints.isra.1+0x6e>
   804b6:	ea24 73e4 	bic.w	r3, r4, r4, asr #31
   804ba:	1ae4      	subs	r4, r4, r3
   804bc:	f8df 9044 	ldr.w	r9, [pc, #68]	; 80504 <prints.isra.1+0x88>
   804c0:	1b5f      	subs	r7, r3, r5
   804c2:	eb07 0805 	add.w	r8, r7, r5
   804c6:	f815 0b01 	ldrb.w	r0, [r5], #1
   804ca:	b9a0      	cbnz	r0, 804f6 <prints.isra.1+0x7a>
   804cc:	4625      	mov	r5, r4
   804ce:	4f0d      	ldr	r7, [pc, #52]	; (80504 <prints.isra.1+0x88>)
   804d0:	b2f6      	uxtb	r6, r6
   804d2:	2d00      	cmp	r5, #0
   804d4:	dc11      	bgt.n	804fa <prints.isra.1+0x7e>
   804d6:	2c00      	cmp	r4, #0
   804d8:	bfac      	ite	ge
   804da:	eb08 0004 	addge.w	r0, r8, r4
   804de:	f108 0000 	addlt.w	r0, r8, #0
   804e2:	e8bd 83f8 	ldmia.w	sp!, {r3, r4, r5, r6, r7, r8, r9, pc}
   804e6:	2620      	movs	r6, #32
   804e8:	e7dc      	b.n	804a4 <prints.isra.1+0x28>
   804ea:	4640      	mov	r0, r8
   804ec:	47c8      	blx	r9
   804ee:	3f01      	subs	r7, #1
   804f0:	e7df      	b.n	804b2 <prints.isra.1+0x36>
   804f2:	2300      	movs	r3, #0
   804f4:	e7e2      	b.n	804bc <prints.isra.1+0x40>
   804f6:	47c8      	blx	r9
   804f8:	e7e3      	b.n	804c2 <prints.isra.1+0x46>
   804fa:	4630      	mov	r0, r6
   804fc:	47b8      	blx	r7
   804fe:	3d01      	subs	r5, #1
   80500:	e7e7      	b.n	804d2 <prints.isra.1+0x56>
   80502:	bf00      	nop
   80504:	000806cd 	.word	0x000806cd

00080508 <printi.isra.2>:
   80508:	e92d 41ff 	stmdb	sp!, {r0, r1, r2, r3, r4, r5, r6, r7, r8, lr}
   8050c:	f8dd 8028 	ldr.w	r8, [sp, #40]	; 0x28
   80510:	4615      	mov	r5, r2
   80512:	461f      	mov	r7, r3
   80514:	4604      	mov	r4, r0
   80516:	b960      	cbnz	r0, 80532 <printi.isra.2+0x2a>
   80518:	2330      	movs	r3, #48	; 0x30
   8051a:	f88d 0005 	strb.w	r0, [sp, #5]
   8051e:	f88d 3004 	strb.w	r3, [sp, #4]
   80522:	4642      	mov	r2, r8
   80524:	4639      	mov	r1, r7
   80526:	a801      	add	r0, sp, #4
   80528:	4b1a      	ldr	r3, [pc, #104]	; (80594 <printi.isra.2+0x8c>)
   8052a:	4798      	blx	r3
   8052c:	b004      	add	sp, #16
   8052e:	e8bd 81f0 	ldmia.w	sp!, {r4, r5, r6, r7, r8, pc}
   80532:	b12a      	cbz	r2, 80540 <printi.isra.2+0x38>
   80534:	290a      	cmp	r1, #10
   80536:	d11a      	bne.n	8056e <printi.isra.2+0x66>
   80538:	2800      	cmp	r0, #0
   8053a:	da18      	bge.n	8056e <printi.isra.2+0x66>
   8053c:	2501      	movs	r5, #1
   8053e:	4244      	negs	r4, r0
   80540:	2300      	movs	r3, #0
   80542:	ae04      	add	r6, sp, #16
   80544:	f806 3d01 	strb.w	r3, [r6, #-1]!
   80548:	9b0b      	ldr	r3, [sp, #44]	; 0x2c
   8054a:	3b3a      	subs	r3, #58	; 0x3a
   8054c:	b98c      	cbnz	r4, 80572 <printi.isra.2+0x6a>
   8054e:	b13d      	cbz	r5, 80560 <printi.isra.2+0x58>
   80550:	b1df      	cbz	r7, 8058a <printi.isra.2+0x82>
   80552:	f018 0f02 	tst.w	r8, #2
   80556:	d018      	beq.n	8058a <printi.isra.2+0x82>
   80558:	202d      	movs	r0, #45	; 0x2d
   8055a:	4b0f      	ldr	r3, [pc, #60]	; (80598 <printi.isra.2+0x90>)
   8055c:	4798      	blx	r3
   8055e:	3f01      	subs	r7, #1
   80560:	4642      	mov	r2, r8
   80562:	4639      	mov	r1, r7
   80564:	4630      	mov	r0, r6
   80566:	4b0b      	ldr	r3, [pc, #44]	; (80594 <printi.isra.2+0x8c>)
   80568:	4798      	blx	r3
   8056a:	4428      	add	r0, r5
   8056c:	e7de      	b.n	8052c <printi.isra.2+0x24>
   8056e:	2500      	movs	r5, #0
   80570:	e7e6      	b.n	80540 <printi.isra.2+0x38>
   80572:	fbb4 f2f1 	udiv	r2, r4, r1
   80576:	fb01 4412 	mls	r4, r1, r2, r4
   8057a:	2c09      	cmp	r4, #9
   8057c:	bfc8      	it	gt
   8057e:	18e4      	addgt	r4, r4, r3
   80580:	3430      	adds	r4, #48	; 0x30
   80582:	f806 4d01 	strb.w	r4, [r6, #-1]!
   80586:	4614      	mov	r4, r2
   80588:	e7e0      	b.n	8054c <printi.isra.2+0x44>
   8058a:	232d      	movs	r3, #45	; 0x2d
   8058c:	3e01      	subs	r6, #1
   8058e:	7033      	strb	r3, [r6, #0]
   80590:	2500      	movs	r5, #0
   80592:	e7e5      	b.n	80560 <printi.isra.2+0x58>
   80594:	0008047d 	.word	0x0008047d
   80598:	000806cd 	.word	0x000806cd

0008059c <print>:
   8059c:	e92d 4ff0 	stmdb	sp!, {r4, r5, r6, r7, r8, r9, sl, fp, lr}
   805a0:	4680      	mov	r8, r0
   805a2:	460e      	mov	r6, r1
   805a4:	4614      	mov	r4, r2
   805a6:	2500      	movs	r5, #0
   805a8:	f8df a0f8 	ldr.w	sl, [pc, #248]	; 806a4 <print+0x108>
   805ac:	f8df 90f8 	ldr.w	r9, [pc, #248]	; 806a8 <print+0x10c>
   805b0:	4f3a      	ldr	r7, [pc, #232]	; (8069c <print+0x100>)
   805b2:	b085      	sub	sp, #20
   805b4:	7833      	ldrb	r3, [r6, #0]
   805b6:	b123      	cbz	r3, 805c2 <print+0x26>
   805b8:	2b25      	cmp	r3, #37	; 0x25
   805ba:	d165      	bne.n	80688 <print+0xec>
   805bc:	7873      	ldrb	r3, [r6, #1]
   805be:	1c70      	adds	r0, r6, #1
   805c0:	b933      	cbnz	r3, 805d0 <print+0x34>
   805c2:	f1b8 0f00 	cmp.w	r8, #0
   805c6:	d163      	bne.n	80690 <print+0xf4>
   805c8:	4628      	mov	r0, r5
   805ca:	b005      	add	sp, #20
   805cc:	e8bd 8ff0 	ldmia.w	sp!, {r4, r5, r6, r7, r8, r9, sl, fp, pc}
   805d0:	2b25      	cmp	r3, #37	; 0x25
   805d2:	d058      	beq.n	80686 <print+0xea>
   805d4:	2b2d      	cmp	r3, #45	; 0x2d
   805d6:	bf0a      	itet	eq
   805d8:	2201      	moveq	r2, #1
   805da:	2200      	movne	r2, #0
   805dc:	1cb0      	addeq	r0, r6, #2
   805de:	7803      	ldrb	r3, [r0, #0]
   805e0:	1c41      	adds	r1, r0, #1
   805e2:	2b30      	cmp	r3, #48	; 0x30
   805e4:	d018      	beq.n	80618 <print+0x7c>
   805e6:	2300      	movs	r3, #0
   805e8:	f04f 0b0a 	mov.w	fp, #10
   805ec:	7801      	ldrb	r1, [r0, #0]
   805ee:	4606      	mov	r6, r0
   805f0:	f1a1 0e30 	sub.w	lr, r1, #48	; 0x30
   805f4:	fa5f fc8e 	uxtb.w	ip, lr
   805f8:	f1bc 0f09 	cmp.w	ip, #9
   805fc:	f100 0001 	add.w	r0, r0, #1
   80600:	d90e      	bls.n	80620 <print+0x84>
   80602:	2973      	cmp	r1, #115	; 0x73
   80604:	d10f      	bne.n	80626 <print+0x8a>
   80606:	6820      	ldr	r0, [r4, #0]
   80608:	4619      	mov	r1, r3
   8060a:	4b25      	ldr	r3, [pc, #148]	; (806a0 <print+0x104>)
   8060c:	3404      	adds	r4, #4
   8060e:	2800      	cmp	r0, #0
   80610:	bf08      	it	eq
   80612:	4618      	moveq	r0, r3
   80614:	47c8      	blx	r9
   80616:	e011      	b.n	8063c <print+0xa0>
   80618:	f042 0202 	orr.w	r2, r2, #2
   8061c:	4608      	mov	r0, r1
   8061e:	e7de      	b.n	805de <print+0x42>
   80620:	fb0b e303 	mla	r3, fp, r3, lr
   80624:	e7e2      	b.n	805ec <print+0x50>
   80626:	2964      	cmp	r1, #100	; 0x64
   80628:	d10b      	bne.n	80642 <print+0xa6>
   8062a:	2161      	movs	r1, #97	; 0x61
   8062c:	9200      	str	r2, [sp, #0]
   8062e:	4620      	mov	r0, r4
   80630:	2201      	movs	r2, #1
   80632:	9101      	str	r1, [sp, #4]
   80634:	210a      	movs	r1, #10
   80636:	6800      	ldr	r0, [r0, #0]
   80638:	3404      	adds	r4, #4
   8063a:	47b8      	blx	r7
   8063c:	4405      	add	r5, r0
   8063e:	3601      	adds	r6, #1
   80640:	e7b8      	b.n	805b4 <print+0x18>
   80642:	2978      	cmp	r1, #120	; 0x78
   80644:	d106      	bne.n	80654 <print+0xb8>
   80646:	4620      	mov	r0, r4
   80648:	2161      	movs	r1, #97	; 0x61
   8064a:	9101      	str	r1, [sp, #4]
   8064c:	9200      	str	r2, [sp, #0]
   8064e:	2110      	movs	r1, #16
   80650:	2200      	movs	r2, #0
   80652:	e7f0      	b.n	80636 <print+0x9a>
   80654:	2958      	cmp	r1, #88	; 0x58
   80656:	d102      	bne.n	8065e <print+0xc2>
   80658:	4620      	mov	r0, r4
   8065a:	2141      	movs	r1, #65	; 0x41
   8065c:	e7f5      	b.n	8064a <print+0xae>
   8065e:	2975      	cmp	r1, #117	; 0x75
   80660:	d105      	bne.n	8066e <print+0xd2>
   80662:	2161      	movs	r1, #97	; 0x61
   80664:	9200      	str	r2, [sp, #0]
   80666:	4620      	mov	r0, r4
   80668:	9101      	str	r1, [sp, #4]
   8066a:	2200      	movs	r2, #0
   8066c:	e7e2      	b.n	80634 <print+0x98>
   8066e:	2963      	cmp	r1, #99	; 0x63
   80670:	d1e5      	bne.n	8063e <print+0xa2>
   80672:	6821      	ldr	r1, [r4, #0]
   80674:	a803      	add	r0, sp, #12
   80676:	f88d 100c 	strb.w	r1, [sp, #12]
   8067a:	2100      	movs	r1, #0
   8067c:	3404      	adds	r4, #4
   8067e:	f88d 100d 	strb.w	r1, [sp, #13]
   80682:	4619      	mov	r1, r3
   80684:	e7c6      	b.n	80614 <print+0x78>
   80686:	4606      	mov	r6, r0
   80688:	7830      	ldrb	r0, [r6, #0]
   8068a:	47d0      	blx	sl
   8068c:	3501      	adds	r5, #1
   8068e:	e7d6      	b.n	8063e <print+0xa2>
   80690:	2200      	movs	r2, #0
   80692:	f8d8 3000 	ldr.w	r3, [r8]
   80696:	701a      	strb	r2, [r3, #0]
   80698:	e796      	b.n	805c8 <print+0x2c>
   8069a:	bf00      	nop
   8069c:	00080509 	.word	0x00080509
   806a0:	000809fb 	.word	0x000809fb
   806a4:	000806cd 	.word	0x000806cd
   806a8:	0008047d 	.word	0x0008047d

000806ac <printf>:
   806ac:	b40f      	push	{r0, r1, r2, r3}
   806ae:	b507      	push	{r0, r1, r2, lr}
   806b0:	aa04      	add	r2, sp, #16
   806b2:	f852 1b04 	ldr.w	r1, [r2], #4
   806b6:	4b04      	ldr	r3, [pc, #16]	; (806c8 <printf+0x1c>)
   806b8:	9201      	str	r2, [sp, #4]
   806ba:	2000      	movs	r0, #0
   806bc:	4798      	blx	r3
   806be:	b003      	add	sp, #12
   806c0:	f85d eb04 	ldr.w	lr, [sp], #4
   806c4:	b004      	add	sp, #16
   806c6:	4770      	bx	lr
   806c8:	0008059d 	.word	0x0008059d

000806cc <uart_putchar>:
   806cc:	4b05      	ldr	r3, [pc, #20]	; (806e4 <uart_putchar+0x18>)
   806ce:	695a      	ldr	r2, [r3, #20]
   806d0:	0791      	lsls	r1, r2, #30
   806d2:	d505      	bpl.n	806e0 <uart_putchar+0x14>
   806d4:	61d8      	str	r0, [r3, #28]
   806d6:	695a      	ldr	r2, [r3, #20]
   806d8:	0592      	lsls	r2, r2, #22
   806da:	d5fc      	bpl.n	806d6 <uart_putchar+0xa>
   806dc:	2000      	movs	r0, #0
   806de:	4770      	bx	lr
   806e0:	2001      	movs	r0, #1
   806e2:	4770      	bx	lr
   806e4:	400e0800 	.word	0x400e0800

000806e8 <UART_Handler>:
   806e8:	b538      	push	{r3, r4, r5, lr}
   806ea:	4d0f      	ldr	r5, [pc, #60]	; (80728 <UART_Handler+0x40>)
   806ec:	696b      	ldr	r3, [r5, #20]
   806ee:	f013 0fe0 	tst.w	r3, #224	; 0xe0
   806f2:	bf1c      	itt	ne
   806f4:	f44f 72a8 	movne.w	r2, #336	; 0x150
   806f8:	602a      	strne	r2, [r5, #0]
   806fa:	07db      	lsls	r3, r3, #31
   806fc:	d513      	bpl.n	80726 <UART_Handler+0x3e>
   806fe:	4c0b      	ldr	r4, [pc, #44]	; (8072c <UART_Handler+0x44>)
   80700:	7862      	ldrb	r2, [r4, #1]
   80702:	7821      	ldrb	r1, [r4, #0]
   80704:	1c53      	adds	r3, r2, #1
   80706:	f003 033f 	and.w	r3, r3, #63	; 0x3f
   8070a:	428b      	cmp	r3, r1
   8070c:	d107      	bne.n	8071e <UART_Handler+0x36>
   8070e:	4b08      	ldr	r3, [pc, #32]	; (80730 <UART_Handler+0x48>)
   80710:	4808      	ldr	r0, [pc, #32]	; (80734 <UART_Handler+0x4c>)
   80712:	4798      	blx	r3
   80714:	7862      	ldrb	r2, [r4, #1]
   80716:	69ab      	ldr	r3, [r5, #24]
   80718:	4414      	add	r4, r2
   8071a:	70a3      	strb	r3, [r4, #2]
   8071c:	bd38      	pop	{r3, r4, r5, pc}
   8071e:	69a9      	ldr	r1, [r5, #24]
   80720:	4422      	add	r2, r4
   80722:	7091      	strb	r1, [r2, #2]
   80724:	7063      	strb	r3, [r4, #1]
   80726:	bd38      	pop	{r3, r4, r5, pc}
   80728:	400e0800 	.word	0x400e0800
   8072c:	20000460 	.word	0x20000460
   80730:	000806ad 	.word	0x000806ad
   80734:	00080a02 	.word	0x00080a02

00080738 <main>:
   80738:	b5f0      	push	{r4, r5, r6, r7, lr}
   8073a:	4b13      	ldr	r3, [pc, #76]	; (80788 <main+0x50>)
   8073c:	b085      	sub	sp, #20
   8073e:	4798      	blx	r3
   80740:	f44f 4200 	mov.w	r2, #32768	; 0x8000
   80744:	2400      	movs	r4, #0
   80746:	4b11      	ldr	r3, [pc, #68]	; (8078c <main+0x54>)
   80748:	f44f 5116 	mov.w	r1, #9600	; 0x2580
   8074c:	605a      	str	r2, [r3, #4]
   8074e:	4810      	ldr	r0, [pc, #64]	; (80790 <main+0x58>)
   80750:	4b10      	ldr	r3, [pc, #64]	; (80794 <main+0x5c>)
   80752:	4798      	blx	r3
   80754:	4b10      	ldr	r3, [pc, #64]	; (80798 <main+0x60>)
   80756:	4798      	blx	r3
   80758:	4a10      	ldr	r2, [pc, #64]	; (8079c <main+0x64>)
   8075a:	ab01      	add	r3, sp, #4
   8075c:	6810      	ldr	r0, [r2, #0]
   8075e:	6851      	ldr	r1, [r2, #4]
   80760:	4f0f      	ldr	r7, [pc, #60]	; (807a0 <main+0x68>)
   80762:	c303      	stmia	r3!, {r0, r1}
   80764:	6890      	ldr	r0, [r2, #8]
   80766:	4e0f      	ldr	r6, [pc, #60]	; (807a4 <main+0x6c>)
   80768:	4d0f      	ldr	r5, [pc, #60]	; (807a8 <main+0x70>)
   8076a:	6018      	str	r0, [r3, #0]
   8076c:	3401      	adds	r4, #1
   8076e:	b2e4      	uxtb	r4, r4
   80770:	2100      	movs	r1, #0
   80772:	a801      	add	r0, sp, #4
   80774:	f8ad 4004 	strh.w	r4, [sp, #4]
   80778:	47b8      	blx	r7
   8077a:	2800      	cmp	r0, #0
   8077c:	d1f6      	bne.n	8076c <main+0x34>
   8077e:	4621      	mov	r1, r4
   80780:	4630      	mov	r0, r6
   80782:	47a8      	blx	r5
   80784:	e7f2      	b.n	8076c <main+0x34>
   80786:	bf00      	nop
   80788:	000801cd 	.word	0x000801cd
   8078c:	400e1a50 	.word	0x400e1a50
   80790:	0501bd00 	.word	0x0501bd00
   80794:	00080801 	.word	0x00080801
   80798:	00080349 	.word	0x00080349
   8079c:	00080a20 	.word	0x00080a20
   807a0:	00080355 	.word	0x00080355
   807a4:	00080a2c 	.word	0x00080a2c
   807a8:	000806ad 	.word	0x000806ad

000807ac <time_init>:
   807ac:	2100      	movs	r1, #0
   807ae:	4a09      	ldr	r2, [pc, #36]	; (807d4 <time_init+0x28>)
   807b0:	4809      	ldr	r0, [pc, #36]	; (807d8 <time_init+0x2c>)
   807b2:	68d3      	ldr	r3, [r2, #12]
   807b4:	6041      	str	r1, [r0, #4]
   807b6:	00db      	lsls	r3, r3, #3
   807b8:	6003      	str	r3, [r0, #0]
   807ba:	f023 437f 	bic.w	r3, r3, #4278190080	; 0xff000000
   807be:	3b01      	subs	r3, #1
   807c0:	6053      	str	r3, [r2, #4]
   807c2:	6091      	str	r1, [r2, #8]
   807c4:	2120      	movs	r1, #32
   807c6:	4b05      	ldr	r3, [pc, #20]	; (807dc <time_init+0x30>)
   807c8:	f883 1023 	strb.w	r1, [r3, #35]	; 0x23
   807cc:	2307      	movs	r3, #7
   807ce:	6013      	str	r3, [r2, #0]
   807d0:	4770      	bx	lr
   807d2:	bf00      	nop
   807d4:	e000e010 	.word	0xe000e010
   807d8:	200004a8 	.word	0x200004a8
   807dc:	e000ed00 	.word	0xe000ed00

000807e0 <SysTick_Handler>:
   807e0:	b530      	push	{r4, r5, lr}
   807e2:	4905      	ldr	r1, [pc, #20]	; (807f8 <SysTick_Handler+0x18>)
   807e4:	4805      	ldr	r0, [pc, #20]	; (807fc <SysTick_Handler+0x1c>)
   807e6:	e9d1 2300 	ldrd	r2, r3, [r1]
   807ea:	e9d0 4500 	ldrd	r4, r5, [r0]
   807ee:	1912      	adds	r2, r2, r4
   807f0:	416b      	adcs	r3, r5
   807f2:	e9c1 2300 	strd	r2, r3, [r1]
   807f6:	bd30      	pop	{r4, r5, pc}
   807f8:	20000458 	.word	0x20000458
   807fc:	200004a8 	.word	0x200004a8

00080800 <uart_init>:
   80800:	4a14      	ldr	r2, [pc, #80]	; (80854 <uart_init+0x54>)
   80802:	0900      	lsrs	r0, r0, #4
   80804:	6913      	ldr	r3, [r2, #16]
   80806:	fbb0 f1f1 	udiv	r1, r0, r1
   8080a:	f443 7380 	orr.w	r3, r3, #256	; 0x100
   8080e:	6113      	str	r3, [r2, #16]
   80810:	4b11      	ldr	r3, [pc, #68]	; (80858 <uart_init+0x58>)
   80812:	685a      	ldr	r2, [r3, #4]
   80814:	f5a3 63c0 	sub.w	r3, r3, #1536	; 0x600
   80818:	f442 7240 	orr.w	r2, r2, #768	; 0x300
   8081c:	f8c3 2604 	str.w	r2, [r3, #1540]	; 0x604
   80820:	f8d3 2670 	ldr.w	r2, [r3, #1648]	; 0x670
   80824:	f422 7240 	bic.w	r2, r2, #768	; 0x300
   80828:	f8c3 2670 	str.w	r2, [r3, #1648]	; 0x670
   8082c:	681a      	ldr	r2, [r3, #0]
   8082e:	f042 0250 	orr.w	r2, r2, #80	; 0x50
   80832:	601a      	str	r2, [r3, #0]
   80834:	685a      	ldr	r2, [r3, #4]
   80836:	f442 6200 	orr.w	r2, r2, #2048	; 0x800
   8083a:	605a      	str	r2, [r3, #4]
   8083c:	f04f 32ff 	mov.w	r2, #4294967295
   80840:	6219      	str	r1, [r3, #32]
   80842:	60da      	str	r2, [r3, #12]
   80844:	22e1      	movs	r2, #225	; 0xe1
   80846:	609a      	str	r2, [r3, #8]
   80848:	f44f 7280 	mov.w	r2, #256	; 0x100
   8084c:	4b03      	ldr	r3, [pc, #12]	; (8085c <uart_init+0x5c>)
   8084e:	601a      	str	r2, [r3, #0]
   80850:	4770      	bx	lr
   80852:	bf00      	nop
   80854:	400e0600 	.word	0x400e0600
   80858:	400e0e00 	.word	0x400e0e00
   8085c:	e000e100 	.word	0xe000e100

00080860 <__libc_init_array>:
   80860:	b570      	push	{r4, r5, r6, lr}
   80862:	4e0f      	ldr	r6, [pc, #60]	; (808a0 <__libc_init_array+0x40>)
   80864:	4d0f      	ldr	r5, [pc, #60]	; (808a4 <__libc_init_array+0x44>)
   80866:	1b76      	subs	r6, r6, r5
   80868:	10b6      	asrs	r6, r6, #2
   8086a:	bf18      	it	ne
   8086c:	2400      	movne	r4, #0
   8086e:	d005      	beq.n	8087c <__libc_init_array+0x1c>
   80870:	3401      	adds	r4, #1
   80872:	f855 3b04 	ldr.w	r3, [r5], #4
   80876:	4798      	blx	r3
   80878:	42a6      	cmp	r6, r4
   8087a:	d1f9      	bne.n	80870 <__libc_init_array+0x10>
   8087c:	4e0a      	ldr	r6, [pc, #40]	; (808a8 <__libc_init_array+0x48>)
   8087e:	4d0b      	ldr	r5, [pc, #44]	; (808ac <__libc_init_array+0x4c>)
   80880:	f000 f8e4 	bl	80a4c <_init>
   80884:	1b76      	subs	r6, r6, r5
   80886:	10b6      	asrs	r6, r6, #2
   80888:	bf18      	it	ne
   8088a:	2400      	movne	r4, #0
   8088c:	d006      	beq.n	8089c <__libc_init_array+0x3c>
   8088e:	3401      	adds	r4, #1
   80890:	f855 3b04 	ldr.w	r3, [r5], #4
   80894:	4798      	blx	r3
   80896:	42a6      	cmp	r6, r4
   80898:	d1f9      	bne.n	8088e <__libc_init_array+0x2e>
   8089a:	bd70      	pop	{r4, r5, r6, pc}
   8089c:	bd70      	pop	{r4, r5, r6, pc}
   8089e:	bf00      	nop
   808a0:	00080a58 	.word	0x00080a58
   808a4:	00080a58 	.word	0x00080a58
   808a8:	00080a64 	.word	0x00080a64
   808ac:	00080a58 	.word	0x00080a58

000808b0 <register_fini>:
   808b0:	4b02      	ldr	r3, [pc, #8]	; (808bc <register_fini+0xc>)
   808b2:	b113      	cbz	r3, 808ba <register_fini+0xa>
   808b4:	4802      	ldr	r0, [pc, #8]	; (808c0 <register_fini+0x10>)
   808b6:	f000 b805 	b.w	808c4 <atexit>
   808ba:	4770      	bx	lr
   808bc:	00000000 	.word	0x00000000
   808c0:	000808d1 	.word	0x000808d1

000808c4 <atexit>:
   808c4:	2300      	movs	r3, #0
   808c6:	4601      	mov	r1, r0
   808c8:	461a      	mov	r2, r3
   808ca:	4618      	mov	r0, r3
   808cc:	f000 b81e 	b.w	8090c <__register_exitproc>

000808d0 <__libc_fini_array>:
   808d0:	b538      	push	{r3, r4, r5, lr}
   808d2:	4c0a      	ldr	r4, [pc, #40]	; (808fc <__libc_fini_array+0x2c>)
   808d4:	4d0a      	ldr	r5, [pc, #40]	; (80900 <__libc_fini_array+0x30>)
   808d6:	1b64      	subs	r4, r4, r5
   808d8:	10a4      	asrs	r4, r4, #2
   808da:	d00a      	beq.n	808f2 <__libc_fini_array+0x22>
   808dc:	f104 4380 	add.w	r3, r4, #1073741824	; 0x40000000
   808e0:	3b01      	subs	r3, #1
   808e2:	eb05 0583 	add.w	r5, r5, r3, lsl #2
   808e6:	3c01      	subs	r4, #1
   808e8:	f855 3904 	ldr.w	r3, [r5], #-4
   808ec:	4798      	blx	r3
   808ee:	2c00      	cmp	r4, #0
   808f0:	d1f9      	bne.n	808e6 <__libc_fini_array+0x16>
   808f2:	e8bd 4038 	ldmia.w	sp!, {r3, r4, r5, lr}
   808f6:	f000 b8b5 	b.w	80a64 <_fini>
   808fa:	bf00      	nop
   808fc:	00080a74 	.word	0x00080a74
   80900:	00080a70 	.word	0x00080a70

00080904 <__retarget_lock_acquire_recursive>:
   80904:	4770      	bx	lr
   80906:	bf00      	nop

00080908 <__retarget_lock_release_recursive>:
   80908:	4770      	bx	lr
   8090a:	bf00      	nop

0008090c <__register_exitproc>:
   8090c:	e92d 43f8 	stmdb	sp!, {r3, r4, r5, r6, r7, r8, r9, lr}
   80910:	4d2c      	ldr	r5, [pc, #176]	; (809c4 <__register_exitproc+0xb8>)
   80912:	4606      	mov	r6, r0
   80914:	6828      	ldr	r0, [r5, #0]
   80916:	4698      	mov	r8, r3
   80918:	460f      	mov	r7, r1
   8091a:	4691      	mov	r9, r2
   8091c:	f7ff fff2 	bl	80904 <__retarget_lock_acquire_recursive>
   80920:	4b29      	ldr	r3, [pc, #164]	; (809c8 <__register_exitproc+0xbc>)
   80922:	681c      	ldr	r4, [r3, #0]
   80924:	f8d4 3148 	ldr.w	r3, [r4, #328]	; 0x148
   80928:	2b00      	cmp	r3, #0
   8092a:	d03e      	beq.n	809aa <__register_exitproc+0x9e>
   8092c:	685a      	ldr	r2, [r3, #4]
   8092e:	2a1f      	cmp	r2, #31
   80930:	dc1c      	bgt.n	8096c <__register_exitproc+0x60>
   80932:	f102 0e01 	add.w	lr, r2, #1
   80936:	b176      	cbz	r6, 80956 <__register_exitproc+0x4a>
   80938:	2101      	movs	r1, #1
   8093a:	eb03 0482 	add.w	r4, r3, r2, lsl #2
   8093e:	f8c4 9088 	str.w	r9, [r4, #136]	; 0x88
   80942:	f8d3 0188 	ldr.w	r0, [r3, #392]	; 0x188
   80946:	4091      	lsls	r1, r2
   80948:	4308      	orrs	r0, r1
   8094a:	2e02      	cmp	r6, #2
   8094c:	f8c3 0188 	str.w	r0, [r3, #392]	; 0x188
   80950:	f8c4 8108 	str.w	r8, [r4, #264]	; 0x108
   80954:	d023      	beq.n	8099e <__register_exitproc+0x92>
   80956:	3202      	adds	r2, #2
   80958:	f8c3 e004 	str.w	lr, [r3, #4]
   8095c:	6828      	ldr	r0, [r5, #0]
   8095e:	f843 7022 	str.w	r7, [r3, r2, lsl #2]
   80962:	f7ff ffd1 	bl	80908 <__retarget_lock_release_recursive>
   80966:	2000      	movs	r0, #0
   80968:	e8bd 83f8 	ldmia.w	sp!, {r3, r4, r5, r6, r7, r8, r9, pc}
   8096c:	4b17      	ldr	r3, [pc, #92]	; (809cc <__register_exitproc+0xc0>)
   8096e:	b30b      	cbz	r3, 809b4 <__register_exitproc+0xa8>
   80970:	f44f 70c8 	mov.w	r0, #400	; 0x190
   80974:	f3af 8000 	nop.w
   80978:	4603      	mov	r3, r0
   8097a:	b1d8      	cbz	r0, 809b4 <__register_exitproc+0xa8>
   8097c:	2000      	movs	r0, #0
   8097e:	f8d4 1148 	ldr.w	r1, [r4, #328]	; 0x148
   80982:	f04f 0e01 	mov.w	lr, #1
   80986:	6058      	str	r0, [r3, #4]
   80988:	6019      	str	r1, [r3, #0]
   8098a:	4602      	mov	r2, r0
   8098c:	f8c4 3148 	str.w	r3, [r4, #328]	; 0x148
   80990:	f8c3 0188 	str.w	r0, [r3, #392]	; 0x188
   80994:	f8c3 018c 	str.w	r0, [r3, #396]	; 0x18c
   80998:	2e00      	cmp	r6, #0
   8099a:	d0dc      	beq.n	80956 <__register_exitproc+0x4a>
   8099c:	e7cc      	b.n	80938 <__register_exitproc+0x2c>
   8099e:	f8d3 018c 	ldr.w	r0, [r3, #396]	; 0x18c
   809a2:	4301      	orrs	r1, r0
   809a4:	f8c3 118c 	str.w	r1, [r3, #396]	; 0x18c
   809a8:	e7d5      	b.n	80956 <__register_exitproc+0x4a>
   809aa:	f504 73a6 	add.w	r3, r4, #332	; 0x14c
   809ae:	f8c4 3148 	str.w	r3, [r4, #328]	; 0x148
   809b2:	e7bb      	b.n	8092c <__register_exitproc+0x20>
   809b4:	6828      	ldr	r0, [r5, #0]
   809b6:	f7ff ffa7 	bl	80908 <__retarget_lock_release_recursive>
   809ba:	f04f 30ff 	mov.w	r0, #4294967295
   809be:	e8bd 83f8 	ldmia.w	sp!, {r3, r4, r5, r6, r7, r8, r9, pc}
   809c2:	bf00      	nop
   809c4:	20000430 	.word	0x20000430
   809c8:	00080a48 	.word	0x00080a48
   809cc:	00000000 	.word	0x00000000
   809d0:	304e4143 	.word	0x304e4143
   809d4:	73656d20 	.word	0x73656d20
   809d8:	65676173 	.word	0x65676173
   809dc:	72726120 	.word	0x72726120
   809e0:	64657669 	.word	0x64657669
   809e4:	206e6920 	.word	0x206e6920
   809e8:	2d6e6f6e 	.word	0x2d6e6f6e
   809ec:	64657375 	.word	0x64657375
   809f0:	69616d20 	.word	0x69616d20
   809f4:	786f626c 	.word	0x786f626c
   809f8:	0d0a      	.short	0x0d0a
   809fa:	00          	.byte	0x00
   809fb:	28          	.byte	0x28
   809fc:	6c6c756e 	.word	0x6c6c756e
   80a00:	0029      	.short	0x0029
   80a02:	5245      	.short	0x5245
   80a04:	55203a52 	.word	0x55203a52
   80a08:	20545241 	.word	0x20545241
   80a0c:	62205852 	.word	0x62205852
   80a10:	65666675 	.word	0x65666675
   80a14:	73692072 	.word	0x73692072
   80a18:	6c756620 	.word	0x6c756620
   80a1c:	000d0a6c 	.word	0x000d0a6c
   80a20:	54080045 	.word	0x54080045
   80a24:	44727572 	.word	0x44727572
   80a28:	00467465 	.word	0x00467465
   80a2c:	646e6553 	.word	0x646e6553
   80a30:	6c656d20 	.word	0x6c656d20
   80a34:	676e6964 	.word	0x676e6964
   80a38:	20726e20 	.word	0x20726e20
   80a3c:	6e206425 	.word	0x6e206425
   80a40:	0a0a216f 	.word	0x0a0a216f
   80a44:	0000000d 	.word	0x0000000d

00080a48 <_global_impure_ptr>:
   80a48:	20000008                                ... 

00080a4c <_init>:
   80a4c:	b5f8      	push	{r3, r4, r5, r6, r7, lr}
   80a4e:	bf00      	nop
   80a50:	bcf8      	pop	{r3, r4, r5, r6, r7}
   80a52:	bc08      	pop	{r3}
   80a54:	469e      	mov	lr, r3
   80a56:	4770      	bx	lr

00080a58 <__init_array_start>:
   80a58:	000808b1 	.word	0x000808b1

00080a5c <__frame_dummy_init_array_entry>:
   80a5c:	00080119 000807ad                       ........

00080a64 <_fini>:
   80a64:	b5f8      	push	{r3, r4, r5, r6, r7, lr}
   80a66:	bf00      	nop
   80a68:	bcf8      	pop	{r3, r4, r5, r6, r7}
   80a6a:	bc08      	pop	{r3}
   80a6c:	469e      	mov	lr, r3
   80a6e:	4770      	bx	lr

00080a70 <__fini_array_start>:
   80a70:	000800f5 	.word	0x000800f5
