
ATmega162.elf:     file format elf32-avr

Sections:
Idx Name          Size      VMA       LMA       File off  Algn
  0 .data         0000028a  00800100  00003146  000031da  2**0
                  CONTENTS, ALLOC, LOAD, DATA
  1 .text         00003146  00000000  00000000  00000094  2**1
                  CONTENTS, ALLOC, LOAD, READONLY, CODE
  2 .bss          0000004c  0080038a  0080038a  00003464  2**0
                  ALLOC
  3 .comment      0000005c  00000000  00000000  00003464  2**0
                  CONTENTS, READONLY
  4 .note.gnu.avr.deviceinfo 0000003c  00000000  00000000  000034c0  2**2
                  CONTENTS, READONLY
  5 .debug_info   000005d0  00000000  00000000  000034fc  2**0
                  CONTENTS, READONLY, DEBUGGING
  6 .debug_abbrev 00000580  00000000  00000000  00003acc  2**0
                  CONTENTS, READONLY, DEBUGGING
  7 .debug_line   0000013f  00000000  00000000  0000404c  2**0
                  CONTENTS, READONLY, DEBUGGING
  8 .debug_str    000001f6  00000000  00000000  0000418b  2**0
                  CONTENTS, READONLY, DEBUGGING

Disassembly of section .text:

00000000 <__vectors>:
       0:	0c 94 46 03 	jmp	0x68c	; 0x68c <__ctors_end>
       4:	0c 94 ef 07 	jmp	0xfde	; 0xfde <__vector_1>
       8:	0c 94 63 03 	jmp	0x6c6	; 0x6c6 <__bad_interrupt>
       c:	0c 94 63 03 	jmp	0x6c6	; 0x6c6 <__bad_interrupt>
      10:	0c 94 63 03 	jmp	0x6c6	; 0x6c6 <__bad_interrupt>
      14:	0c 94 63 03 	jmp	0x6c6	; 0x6c6 <__bad_interrupt>
      18:	0c 94 63 03 	jmp	0x6c6	; 0x6c6 <__bad_interrupt>
      1c:	0c 94 63 03 	jmp	0x6c6	; 0x6c6 <__bad_interrupt>
      20:	0c 94 63 03 	jmp	0x6c6	; 0x6c6 <__bad_interrupt>
      24:	0c 94 63 03 	jmp	0x6c6	; 0x6c6 <__bad_interrupt>
      28:	0c 94 63 03 	jmp	0x6c6	; 0x6c6 <__bad_interrupt>
      2c:	0c 94 63 03 	jmp	0x6c6	; 0x6c6 <__bad_interrupt>
      30:	0c 94 63 03 	jmp	0x6c6	; 0x6c6 <__bad_interrupt>
      34:	0c 94 63 03 	jmp	0x6c6	; 0x6c6 <__bad_interrupt>
      38:	0c 94 63 03 	jmp	0x6c6	; 0x6c6 <__bad_interrupt>
      3c:	0c 94 39 08 	jmp	0x1072	; 0x1072 <__vector_15>
      40:	0c 94 63 03 	jmp	0x6c6	; 0x6c6 <__bad_interrupt>
      44:	0c 94 63 03 	jmp	0x6c6	; 0x6c6 <__bad_interrupt>
      48:	0c 94 63 03 	jmp	0x6c6	; 0x6c6 <__bad_interrupt>
      4c:	0c 94 06 05 	jmp	0xa0c	; 0xa0c <__vector_19>
      50:	0c 94 63 03 	jmp	0x6c6	; 0x6c6 <__bad_interrupt>
      54:	0c 94 63 03 	jmp	0x6c6	; 0x6c6 <__bad_interrupt>
      58:	0c 94 63 03 	jmp	0x6c6	; 0x6c6 <__bad_interrupt>
      5c:	0c 94 63 03 	jmp	0x6c6	; 0x6c6 <__bad_interrupt>
      60:	0c 94 63 03 	jmp	0x6c6	; 0x6c6 <__bad_interrupt>
      64:	0c 94 63 03 	jmp	0x6c6	; 0x6c6 <__bad_interrupt>
      68:	0c 94 63 03 	jmp	0x6c6	; 0x6c6 <__bad_interrupt>
      6c:	0c 94 63 03 	jmp	0x6c6	; 0x6c6 <__bad_interrupt>
      70:	b6 0a       	sbc	r11, r22
      72:	88 0a       	sbc	r8, r24
      74:	8b 0a       	sbc	r8, r27
      76:	8e 0a       	sbc	r8, r30
      78:	91 0a       	sbc	r9, r17
      7a:	94 0a       	sbc	r9, r20
      7c:	97 0a       	sbc	r9, r23
      7e:	9a 0a       	sbc	r9, r26
      80:	9d 0a       	sbc	r9, r29
      82:	a0 0a       	sbc	r10, r16

00000084 <__trampolines_end>:
      84:	53 63       	ori	r21, 0x33	; 51
      86:	6f 72       	andi	r22, 0x2F	; 47
      88:	65 3a       	cpi	r22, 0xA5	; 165
      8a:	20 20       	and	r2, r0
      8c:	20 20       	and	r2, r0
      8e:	20 20       	and	r2, r0
      90:	20 20       	and	r2, r0
      92:	20 20       	and	r2, r0
      94:	4c 69       	ori	r20, 0x9C	; 156
      96:	76 65       	ori	r23, 0x56	; 86
      98:	73 3a       	cpi	r23, 0xA3	; 163
      9a:	20 20       	and	r2, r0
      9c:	20 20       	and	r2, r0
      9e:	20 20       	and	r2, r0
      a0:	20 20       	and	r2, r0
      a2:	20 20       	and	r2, r0
      a4:	20 20       	and	r2, r0
      a6:	20 20       	and	r2, r0
      a8:	20 20       	and	r2, r0
      aa:	20 20       	and	r2, r0
      ac:	20 20       	and	r2, r0
      ae:	20 20       	and	r2, r0
      b0:	20 20       	and	r2, r0
      b2:	20 20       	and	r2, r0
      b4:	20 20       	and	r2, r0
      b6:	20 20       	and	r2, r0
      b8:	20 20       	and	r2, r0
      ba:	20 20       	and	r2, r0
      bc:	20 20       	and	r2, r0
      be:	20 20       	and	r2, r0
      c0:	20 20       	and	r2, r0
      c2:	20 20       	and	r2, r0
      c4:	20 20       	and	r2, r0
      c6:	20 20       	and	r2, r0
      c8:	20 20       	and	r2, r0
      ca:	20 20       	and	r2, r0
      cc:	20 20       	and	r2, r0
      ce:	20 20       	and	r2, r0
      d0:	20 20       	and	r2, r0
      d2:	20 20       	and	r2, r0
      d4:	20 20       	and	r2, r0
      d6:	20 20       	and	r2, r0
      d8:	20 20       	and	r2, r0
      da:	20 20       	and	r2, r0
      dc:	20 20       	and	r2, r0
      de:	20 20       	and	r2, r0
      e0:	20 20       	and	r2, r0
      e2:	20 20       	and	r2, r0
      e4:	20 20       	and	r2, r0
      e6:	20 20       	and	r2, r0
      e8:	20 20       	and	r2, r0
      ea:	20 20       	and	r2, r0
      ec:	20 20       	and	r2, r0
      ee:	20 20       	and	r2, r0
      f0:	20 20       	and	r2, r0
      f2:	20 20       	and	r2, r0
      f4:	20 20       	and	r2, r0
      f6:	20 20       	and	r2, r0
      f8:	20 20       	and	r2, r0
      fa:	20 20       	and	r2, r0
      fc:	20 20       	and	r2, r0
      fe:	20 20       	and	r2, r0
     100:	20 20       	and	r2, r0
     102:	20 20       	and	r2, r0

00000104 <settingsMenuItems>:
     104:	20 52 65 73 65 74 20 73 65 74 74 69 6e 67 73 20      Reset settings 
     114:	20 4c 69 76 65 73 20 20 20 20 20 20 20 20 20 20      Lives          
     124:	20 53 65 6e 73 69 74 69 76 69 74 79 20 20 20 20      Sensitivity    
     134:	20 44 69 66 66 69 63 75 6c 74 79 20 20 20 20 20      Difficulty     
     144:	20 42 61 63 6b 20 20 20 20 20 20 20 20 20 20 20      Back           

00000154 <scrollMenuItems>:
     154:	20 42 41 43 4b 20 20 20 20 20 20 20 20 20 20 20      BACK           
     164:	20 4e 72 2e 20 31 3a 20 20 20 20 20 20 20 20 20      Nr. 1:         
     174:	20 4e 72 2e 20 32 3a 20 20 20 20 20 20 20 20 20      Nr. 2:         
     184:	20 4e 72 2e 20 33 3a 20 20 20 20 20 20 20 20 20      Nr. 3:         
     194:	20 4e 72 2e 20 34 3a 20 20 20 20 20 20 20 20 20      Nr. 4:         
     1a4:	20 4e 72 2e 20 35 3a 20 20 20 20 20 20 20 20 20      Nr. 5:         
     1b4:	20 4e 72 2e 20 36 3a 20 20 20 20 20 20 20 20 20      Nr. 6:         
     1c4:	20 4e 72 2e 20 37 3a 20 20 20 20 20 20 20 20 20      Nr. 7:         
     1d4:	20 4e 72 2e 20 38 3a 20 20 20 20 20 20 20 20 20      Nr. 8:         
     1e4:	20 4e 72 2e 20 39 3a 20 20 20 20 20 20 20 20 20      Nr. 9:         
     1f4:	20 4e 72 2e 20 31 30 3a 20 20 20 20 20 20 20 20      Nr. 10:        
     204:	20 4e 72 2e 20 31 31 3a 20 20 20 20 20 20 20 20      Nr. 11:        
     214:	20 4e 72 2e 20 31 32 3a 20 20 20 20 20 20 20 20      Nr. 12:        
     224:	20 4e 72 2e 20 31 33 3a 20 20 20 20 20 20 20 20      Nr. 13:        
     234:	20 4e 72 2e 20 31 34 3a 20 20 20 20 20 20 20 20      Nr. 14:        
     244:	20 4e 72 2e 20 31 35 3a 20 20 20 20 20 20 20 20      Nr. 15:        
     254:	20 4e 72 2e 20 31 36 3a 20 20 20 20 20 20 20 20      Nr. 16:        
     264:	20 4e 72 2e 20 31 37 3a 20 20 20 20 20 20 20 20      Nr. 17:        
     274:	20 4e 72 2e 20 31 38 3a 20 20 20 20 20 20 20 20      Nr. 18:        
     284:	20 4e 72 2e 20 31 39 3a 20 20 20 20 20 20 20 20      Nr. 19:        

00000294 <mainMenuItems>:
     294:	20 53 74 61 72 74 20 47 61 6d 65 20 20 20 20 20      Start Game     
     2a4:	20 53 65 74 74 69 6e 67 73 20 20 20 20 20 20 20      Settings       
     2b4:	20 48 69 67 68 20 53 63 6f 72 65 73 20 20 20 20      High Scores    
     2c4:	20 52 65 73 65 74 20 53 63 6f 72 65 73 20 20 20      Reset Scores   
     2d4:	20 45 78 69 74 20 20 20 20 20 20 20 20 20 20 20      Exit           
	...

00000314 <solkors>:
     314:	20 20 20 79 61 70 40 40 40 2a 20 20 20 20 20 20        yap@@@*      
     324:	20 20 20 23 40 40 40 23 20 20 20 2a 23 20 20 20        #@@@#   *#   
     334:	20 20 23 40 40 40 2a 20 20 2a 40 40 40 40 23 20       #@@@*  *@@@@# 
     344:	2a 20 20 2b 23 40 40 40 40 40 40 20 20 40 40 40     *  +#@@@@@@  @@@
     354:	40 40 20 20 20 2b 40 40 40 40 2a 20 20 20 40 40     @@   +@@@@*   @@
     364:	40 40 40 25 25 40 40 40 40 40 40 20 2b 20 20 2a     @@@%%@@@@@@ +  *
     374:	20 23 40 40 40 40 2a 20 20 2a 40 40 40 23 20 20      #@@@@*  *@@@#  
     384:	20 20 20 23 23 20 20 20 23 40 40 40 23 20 20 20        ##   #@@@#   

00000394 <font8x8_basic>:
	...
     39c:	00 00 5f 00 00 00 00 00 00 07 00 07 00 00 00 00     .._.............
     3ac:	14 7f 14 7f 14 00 00 00 24 2a 7f 2a 12 00 00 00     ........$*.*....
     3bc:	23 13 08 64 62 00 00 00 36 49 56 20 50 00 00 00     #..db...6IV P...
     3cc:	00 08 07 03 00 00 00 00 00 1c 22 41 00 00 00 00     .........."A....
     3dc:	00 41 22 1c 00 00 00 00 14 08 3e 08 14 00 00 00     .A".......>.....
     3ec:	08 08 3e 08 08 00 00 00 00 50 30 00 00 00 00 00     ..>......P0.....
     3fc:	08 08 08 08 08 00 00 00 00 60 60 00 00 00 00 00     .........``.....
     40c:	20 10 08 04 02 00 00 00 3e 51 49 45 3e 00 00 00      .......>QIE>...
     41c:	00 42 7f 40 00 00 00 00 42 61 51 49 46 00 00 00     .B.@....BaQIF...
     42c:	21 41 45 4b 31 00 00 00 18 14 12 7f 10 00 00 00     !AEK1...........
     43c:	27 45 45 45 39 00 00 00 3c 4a 49 49 30 00 00 00     'EEE9...<JII0...
     44c:	01 71 09 05 03 00 00 00 36 49 49 49 36 00 00 00     .q......6III6...
     45c:	06 49 49 29 1e 00 00 00 00 36 36 00 00 00 00 00     .II).....66.....
     46c:	00 56 36 00 00 00 00 00 08 14 22 41 00 00 00 00     .V6......."A....
     47c:	14 14 14 14 14 14 00 00 41 22 14 08 00 00 00 00     ........A"......
     48c:	02 01 51 09 06 00 00 00 3e 41 5d 5d 1e 00 00 00     ..Q.....>A]]....
     49c:	7e 11 11 11 7e 00 00 00 7f 49 49 49 36 00 00 00     ~...~....III6...
     4ac:	3e 41 41 41 22 00 00 00 7f 41 41 22 1c 00 00 00     >AAA"....AA"....
     4bc:	7f 49 49 49 41 00 00 00 7f 09 09 09 01 00 00 00     .IIIA...........
     4cc:	3e 41 49 49 7a 00 00 00 7f 08 08 08 7f 00 00 00     >AIIz...........
     4dc:	00 41 7f 41 00 00 00 00 20 40 41 3f 01 00 00 00     .A.A.... @A?....
     4ec:	7f 08 14 22 41 00 00 00 7f 40 40 40 40 00 00 00     ..."A....@@@@...
     4fc:	7f 02 04 02 7f 00 00 00 7f 02 04 08 7f 00 00 00     ................
     50c:	3e 41 41 41 3e 00 00 00 7f 09 09 09 06 00 00 00     >AAA>...........
     51c:	3e 41 51 21 5e 00 00 00 7f 09 19 29 46 00 00 00     >AQ!^......)F...
     52c:	46 49 49 49 31 00 00 00 01 01 7f 01 01 00 00 00     FIII1...........
     53c:	3f 40 40 40 3f 00 00 00 1f 20 40 20 1f 00 00 00     ?@@@?.... @ ....
     54c:	7f 20 18 20 7f 00 00 00 63 14 08 14 63 00 00 00     . . ....c...c...
     55c:	03 04 78 04 03 00 00 00 61 51 49 45 43 00 00 00     ..x.....aQIEC...
     56c:	00 3e 41 41 00 00 00 00 02 04 08 10 20 00 00 00     .>AA........ ...
     57c:	00 41 41 3e 00 00 00 00 04 02 01 02 04 00 00 00     .AA>............
     58c:	40 40 40 40 40 40 00 00 00 00 03 07 00 00 00 00     @@@@@@..........
     59c:	20 54 54 54 78 00 00 00 7f 48 44 44 38 00 00 00      TTTx....HDD8...
     5ac:	38 44 44 44 20 00 00 00 38 44 44 48 7f 00 00 00     8DDD ...8DDH....
     5bc:	38 54 54 54 18 00 00 00 08 7e 09 01 02 00 00 00     8TTT.....~......
     5cc:	08 14 54 54 3c 00 00 00 7f 08 04 04 78 00 00 00     ..TT<.......x...
     5dc:	00 44 7d 40 00 00 00 00 20 40 44 3d 00 00 00 00     .D}@.... @D=....
     5ec:	00 7f 10 28 44 00 00 00 00 41 7f 40 00 00 00 00     ...(D....A.@....
     5fc:	7c 04 18 04 78 00 00 00 7c 08 04 04 78 00 00 00     |...x...|...x...
     60c:	38 44 44 44 38 00 00 00 7c 14 14 14 08 00 00 00     8DDD8...|.......
     61c:	08 14 14 18 7c 00 00 00 7c 08 04 04 08 00 00 00     ....|...|.......
     62c:	48 54 54 54 20 00 00 00 04 3f 44 40 20 00 00 00     HTTT ....?D@ ...
     63c:	3c 40 40 20 7c 00 00 00 1c 20 40 20 1c 00 00 00     <@@ |.... @ ....
     64c:	3c 40 30 40 3c 00 00 00 44 28 10 28 44 00 00 00     <@0@<...D(.(D...
     65c:	0c 50 50 50 3c 00 00 00 44 64 54 4c 44 00 00 00     .PPP<...DdTLD...
     66c:	00 08 36 41 00 00 00 00 00 00 7f 00 00 00 00 00     ..6A............
     67c:	00 41 36 08 00 00 00 00 08 04 08 10 08 00 00 00     .A6.............

0000068c <__ctors_end>:
     68c:	11 24       	eor	r1, r1
     68e:	1f be       	out	0x3f, r1	; 63
     690:	cf ef       	ldi	r28, 0xFF	; 255
     692:	d4 e0       	ldi	r29, 0x04	; 4
     694:	de bf       	out	0x3e, r29	; 62
     696:	cd bf       	out	0x3d, r28	; 61

00000698 <__do_copy_data>:
     698:	13 e0       	ldi	r17, 0x03	; 3
     69a:	a0 e0       	ldi	r26, 0x00	; 0
     69c:	b1 e0       	ldi	r27, 0x01	; 1
     69e:	e6 e4       	ldi	r30, 0x46	; 70
     6a0:	f1 e3       	ldi	r31, 0x31	; 49
     6a2:	02 c0       	rjmp	.+4      	; 0x6a8 <__do_copy_data+0x10>
     6a4:	05 90       	lpm	r0, Z+
     6a6:	0d 92       	st	X+, r0
     6a8:	aa 38       	cpi	r26, 0x8A	; 138
     6aa:	b1 07       	cpc	r27, r17
     6ac:	d9 f7       	brne	.-10     	; 0x6a4 <__do_copy_data+0xc>

000006ae <__do_clear_bss>:
     6ae:	23 e0       	ldi	r18, 0x03	; 3
     6b0:	aa e8       	ldi	r26, 0x8A	; 138
     6b2:	b3 e0       	ldi	r27, 0x03	; 3
     6b4:	01 c0       	rjmp	.+2      	; 0x6b8 <.do_clear_bss_start>

000006b6 <.do_clear_bss_loop>:
     6b6:	1d 92       	st	X+, r1

000006b8 <.do_clear_bss_start>:
     6b8:	a6 3d       	cpi	r26, 0xD6	; 214
     6ba:	b2 07       	cpc	r27, r18
     6bc:	e1 f7       	brne	.-8      	; 0x6b6 <.do_clear_bss_loop>
     6be:	0e 94 bb 07 	call	0xf76	; 0xf76 <main>
     6c2:	0c 94 a1 18 	jmp	0x3142	; 0x3142 <_exit>

000006c6 <__bad_interrupt>:
     6c6:	0c 94 00 00 	jmp	0	; 0x0 <__vectors>

000006ca <CAN_Init>:
     6ca:	cf 93       	push	r28
     6cc:	c8 2f       	mov	r28, r24
     6ce:	0e 94 98 04 	call	0x930	; 0x930 <MCP2515_init>
     6d2:	8c 2f       	mov	r24, r28
     6d4:	0e 94 c1 04 	call	0x982	; 0x982 <MCP2515_SetMode>
     6d8:	60 e6       	ldi	r22, 0x60	; 96
     6da:	80 e6       	ldi	r24, 0x60	; 96
     6dc:	0e 94 36 04 	call	0x86c	; 0x86c <MCP2515_Write>
     6e0:	60 e6       	ldi	r22, 0x60	; 96
     6e2:	80 e7       	ldi	r24, 0x70	; 112
     6e4:	0e 94 36 04 	call	0x86c	; 0x86c <MCP2515_Write>
     6e8:	4f ef       	ldi	r20, 0xFF	; 255
     6ea:	63 e0       	ldi	r22, 0x03	; 3
     6ec:	8b e2       	ldi	r24, 0x2B	; 43
     6ee:	0e 94 6e 04 	call	0x8dc	; 0x8dc <MCP2515_BitModify>
     6f2:	8a 98       	cbi	0x11, 2	; 17
     6f4:	f8 94       	cli
     6f6:	8b b7       	in	r24, 0x3b	; 59
     6f8:	80 64       	ori	r24, 0x40	; 64
     6fa:	8b bf       	out	0x3b, r24	; 59
     6fc:	85 b7       	in	r24, 0x35	; 53
     6fe:	82 60       	ori	r24, 0x02	; 2
     700:	85 bf       	out	0x35, r24	; 53
     702:	85 b7       	in	r24, 0x35	; 53
     704:	8e 7f       	andi	r24, 0xFE	; 254
     706:	85 bf       	out	0x35, r24	; 53
     708:	cf 91       	pop	r28
     70a:	08 95       	ret

0000070c <CAN_SendMessage>:
     70c:	0f 93       	push	r16
     70e:	1f 93       	push	r17
     710:	cf 93       	push	r28
     712:	df 93       	push	r29
     714:	8c 01       	movw	r16, r24
     716:	0e 94 60 04 	call	0x8c0	; 0x8c0 <MCP2515_ReadStatus>
     71a:	82 fd       	sbrc	r24, 2
     71c:	fc cf       	rjmp	.-8      	; 0x716 <CAN_SendMessage+0xa>
     71e:	f8 01       	movw	r30, r16
     720:	c0 81       	ld	r28, Z
     722:	d1 81       	ldd	r29, Z+1	; 0x01
     724:	d7 70       	andi	r29, 0x07	; 7
     726:	be 01       	movw	r22, r28
     728:	83 e0       	ldi	r24, 0x03	; 3
     72a:	76 95       	lsr	r23
     72c:	67 95       	ror	r22
     72e:	8a 95       	dec	r24
     730:	e1 f7       	brne	.-8      	; 0x72a <CAN_SendMessage+0x1e>
     732:	81 e3       	ldi	r24, 0x31	; 49
     734:	0e 94 36 04 	call	0x86c	; 0x86c <MCP2515_Write>
     738:	6c 2f       	mov	r22, r28
     73a:	62 95       	swap	r22
     73c:	66 0f       	add	r22, r22
     73e:	60 7e       	andi	r22, 0xE0	; 224
     740:	82 e3       	ldi	r24, 0x32	; 50
     742:	0e 94 36 04 	call	0x86c	; 0x86c <MCP2515_Write>
     746:	f8 01       	movw	r30, r16
     748:	62 81       	ldd	r22, Z+2	; 0x02
     74a:	85 e3       	ldi	r24, 0x35	; 53
     74c:	0e 94 36 04 	call	0x86c	; 0x86c <MCP2515_Write>
     750:	c0 e0       	ldi	r28, 0x00	; 0
     752:	f8 01       	movw	r30, r16
     754:	82 81       	ldd	r24, Z+2	; 0x02
     756:	c8 17       	cp	r28, r24
     758:	50 f4       	brcc	.+20     	; 0x76e <CAN_SendMessage+0x62>
     75a:	f8 01       	movw	r30, r16
     75c:	ec 0f       	add	r30, r28
     75e:	f1 1d       	adc	r31, r1
     760:	63 81       	ldd	r22, Z+3	; 0x03
     762:	86 e3       	ldi	r24, 0x36	; 54
     764:	8c 0f       	add	r24, r28
     766:	0e 94 36 04 	call	0x86c	; 0x86c <MCP2515_Write>
     76a:	cf 5f       	subi	r28, 0xFF	; 255
     76c:	f2 cf       	rjmp	.-28     	; 0x752 <CAN_SendMessage+0x46>
     76e:	81 e0       	ldi	r24, 0x01	; 1
     770:	df 91       	pop	r29
     772:	cf 91       	pop	r28
     774:	1f 91       	pop	r17
     776:	0f 91       	pop	r16
     778:	0c 94 49 04 	jmp	0x892	; 0x892 <MCP2515_RequestToSend>

0000077c <CAN_ReceiveMessage>:
     77c:	0f 93       	push	r16
     77e:	1f 93       	push	r17
     780:	cf 93       	push	r28
     782:	8c 01       	movw	r16, r24
     784:	8c e2       	ldi	r24, 0x2C	; 44
     786:	0e 94 24 04 	call	0x848	; 0x848 <MCP2515_Read>
     78a:	80 ff       	sbrs	r24, 0
     78c:	37 c0       	rjmp	.+110    	; 0x7fc <CAN_ReceiveMessage+0x80>
     78e:	81 e6       	ldi	r24, 0x61	; 97
     790:	0e 94 24 04 	call	0x848	; 0x848 <MCP2515_Read>
     794:	c8 2f       	mov	r28, r24
     796:	82 e6       	ldi	r24, 0x62	; 98
     798:	0e 94 24 04 	call	0x848	; 0x848 <MCP2515_Read>
     79c:	98 e0       	ldi	r25, 0x08	; 8
     79e:	c9 9f       	mul	r28, r25
     7a0:	90 01       	movw	r18, r0
     7a2:	11 24       	eor	r1, r1
     7a4:	82 95       	swap	r24
     7a6:	86 95       	lsr	r24
     7a8:	87 70       	andi	r24, 0x07	; 7
     7aa:	28 2b       	or	r18, r24
     7ac:	f8 01       	movw	r30, r16
     7ae:	31 83       	std	Z+1, r19	; 0x01
     7b0:	20 83       	st	Z, r18
     7b2:	85 e6       	ldi	r24, 0x65	; 101
     7b4:	0e 94 24 04 	call	0x848	; 0x848 <MCP2515_Read>
     7b8:	f8 01       	movw	r30, r16
     7ba:	82 83       	std	Z+2, r24	; 0x02
     7bc:	c0 e0       	ldi	r28, 0x00	; 0
     7be:	f8 01       	movw	r30, r16
     7c0:	82 81       	ldd	r24, Z+2	; 0x02
     7c2:	c8 17       	cp	r28, r24
     7c4:	50 f4       	brcc	.+20     	; 0x7da <CAN_ReceiveMessage+0x5e>
     7c6:	86 e6       	ldi	r24, 0x66	; 102
     7c8:	8c 0f       	add	r24, r28
     7ca:	0e 94 24 04 	call	0x848	; 0x848 <MCP2515_Read>
     7ce:	f8 01       	movw	r30, r16
     7d0:	ec 0f       	add	r30, r28
     7d2:	f1 1d       	adc	r31, r1
     7d4:	83 83       	std	Z+3, r24	; 0x03
     7d6:	cf 5f       	subi	r28, 0xFF	; 255
     7d8:	f2 cf       	rjmp	.-28     	; 0x7be <CAN_ReceiveMessage+0x42>
     7da:	40 e0       	ldi	r20, 0x00	; 0
     7dc:	61 e0       	ldi	r22, 0x01	; 1
     7de:	8c e2       	ldi	r24, 0x2C	; 44
     7e0:	0e 94 6e 04 	call	0x8dc	; 0x8dc <MCP2515_BitModify>
     7e4:	40 e0       	ldi	r20, 0x00	; 0
     7e6:	61 e0       	ldi	r22, 0x01	; 1
     7e8:	8c e2       	ldi	r24, 0x2C	; 44
     7ea:	0e 94 6e 04 	call	0x8dc	; 0x8dc <MCP2515_BitModify>
     7ee:	40 e0       	ldi	r20, 0x00	; 0
     7f0:	62 e0       	ldi	r22, 0x02	; 2
     7f2:	8c e2       	ldi	r24, 0x2C	; 44
     7f4:	0e 94 6e 04 	call	0x8dc	; 0x8dc <MCP2515_BitModify>
     7f8:	80 e0       	ldi	r24, 0x00	; 0
     7fa:	01 c0       	rjmp	.+2      	; 0x7fe <CAN_ReceiveMessage+0x82>
     7fc:	81 e0       	ldi	r24, 0x01	; 1
     7fe:	cf 91       	pop	r28
     800:	1f 91       	pop	r17
     802:	0f 91       	pop	r16
     804:	08 95       	ret

00000806 <CAN_Check_startup>:
     806:	cf 93       	push	r28
     808:	8f e0       	ldi	r24, 0x0F	; 15
     80a:	0e 94 24 04 	call	0x848	; 0x848 <MCP2515_Read>
     80e:	c8 2f       	mov	r28, r24
     810:	c0 7e       	andi	r28, 0xE0	; 224
     812:	1f 92       	push	r1
     814:	cf 93       	push	r28
     816:	8c e1       	ldi	r24, 0x1C	; 28
     818:	91 e0       	ldi	r25, 0x01	; 1
     81a:	9f 93       	push	r25
     81c:	8f 93       	push	r24
     81e:	0e 94 c3 15 	call	0x2b86	; 0x2b86 <printf>
     822:	0f 90       	pop	r0
     824:	0f 90       	pop	r0
     826:	0f 90       	pop	r0
     828:	0f 90       	pop	r0
     82a:	c1 11       	cpse	r28, r1
     82c:	03 c0       	rjmp	.+6      	; 0x834 <CAN_Check_startup+0x2e>
     82e:	8b e2       	ldi	r24, 0x2B	; 43
     830:	91 e0       	ldi	r25, 0x01	; 1
     832:	02 c0       	rjmp	.+4      	; 0x838 <CAN_Check_startup+0x32>
     834:	88 e4       	ldi	r24, 0x48	; 72
     836:	91 e0       	ldi	r25, 0x01	; 1
     838:	9f 93       	push	r25
     83a:	8f 93       	push	r24
     83c:	0e 94 c3 15 	call	0x2b86	; 0x2b86 <printf>
     840:	0f 90       	pop	r0
     842:	0f 90       	pop	r0
     844:	cf 91       	pop	r28
     846:	08 95       	ret

00000848 <MCP2515_Read>:
     848:	cf 93       	push	r28
     84a:	c8 2f       	mov	r28, r24
     84c:	0e 94 d9 04 	call	0x9b2	; 0x9b2 <SPI_SelctSlave>
     850:	83 e0       	ldi	r24, 0x03	; 3
     852:	0e 94 cd 04 	call	0x99a	; 0x99a <SPI_Transmit>
     856:	8c 2f       	mov	r24, r28
     858:	0e 94 cd 04 	call	0x99a	; 0x99a <SPI_Transmit>
     85c:	0e 94 d1 04 	call	0x9a2	; 0x9a2 <SPI_Receive>
     860:	c8 2f       	mov	r28, r24
     862:	0e 94 d7 04 	call	0x9ae	; 0x9ae <SPI_DselectSlave>
     866:	8c 2f       	mov	r24, r28
     868:	cf 91       	pop	r28
     86a:	08 95       	ret

0000086c <MCP2515_Write>:
     86c:	cf 93       	push	r28
     86e:	df 93       	push	r29
     870:	d8 2f       	mov	r29, r24
     872:	c6 2f       	mov	r28, r22
     874:	0e 94 d9 04 	call	0x9b2	; 0x9b2 <SPI_SelctSlave>
     878:	82 e0       	ldi	r24, 0x02	; 2
     87a:	0e 94 cd 04 	call	0x99a	; 0x99a <SPI_Transmit>
     87e:	8d 2f       	mov	r24, r29
     880:	0e 94 cd 04 	call	0x99a	; 0x99a <SPI_Transmit>
     884:	8c 2f       	mov	r24, r28
     886:	0e 94 cd 04 	call	0x99a	; 0x99a <SPI_Transmit>
     88a:	df 91       	pop	r29
     88c:	cf 91       	pop	r28
     88e:	0c 94 d7 04 	jmp	0x9ae	; 0x9ae <SPI_DselectSlave>

00000892 <MCP2515_RequestToSend>:
     892:	cf 93       	push	r28
     894:	c8 2f       	mov	r28, r24
     896:	83 30       	cpi	r24, 0x03	; 3
     898:	50 f0       	brcs	.+20     	; 0x8ae <MCP2515_RequestToSend+0x1c>
     89a:	80 e7       	ldi	r24, 0x70	; 112
     89c:	91 e0       	ldi	r25, 0x01	; 1
     89e:	9f 93       	push	r25
     8a0:	8f 93       	push	r24
     8a2:	0e 94 c3 15 	call	0x2b86	; 0x2b86 <printf>
     8a6:	0f 90       	pop	r0
     8a8:	0f 90       	pop	r0
     8aa:	cf 91       	pop	r28
     8ac:	08 95       	ret
     8ae:	0e 94 d9 04 	call	0x9b2	; 0x9b2 <SPI_SelctSlave>
     8b2:	8c 2f       	mov	r24, r28
     8b4:	81 68       	ori	r24, 0x81	; 129
     8b6:	0e 94 cd 04 	call	0x99a	; 0x99a <SPI_Transmit>
     8ba:	cf 91       	pop	r28
     8bc:	0c 94 d7 04 	jmp	0x9ae	; 0x9ae <SPI_DselectSlave>

000008c0 <MCP2515_ReadStatus>:
     8c0:	cf 93       	push	r28
     8c2:	0e 94 d9 04 	call	0x9b2	; 0x9b2 <SPI_SelctSlave>
     8c6:	80 ea       	ldi	r24, 0xA0	; 160
     8c8:	0e 94 cd 04 	call	0x99a	; 0x99a <SPI_Transmit>
     8cc:	0e 94 d1 04 	call	0x9a2	; 0x9a2 <SPI_Receive>
     8d0:	c8 2f       	mov	r28, r24
     8d2:	0e 94 d7 04 	call	0x9ae	; 0x9ae <SPI_DselectSlave>
     8d6:	8c 2f       	mov	r24, r28
     8d8:	cf 91       	pop	r28
     8da:	08 95       	ret

000008dc <MCP2515_BitModify>:
     8dc:	1f 93       	push	r17
     8de:	cf 93       	push	r28
     8e0:	df 93       	push	r29
     8e2:	18 2f       	mov	r17, r24
     8e4:	d6 2f       	mov	r29, r22
     8e6:	c4 2f       	mov	r28, r20
     8e8:	0e 94 d9 04 	call	0x9b2	; 0x9b2 <SPI_SelctSlave>
     8ec:	85 e0       	ldi	r24, 0x05	; 5
     8ee:	0e 94 cd 04 	call	0x99a	; 0x99a <SPI_Transmit>
     8f2:	81 2f       	mov	r24, r17
     8f4:	0e 94 cd 04 	call	0x99a	; 0x99a <SPI_Transmit>
     8f8:	8d 2f       	mov	r24, r29
     8fa:	0e 94 cd 04 	call	0x99a	; 0x99a <SPI_Transmit>
     8fe:	8c 2f       	mov	r24, r28
     900:	0e 94 cd 04 	call	0x99a	; 0x99a <SPI_Transmit>
     904:	df 91       	pop	r29
     906:	cf 91       	pop	r28
     908:	1f 91       	pop	r17
     90a:	0c 94 d7 04 	jmp	0x9ae	; 0x9ae <SPI_DselectSlave>

0000090e <MCP2515_SendCommand>:
     90e:	cf 93       	push	r28
     910:	c8 2f       	mov	r28, r24
     912:	0e 94 d9 04 	call	0x9b2	; 0x9b2 <SPI_SelctSlave>
     916:	8c 2f       	mov	r24, r28
     918:	0e 94 cd 04 	call	0x99a	; 0x99a <SPI_Transmit>
     91c:	cf 91       	pop	r28
     91e:	0c 94 d7 04 	jmp	0x9ae	; 0x9ae <SPI_DselectSlave>

00000922 <MCP2515_Reset>:
     922:	0e 94 d9 04 	call	0x9b2	; 0x9b2 <SPI_SelctSlave>
     926:	80 ec       	ldi	r24, 0xC0	; 192
     928:	0e 94 87 04 	call	0x90e	; 0x90e <MCP2515_SendCommand>
     92c:	0c 94 d7 04 	jmp	0x9ae	; 0x9ae <SPI_DselectSlave>

00000930 <MCP2515_init>:
     930:	0e 94 c6 04 	call	0x98c	; 0x98c <SPI_MasterInit>
     934:	0e 94 91 04 	call	0x922	; 0x922 <MCP2515_Reset>
     938:	87 ee       	ldi	r24, 0xE7	; 231
     93a:	93 e0       	ldi	r25, 0x03	; 3
     93c:	01 97       	sbiw	r24, 0x01	; 1
     93e:	f1 f7       	brne	.-4      	; 0x93c <MCP2515_init+0xc>
     940:	00 c0       	rjmp	.+0      	; 0x942 <MCP2515_init+0x12>
     942:	00 00       	nop
     944:	8e e0       	ldi	r24, 0x0E	; 14
     946:	0e 94 24 04 	call	0x848	; 0x848 <MCP2515_Read>
     94a:	98 2f       	mov	r25, r24
     94c:	90 7e       	andi	r25, 0xE0	; 224
     94e:	90 38       	cpi	r25, 0x80	; 128
     950:	61 f0       	breq	.+24     	; 0x96a <MCP2515_init+0x3a>
     952:	1f 92       	push	r1
     954:	8f 93       	push	r24
     956:	8d e8       	ldi	r24, 0x8D	; 141
     958:	91 e0       	ldi	r25, 0x01	; 1
     95a:	9f 93       	push	r25
     95c:	8f 93       	push	r24
     95e:	0e 94 c3 15 	call	0x2b86	; 0x2b86 <printf>
     962:	0f 90       	pop	r0
     964:	0f 90       	pop	r0
     966:	0f 90       	pop	r0
     968:	0f 90       	pop	r0
     96a:	63 e0       	ldi	r22, 0x03	; 3
     96c:	8a e2       	ldi	r24, 0x2A	; 42
     96e:	0e 94 36 04 	call	0x86c	; 0x86c <MCP2515_Write>
     972:	61 eb       	ldi	r22, 0xB1	; 177
     974:	89 e2       	ldi	r24, 0x29	; 41
     976:	0e 94 36 04 	call	0x86c	; 0x86c <MCP2515_Write>
     97a:	65 e0       	ldi	r22, 0x05	; 5
     97c:	88 e2       	ldi	r24, 0x28	; 40
     97e:	0c 94 36 04 	jmp	0x86c	; 0x86c <MCP2515_Write>

00000982 <MCP2515_SetMode>:
     982:	48 2f       	mov	r20, r24
     984:	60 ee       	ldi	r22, 0xE0	; 224
     986:	8f e0       	ldi	r24, 0x0F	; 15
     988:	0c 94 6e 04 	jmp	0x8dc	; 0x8dc <MCP2515_BitModify>

0000098c <SPI_MasterInit>:
     98c:	bc 9a       	sbi	0x17, 4	; 23
     98e:	bd 9a       	sbi	0x17, 5	; 23
     990:	bf 9a       	sbi	0x17, 7	; 23
     992:	be 98       	cbi	0x17, 6	; 23
     994:	81 e5       	ldi	r24, 0x51	; 81
     996:	8d b9       	out	0x0d, r24	; 13
     998:	08 95       	ret

0000099a <SPI_Transmit>:
     99a:	8f b9       	out	0x0f, r24	; 15
     99c:	77 9b       	sbis	0x0e, 7	; 14
     99e:	fe cf       	rjmp	.-4      	; 0x99c <SPI_Transmit+0x2>
     9a0:	08 95       	ret

000009a2 <SPI_Receive>:
     9a2:	8f ef       	ldi	r24, 0xFF	; 255
     9a4:	8f b9       	out	0x0f, r24	; 15
     9a6:	77 9b       	sbis	0x0e, 7	; 14
     9a8:	fe cf       	rjmp	.-4      	; 0x9a6 <SPI_Receive+0x4>
     9aa:	8f b1       	in	r24, 0x0f	; 15
     9ac:	08 95       	ret

000009ae <SPI_DselectSlave>:
     9ae:	c4 9a       	sbi	0x18, 4	; 24
     9b0:	08 95       	ret

000009b2 <SPI_SelctSlave>:
     9b2:	c4 98       	cbi	0x18, 4	; 24
     9b4:	08 95       	ret

000009b6 <UART_Init>:
     9b6:	90 bd       	out	0x20, r25	; 32
     9b8:	89 b9       	out	0x09, r24	; 9
     9ba:	54 9a       	sbi	0x0a, 4	; 10
     9bc:	53 9a       	sbi	0x0a, 3	; 10
     9be:	8e e8       	ldi	r24, 0x8E	; 142
     9c0:	80 bd       	out	0x20, r24	; 32
     9c2:	08 95       	ret

000009c4 <UART_SendChar>:
     9c4:	5d 9b       	sbis	0x0b, 5	; 11
     9c6:	fe cf       	rjmp	.-4      	; 0x9c4 <UART_SendChar>
     9c8:	8c b9       	out	0x0c, r24	; 12
     9ca:	08 95       	ret

000009cc <UART_putChar>:
     9cc:	0e 94 e2 04 	call	0x9c4	; 0x9c4 <UART_SendChar>
     9d0:	80 e0       	ldi	r24, 0x00	; 0
     9d2:	90 e0       	ldi	r25, 0x00	; 0
     9d4:	08 95       	ret

000009d6 <UART_ReceiveChar>:
     9d6:	5f 9b       	sbis	0x0b, 7	; 11
     9d8:	fe cf       	rjmp	.-4      	; 0x9d6 <UART_ReceiveChar>
     9da:	8c b1       	in	r24, 0x0c	; 12
     9dc:	08 95       	ret

000009de <UART_getChar>:
     9de:	cf 93       	push	r28
     9e0:	0e 94 eb 04 	call	0x9d6	; 0x9d6 <UART_ReceiveChar>
     9e4:	c8 2f       	mov	r28, r24
     9e6:	0e 94 e2 04 	call	0x9c4	; 0x9c4 <UART_SendChar>
     9ea:	8c 2f       	mov	r24, r28
     9ec:	90 e0       	ldi	r25, 0x00	; 0
     9ee:	cf 91       	pop	r28
     9f0:	08 95       	ret

000009f2 <URAT_initStudio>:
     9f2:	e0 ed       	ldi	r30, 0xD0	; 208
     9f4:	f3 e0       	ldi	r31, 0x03	; 3
     9f6:	8e e0       	ldi	r24, 0x0E	; 14
     9f8:	91 e0       	ldi	r25, 0x01	; 1
     9fa:	93 83       	std	Z+3, r25	; 0x03
     9fc:	82 83       	std	Z+2, r24	; 0x02
     9fe:	80 e0       	ldi	r24, 0x00	; 0
     a00:	91 e0       	ldi	r25, 0x01	; 1
     a02:	91 83       	std	Z+1, r25	; 0x01
     a04:	80 83       	st	Z, r24
     a06:	08 95       	ret

00000a08 <UART_EnableReceiveInterrupt>:
     a08:	57 9a       	sbi	0x0a, 7	; 10
     a0a:	08 95       	ret

00000a0c <__vector_19>:
     a0c:	1f 92       	push	r1
     a0e:	0f 92       	push	r0
     a10:	0f b6       	in	r0, 0x3f	; 63
     a12:	0f 92       	push	r0
     a14:	11 24       	eor	r1, r1
     a16:	8f 93       	push	r24
     a18:	8c b1       	in	r24, 0x0c	; 12
     a1a:	8f 91       	pop	r24
     a1c:	0f 90       	pop	r0
     a1e:	0f be       	out	0x3f, r0	; 63
     a20:	0f 90       	pop	r0
     a22:	1f 90       	pop	r1
     a24:	18 95       	reti

00000a26 <game_Init>:
     a26:	fc 01       	movw	r30, r24
     a28:	81 e0       	ldi	r24, 0x01	; 1
     a2a:	81 83       	std	Z+1, r24	; 0x01
     a2c:	99 e0       	ldi	r25, 0x09	; 9
     a2e:	90 83       	st	Z, r25
     a30:	25 e0       	ldi	r18, 0x05	; 5
     a32:	25 83       	std	Z+5, r18	; 0x05
     a34:	14 82       	std	Z+4, r1	; 0x04
     a36:	13 82       	std	Z+3, r1	; 0x03
     a38:	12 82       	std	Z+2, r1	; 0x02
     a3a:	96 83       	std	Z+6, r25	; 0x06
     a3c:	17 82       	std	Z+7, r1	; 0x07
     a3e:	80 93 b7 03 	sts	0x03B7, r24	; 0x8003b7 <main_game+0x1>
     a42:	08 95       	ret

00000a44 <game_run>:
     a44:	80 91 b8 03 	lds	r24, 0x03B8	; 0x8003b8 <main_game+0x2>
     a48:	81 11       	cpse	r24, r1
     a4a:	05 c0       	rjmp	.+10     	; 0xa56 <game_run+0x12>
     a4c:	10 92 b8 03 	sts	0x03B8, r1	; 0x8003b8 <main_game+0x2>
     a50:	80 e0       	ldi	r24, 0x00	; 0
     a52:	90 e0       	ldi	r25, 0x00	; 0
     a54:	08 95       	ret
     a56:	84 e1       	ldi	r24, 0x14	; 20
     a58:	93 e0       	ldi	r25, 0x03	; 3
     a5a:	0e 94 4f 0f 	call	0x1e9e	; 0x1e9e <oled_write_screen_to_SRAM>
     a5e:	89 e9       	ldi	r24, 0x99	; 153
     a60:	93 e0       	ldi	r25, 0x03	; 3
     a62:	0e 94 08 0d 	call	0x1a10	; 0x1a10 <MultiBoard_Update>
     a66:	89 e9       	ldi	r24, 0x99	; 153
     a68:	93 e0       	ldi	r25, 0x03	; 3
     a6a:	0e 94 45 0d 	call	0x1a8a	; 0x1a8a <MultiBoard_Send>
     a6e:	81 e0       	ldi	r24, 0x01	; 1
     a70:	90 e0       	ldi	r25, 0x00	; 0
     a72:	08 95       	ret

00000a74 <game_over>:
     a74:	cf 93       	push	r28
     a76:	df 93       	push	r29
     a78:	ec 01       	movw	r28, r24
     a7a:	80 91 8f 03 	lds	r24, 0x038F	; 0x80038f <score_counter>
     a7e:	90 91 90 03 	lds	r25, 0x0390	; 0x800390 <score_counter+0x1>
     a82:	0e 94 c5 06 	call	0xd8a	; 0xd8a <update_highscore_list>
     a86:	1a 82       	std	Y+2, r1	; 0x02
     a88:	88 81       	ld	r24, Y
     a8a:	8e 83       	std	Y+6, r24	; 0x06
     a8c:	1f 82       	std	Y+7, r1	; 0x07
     a8e:	df 91       	pop	r29
     a90:	cf 91       	pop	r28
     a92:	08 95       	ret

00000a94 <game_Send>:
     a94:	cf 93       	push	r28
     a96:	df 93       	push	r29
     a98:	cd b7       	in	r28, 0x3d	; 61
     a9a:	de b7       	in	r29, 0x3e	; 62
     a9c:	2b 97       	sbiw	r28, 0x0b	; 11
     a9e:	0f b6       	in	r0, 0x3f	; 63
     aa0:	f8 94       	cli
     aa2:	de bf       	out	0x3e, r29	; 62
     aa4:	0f be       	out	0x3f, r0	; 63
     aa6:	cd bf       	out	0x3d, r28	; 61
     aa8:	fc 01       	movw	r30, r24
     aaa:	86 2f       	mov	r24, r22
     aac:	90 e0       	ldi	r25, 0x00	; 0
     aae:	9a 83       	std	Y+2, r25	; 0x02
     ab0:	89 83       	std	Y+1, r24	; 0x01
     ab2:	81 e0       	ldi	r24, 0x01	; 1
     ab4:	8b 83       	std	Y+3, r24	; 0x03
     ab6:	1c 82       	std	Y+4, r1	; 0x04
     ab8:	1d 82       	std	Y+5, r1	; 0x05
     aba:	1e 82       	std	Y+6, r1	; 0x06
     abc:	1f 82       	std	Y+7, r1	; 0x07
     abe:	18 86       	std	Y+8, r1	; 0x08
     ac0:	19 86       	std	Y+9, r1	; 0x09
     ac2:	1a 86       	std	Y+10, r1	; 0x0a
     ac4:	1b 86       	std	Y+11, r1	; 0x0b
     ac6:	6b 30       	cpi	r22, 0x0B	; 11
     ac8:	31 f0       	breq	.+12     	; 0xad6 <game_Send+0x42>
     aca:	6d 30       	cpi	r22, 0x0D	; 13
     acc:	31 f0       	breq	.+12     	; 0xada <game_Send+0x46>
     ace:	6a 30       	cpi	r22, 0x0A	; 10
     ad0:	31 f4       	brne	.+12     	; 0xade <game_Send+0x4a>
     ad2:	80 81       	ld	r24, Z
     ad4:	03 c0       	rjmp	.+6      	; 0xadc <game_Send+0x48>
     ad6:	81 81       	ldd	r24, Z+1	; 0x01
     ad8:	01 c0       	rjmp	.+2      	; 0xadc <game_Send+0x48>
     ada:	82 81       	ldd	r24, Z+2	; 0x02
     adc:	8c 83       	std	Y+4, r24	; 0x04
     ade:	ce 01       	movw	r24, r28
     ae0:	01 96       	adiw	r24, 0x01	; 1
     ae2:	0e 94 86 03 	call	0x70c	; 0x70c <CAN_SendMessage>
     ae6:	2b 96       	adiw	r28, 0x0b	; 11
     ae8:	0f b6       	in	r0, 0x3f	; 63
     aea:	f8 94       	cli
     aec:	de bf       	out	0x3e, r29	; 62
     aee:	0f be       	out	0x3f, r0	; 63
     af0:	cd bf       	out	0x3d, r28	; 61
     af2:	df 91       	pop	r29
     af4:	cf 91       	pop	r28
     af6:	08 95       	ret

00000af8 <game_Start>:
     af8:	cf 93       	push	r28
     afa:	df 93       	push	r29
     afc:	ec 01       	movw	r28, r24
     afe:	6a e0       	ldi	r22, 0x0A	; 10
     b00:	0e 94 4a 05 	call	0xa94	; 0xa94 <game_Send>
     b04:	6b e0       	ldi	r22, 0x0B	; 11
     b06:	ce 01       	movw	r24, r28
     b08:	0e 94 4a 05 	call	0xa94	; 0xa94 <game_Send>
     b0c:	6d e0       	ldi	r22, 0x0D	; 13
     b0e:	ce 01       	movw	r24, r28
     b10:	df 91       	pop	r29
     b12:	cf 91       	pop	r28
     b14:	0c 94 4a 05 	jmp	0xa94	; 0xa94 <game_Send>

00000b18 <game_Recive>:
     b18:	0f 93       	push	r16
     b1a:	1f 93       	push	r17
     b1c:	cf 93       	push	r28
     b1e:	df 93       	push	r29
     b20:	8c 01       	movw	r16, r24
     b22:	eb 01       	movw	r28, r22
     b24:	89 81       	ldd	r24, Y+1	; 0x01
     b26:	8f 93       	push	r24
     b28:	88 81       	ld	r24, Y
     b2a:	8f 93       	push	r24
     b2c:	87 ef       	ldi	r24, 0xF7	; 247
     b2e:	92 e0       	ldi	r25, 0x02	; 2
     b30:	9f 93       	push	r25
     b32:	8f 93       	push	r24
     b34:	0e 94 c3 15 	call	0x2b86	; 0x2b86 <printf>
     b38:	0f 90       	pop	r0
     b3a:	0f 90       	pop	r0
     b3c:	0f 90       	pop	r0
     b3e:	0f 90       	pop	r0
     b40:	88 81       	ld	r24, Y
     b42:	99 81       	ldd	r25, Y+1	; 0x01
     b44:	8e 30       	cpi	r24, 0x0E	; 14
     b46:	91 05       	cpc	r25, r1
     b48:	a9 f0       	breq	.+42     	; 0xb74 <game_Recive+0x5c>
     b4a:	8f 30       	cpi	r24, 0x0F	; 15
     b4c:	91 05       	cpc	r25, r1
     b4e:	e1 f0       	breq	.+56     	; 0xb88 <game_Recive+0x70>
     b50:	09 97       	sbiw	r24, 0x09	; 9
     b52:	e9 f4       	brne	.+58     	; 0xb8e <game_Recive+0x76>
     b54:	8b 81       	ldd	r24, Y+3	; 0x03
     b56:	f8 01       	movw	r30, r16
     b58:	86 83       	std	Z+6, r24	; 0x06
     b5a:	1f 92       	push	r1
     b5c:	8f 93       	push	r24
     b5e:	80 ed       	ldi	r24, 0xD0	; 208
     b60:	91 e0       	ldi	r25, 0x01	; 1
     b62:	9f 93       	push	r25
     b64:	8f 93       	push	r24
     b66:	0e 94 c3 15 	call	0x2b86	; 0x2b86 <printf>
     b6a:	0f 90       	pop	r0
     b6c:	0f 90       	pop	r0
     b6e:	0f 90       	pop	r0
     b70:	0f 90       	pop	r0
     b72:	0d c0       	rjmp	.+26     	; 0xb8e <game_Recive+0x76>
     b74:	0e 94 b2 14 	call	0x2964	; 0x2964 <animate_ash_and_pikachu_laughing>
     b78:	86 eb       	ldi	r24, 0xB6	; 182
     b7a:	93 e0       	ldi	r25, 0x03	; 3
     b7c:	df 91       	pop	r29
     b7e:	cf 91       	pop	r28
     b80:	1f 91       	pop	r17
     b82:	0f 91       	pop	r16
     b84:	0c 94 3a 05 	jmp	0xa74	; 0xa74 <game_over>
     b88:	81 e0       	ldi	r24, 0x01	; 1
     b8a:	f8 01       	movw	r30, r16
     b8c:	87 83       	std	Z+7, r24	; 0x07
     b8e:	df 91       	pop	r29
     b90:	cf 91       	pop	r28
     b92:	1f 91       	pop	r17
     b94:	0f 91       	pop	r16
     b96:	08 95       	ret

00000b98 <print_game_status>:
     b98:	cf 93       	push	r28
     b9a:	df 93       	push	r29
     b9c:	82 ef       	ldi	r24, 0xF2	; 242
     b9e:	91 e0       	ldi	r25, 0x01	; 1
     ba0:	9f 93       	push	r25
     ba2:	8f 93       	push	r24
     ba4:	0e 94 c3 15 	call	0x2b86	; 0x2b86 <printf>
     ba8:	8b e2       	ldi	r24, 0x2B	; 43
     baa:	92 e0       	ldi	r25, 0x02	; 2
     bac:	9f 93       	push	r25
     bae:	8f 93       	push	r24
     bb0:	81 e3       	ldi	r24, 0x31	; 49
     bb2:	92 e0       	ldi	r25, 0x02	; 2
     bb4:	9f 93       	push	r25
     bb6:	8f 93       	push	r24
     bb8:	8b e3       	ldi	r24, 0x3B	; 59
     bba:	92 e0       	ldi	r25, 0x02	; 2
     bbc:	9f 93       	push	r25
     bbe:	8f 93       	push	r24
     bc0:	0e 94 c3 15 	call	0x2b86	; 0x2b86 <printf>
     bc4:	8f e4       	ldi	r24, 0x4F	; 79
     bc6:	92 e0       	ldi	r25, 0x02	; 2
     bc8:	9f 93       	push	r25
     bca:	8f 93       	push	r24
     bcc:	0e 94 c3 15 	call	0x2b86	; 0x2b86 <printf>
     bd0:	8d b7       	in	r24, 0x3d	; 61
     bd2:	9e b7       	in	r25, 0x3e	; 62
     bd4:	0a 96       	adiw	r24, 0x0a	; 10
     bd6:	0f b6       	in	r0, 0x3f	; 63
     bd8:	f8 94       	cli
     bda:	9e bf       	out	0x3e, r25	; 62
     bdc:	0f be       	out	0x3f, r0	; 63
     bde:	8d bf       	out	0x3d, r24	; 61
     be0:	80 91 b7 03 	lds	r24, 0x03B7	; 0x8003b7 <main_game+0x1>
     be4:	88 23       	and	r24, r24
     be6:	19 f0       	breq	.+6      	; 0xbee <print_game_status+0x56>
     be8:	86 ee       	ldi	r24, 0xE6	; 230
     bea:	91 e0       	ldi	r25, 0x01	; 1
     bec:	02 c0       	rjmp	.+4      	; 0xbf2 <print_game_status+0x5a>
     bee:	81 ee       	ldi	r24, 0xE1	; 225
     bf0:	91 e0       	ldi	r25, 0x01	; 1
     bf2:	9f 93       	push	r25
     bf4:	8f 93       	push	r24
     bf6:	82 e7       	ldi	r24, 0x72	; 114
     bf8:	92 e0       	ldi	r25, 0x02	; 2
     bfa:	9f 93       	push	r25
     bfc:	8f 93       	push	r24
     bfe:	8b e3       	ldi	r24, 0x3B	; 59
     c00:	92 e0       	ldi	r25, 0x02	; 2
     c02:	9f 93       	push	r25
     c04:	8f 93       	push	r24
     c06:	0e 94 c3 15 	call	0x2b86	; 0x2b86 <printf>
     c0a:	80 91 b6 03 	lds	r24, 0x03B6	; 0x8003b6 <main_game>
     c0e:	1f 92       	push	r1
     c10:	8f 93       	push	r24
     c12:	8d e7       	ldi	r24, 0x7D	; 125
     c14:	92 e0       	ldi	r25, 0x02	; 2
     c16:	9f 93       	push	r25
     c18:	8f 93       	push	r24
     c1a:	c3 e8       	ldi	r28, 0x83	; 131
     c1c:	d2 e0       	ldi	r29, 0x02	; 2
     c1e:	df 93       	push	r29
     c20:	cf 93       	push	r28
     c22:	0e 94 c3 15 	call	0x2b86	; 0x2b86 <printf>
     c26:	80 91 ba 03 	lds	r24, 0x03BA	; 0x8003ba <main_game+0x4>
     c2a:	8f 93       	push	r24
     c2c:	80 91 b9 03 	lds	r24, 0x03B9	; 0x8003b9 <main_game+0x3>
     c30:	8f 93       	push	r24
     c32:	87 e9       	ldi	r24, 0x97	; 151
     c34:	92 e0       	ldi	r25, 0x02	; 2
     c36:	9f 93       	push	r25
     c38:	8f 93       	push	r24
     c3a:	df 93       	push	r29
     c3c:	cf 93       	push	r28
     c3e:	0e 94 c3 15 	call	0x2b86	; 0x2b86 <printf>
     c42:	8d b7       	in	r24, 0x3d	; 61
     c44:	9e b7       	in	r25, 0x3e	; 62
     c46:	42 96       	adiw	r24, 0x12	; 18
     c48:	0f b6       	in	r0, 0x3f	; 63
     c4a:	f8 94       	cli
     c4c:	9e bf       	out	0x3e, r25	; 62
     c4e:	0f be       	out	0x3f, r0	; 63
     c50:	8d bf       	out	0x3d, r24	; 61
     c52:	80 91 b8 03 	lds	r24, 0x03B8	; 0x8003b8 <main_game+0x2>
     c56:	81 11       	cpse	r24, r1
     c58:	03 c0       	rjmp	.+6      	; 0xc60 <print_game_status+0xc8>
     c5a:	8f ee       	ldi	r24, 0xEF	; 239
     c5c:	91 e0       	ldi	r25, 0x01	; 1
     c5e:	02 c0       	rjmp	.+4      	; 0xc64 <print_game_status+0xcc>
     c60:	8b ee       	ldi	r24, 0xEB	; 235
     c62:	91 e0       	ldi	r25, 0x01	; 1
     c64:	9f 93       	push	r25
     c66:	8f 93       	push	r24
     c68:	8d e9       	ldi	r24, 0x9D	; 157
     c6a:	92 e0       	ldi	r25, 0x02	; 2
     c6c:	9f 93       	push	r25
     c6e:	8f 93       	push	r24
     c70:	8b e3       	ldi	r24, 0x3B	; 59
     c72:	92 e0       	ldi	r25, 0x02	; 2
     c74:	9f 93       	push	r25
     c76:	8f 93       	push	r24
     c78:	0e 94 c3 15 	call	0x2b86	; 0x2b86 <printf>
     c7c:	88 ea       	ldi	r24, 0xA8	; 168
     c7e:	92 e0       	ldi	r25, 0x02	; 2
     c80:	9f 93       	push	r25
     c82:	8f 93       	push	r24
     c84:	0e 94 c3 15 	call	0x2b86	; 0x2b86 <printf>
     c88:	8d b7       	in	r24, 0x3d	; 61
     c8a:	9e b7       	in	r25, 0x3e	; 62
     c8c:	08 96       	adiw	r24, 0x08	; 8
     c8e:	0f b6       	in	r0, 0x3f	; 63
     c90:	f8 94       	cli
     c92:	9e bf       	out	0x3e, r25	; 62
     c94:	0f be       	out	0x3f, r0	; 63
     c96:	8d bf       	out	0x3d, r24	; 61
     c98:	df 91       	pop	r29
     c9a:	cf 91       	pop	r28
     c9c:	08 95       	ret

00000c9e <add_lives>:
     c9e:	fc 01       	movw	r30, r24
     ca0:	90 81       	ld	r25, Z
     ca2:	99 30       	cpi	r25, 0x09	; 9
     ca4:	19 f4       	brne	.+6      	; 0xcac <add_lives+0xe>
     ca6:	81 e0       	ldi	r24, 0x01	; 1
     ca8:	80 83       	st	Z, r24
     caa:	08 95       	ret
     cac:	9f 5f       	subi	r25, 0xFF	; 255
     cae:	90 83       	st	Z, r25
     cb0:	08 95       	ret

00000cb2 <add_sensitivity>:
     cb2:	fc 01       	movw	r30, r24
     cb4:	95 81       	ldd	r25, Z+5	; 0x05
     cb6:	99 30       	cpi	r25, 0x09	; 9
     cb8:	19 f4       	brne	.+6      	; 0xcc0 <add_sensitivity+0xe>
     cba:	81 e0       	ldi	r24, 0x01	; 1
     cbc:	85 83       	std	Z+5, r24	; 0x05
     cbe:	08 95       	ret
     cc0:	9f 5f       	subi	r25, 0xFF	; 255
     cc2:	95 83       	std	Z+5, r25	; 0x05
     cc4:	08 95       	ret

00000cc6 <add_difficulty>:
     cc6:	fc 01       	movw	r30, r24
     cc8:	91 81       	ldd	r25, Z+1	; 0x01
     cca:	92 30       	cpi	r25, 0x02	; 2
     ccc:	11 f4       	brne	.+4      	; 0xcd2 <add_difficulty+0xc>
     cce:	11 82       	std	Z+1, r1	; 0x01
     cd0:	08 95       	ret
     cd2:	9f 5f       	subi	r25, 0xFF	; 255
     cd4:	91 83       	std	Z+1, r25	; 0x01
     cd6:	08 95       	ret

00000cd8 <reset_settings>:
     cd8:	fc 01       	movw	r30, r24
     cda:	85 e0       	ldi	r24, 0x05	; 5
     cdc:	80 83       	st	Z, r24
     cde:	85 83       	std	Z+5, r24	; 0x05
     ce0:	11 82       	std	Z+1, r1	; 0x01
     ce2:	08 95       	ret

00000ce4 <clear_highscore_list>:
     ce4:	cf 93       	push	r28
     ce6:	df 93       	push	r29
     ce8:	c0 e0       	ldi	r28, 0x00	; 0
     cea:	d4 e0       	ldi	r29, 0x04	; 4
     cec:	60 e0       	ldi	r22, 0x00	; 0
     cee:	ce 01       	movw	r24, r28
     cf0:	0e 94 55 15 	call	0x2aaa	; 0x2aaa <SRAM_write>
     cf4:	60 e0       	ldi	r22, 0x00	; 0
     cf6:	ce 01       	movw	r24, r28
     cf8:	01 96       	adiw	r24, 0x01	; 1
     cfa:	0e 94 55 15 	call	0x2aaa	; 0x2aaa <SRAM_write>
     cfe:	22 96       	adiw	r28, 0x02	; 2
     d00:	c8 32       	cpi	r28, 0x28	; 40
     d02:	84 e0       	ldi	r24, 0x04	; 4
     d04:	d8 07       	cpc	r29, r24
     d06:	91 f7       	brne	.-28     	; 0xcec <clear_highscore_list+0x8>
     d08:	df 91       	pop	r29
     d0a:	cf 91       	pop	r28
     d0c:	08 95       	ret

00000d0e <get_highscore_value>:
     d0e:	1f 93       	push	r17
     d10:	cf 93       	push	r28
     d12:	df 93       	push	r29
     d14:	c8 2f       	mov	r28, r24
     d16:	d0 e0       	ldi	r29, 0x00	; 0
     d18:	de 5f       	subi	r29, 0xFE	; 254
     d1a:	cc 0f       	add	r28, r28
     d1c:	dd 1f       	adc	r29, r29
     d1e:	ce 01       	movw	r24, r28
     d20:	0e 94 65 15 	call	0x2aca	; 0x2aca <SRAM_read>
     d24:	18 2f       	mov	r17, r24
     d26:	ce 01       	movw	r24, r28
     d28:	01 96       	adiw	r24, 0x01	; 1
     d2a:	0e 94 65 15 	call	0x2aca	; 0x2aca <SRAM_read>
     d2e:	90 e0       	ldi	r25, 0x00	; 0
     d30:	98 2f       	mov	r25, r24
     d32:	88 27       	eor	r24, r24
     d34:	81 0f       	add	r24, r17
     d36:	91 1d       	adc	r25, r1
     d38:	df 91       	pop	r29
     d3a:	cf 91       	pop	r28
     d3c:	1f 91       	pop	r17
     d3e:	08 95       	ret

00000d40 <place_highscore_value>:
     d40:	ef 92       	push	r14
     d42:	ff 92       	push	r15
     d44:	0f 93       	push	r16
     d46:	1f 93       	push	r17
     d48:	cf 93       	push	r28
     d4a:	df 93       	push	r29
     d4c:	7b 01       	movw	r14, r22
     d4e:	c8 2f       	mov	r28, r24
     d50:	d0 e0       	ldi	r29, 0x00	; 0
     d52:	de 5f       	subi	r29, 0xFE	; 254
     d54:	cc 0f       	add	r28, r28
     d56:	dd 1f       	adc	r29, r29
     d58:	cb 01       	movw	r24, r22
     d5a:	99 27       	eor	r25, r25
     d5c:	0f ef       	ldi	r16, 0xFF	; 255
     d5e:	10 e0       	ldi	r17, 0x00	; 0
     d60:	b8 01       	movw	r22, r16
     d62:	0e 94 a9 15 	call	0x2b52	; 0x2b52 <__divmodhi4>
     d66:	68 2f       	mov	r22, r24
     d68:	ce 01       	movw	r24, r28
     d6a:	0e 94 55 15 	call	0x2aaa	; 0x2aaa <SRAM_write>
     d6e:	c7 01       	movw	r24, r14
     d70:	b8 01       	movw	r22, r16
     d72:	0e 94 95 15 	call	0x2b2a	; 0x2b2a <__udivmodhi4>
     d76:	ce 01       	movw	r24, r28
     d78:	01 96       	adiw	r24, 0x01	; 1
     d7a:	df 91       	pop	r29
     d7c:	cf 91       	pop	r28
     d7e:	1f 91       	pop	r17
     d80:	0f 91       	pop	r16
     d82:	ff 90       	pop	r15
     d84:	ef 90       	pop	r14
     d86:	0c 94 55 15 	jmp	0x2aaa	; 0x2aaa <SRAM_write>

00000d8a <update_highscore_list>:
     d8a:	df 92       	push	r13
     d8c:	ef 92       	push	r14
     d8e:	ff 92       	push	r15
     d90:	0f 93       	push	r16
     d92:	1f 93       	push	r17
     d94:	cf 93       	push	r28
     d96:	df 93       	push	r29
     d98:	7c 01       	movw	r14, r24
     d9a:	c0 e0       	ldi	r28, 0x00	; 0
     d9c:	d0 e0       	ldi	r29, 0x00	; 0
     d9e:	dc 2e       	mov	r13, r28
     da0:	8c 2f       	mov	r24, r28
     da2:	0e 94 87 06 	call	0xd0e	; 0xd0e <get_highscore_value>
     da6:	8e 15       	cp	r24, r14
     da8:	9f 05       	cpc	r25, r15
     daa:	18 f4       	brcc	.+6      	; 0xdb2 <update_highscore_list+0x28>
     dac:	02 e1       	ldi	r16, 0x12	; 18
     dae:	10 e0       	ldi	r17, 0x00	; 0
     db0:	0c c0       	rjmp	.+24     	; 0xdca <update_highscore_list+0x40>
     db2:	21 96       	adiw	r28, 0x01	; 1
     db4:	c3 31       	cpi	r28, 0x13	; 19
     db6:	d1 05       	cpc	r29, r1
     db8:	91 f7       	brne	.-28     	; 0xd9e <update_highscore_list+0x14>
     dba:	df 91       	pop	r29
     dbc:	cf 91       	pop	r28
     dbe:	1f 91       	pop	r17
     dc0:	0f 91       	pop	r16
     dc2:	ff 90       	pop	r15
     dc4:	ef 90       	pop	r14
     dc6:	df 90       	pop	r13
     dc8:	08 95       	ret
     dca:	c0 17       	cp	r28, r16
     dcc:	d1 07       	cpc	r29, r17
     dce:	5c f4       	brge	.+22     	; 0xde6 <update_highscore_list+0x5c>
     dd0:	8f ef       	ldi	r24, 0xFF	; 255
     dd2:	80 0f       	add	r24, r16
     dd4:	0e 94 87 06 	call	0xd0e	; 0xd0e <get_highscore_value>
     dd8:	bc 01       	movw	r22, r24
     dda:	80 2f       	mov	r24, r16
     ddc:	0e 94 a0 06 	call	0xd40	; 0xd40 <place_highscore_value>
     de0:	01 50       	subi	r16, 0x01	; 1
     de2:	11 09       	sbc	r17, r1
     de4:	f2 cf       	rjmp	.-28     	; 0xdca <update_highscore_list+0x40>
     de6:	b7 01       	movw	r22, r14
     de8:	8d 2d       	mov	r24, r13
     dea:	df 91       	pop	r29
     dec:	cf 91       	pop	r28
     dee:	1f 91       	pop	r17
     df0:	0f 91       	pop	r16
     df2:	ff 90       	pop	r15
     df4:	ef 90       	pop	r14
     df6:	df 90       	pop	r13
     df8:	0c 94 a0 06 	jmp	0xd40	; 0xd40 <place_highscore_value>

00000dfc <highscore_to_SRAM>:
     dfc:	4f 92       	push	r4
     dfe:	5f 92       	push	r5
     e00:	6f 92       	push	r6
     e02:	7f 92       	push	r7
     e04:	8f 92       	push	r8
     e06:	9f 92       	push	r9
     e08:	af 92       	push	r10
     e0a:	bf 92       	push	r11
     e0c:	cf 92       	push	r12
     e0e:	df 92       	push	r13
     e10:	ef 92       	push	r14
     e12:	ff 92       	push	r15
     e14:	0f 93       	push	r16
     e16:	1f 93       	push	r17
     e18:	cf 93       	push	r28
     e1a:	df 93       	push	r29
     e1c:	cd b7       	in	r28, 0x3d	; 61
     e1e:	de b7       	in	r29, 0x3e	; 62
     e20:	6d b6       	in	r6, 0x3d	; 61
     e22:	7e b6       	in	r7, 0x3e	; 62
     e24:	55 24       	eor	r5, r5
     e26:	53 94       	inc	r5
     e28:	81 11       	cpse	r24, r1
     e2a:	51 2c       	mov	r5, r1
     e2c:	44 24       	eor	r4, r4
     e2e:	4a 94       	dec	r4
     e30:	48 0e       	add	r4, r24
     e32:	ad b6       	in	r10, 0x3d	; 61
     e34:	be b6       	in	r11, 0x3e	; 62
     e36:	84 2d       	mov	r24, r4
     e38:	85 0d       	add	r24, r5
     e3a:	0e 94 87 06 	call	0xd0e	; 0xd0e <get_highscore_value>
     e3e:	6c 01       	movw	r12, r24
     e40:	0e 94 1c 15 	call	0x2a38	; 0x2a38 <count_digits>
     e44:	08 2f       	mov	r16, r24
     e46:	10 e0       	ldi	r17, 0x00	; 0
     e48:	98 01       	movw	r18, r16
     e4a:	2f 5f       	subi	r18, 0xFF	; 255
     e4c:	3f 4f       	sbci	r19, 0xFF	; 255
     e4e:	4d b7       	in	r20, 0x3d	; 61
     e50:	5e b7       	in	r21, 0x3e	; 62
     e52:	42 1b       	sub	r20, r18
     e54:	53 0b       	sbc	r21, r19
     e56:	0f b6       	in	r0, 0x3f	; 63
     e58:	f8 94       	cli
     e5a:	5e bf       	out	0x3e, r21	; 62
     e5c:	0f be       	out	0x3f, r0	; 63
     e5e:	4d bf       	out	0x3d, r20	; 61
     e60:	ed b7       	in	r30, 0x3d	; 61
     e62:	fe b7       	in	r31, 0x3e	; 62
     e64:	31 96       	adiw	r30, 0x01	; 1
     e66:	7f 01       	movw	r14, r30
     e68:	48 2f       	mov	r20, r24
     e6a:	bf 01       	movw	r22, r30
     e6c:	c6 01       	movw	r24, r12
     e6e:	0e 94 2e 15 	call	0x2a5c	; 0x2a5c <number_to_chars>
     e72:	0e 0d       	add	r16, r14
     e74:	1f 1d       	adc	r17, r15
     e76:	8f e0       	ldi	r24, 0x0F	; 15
     e78:	c8 2e       	mov	r12, r24
     e7a:	d1 2c       	mov	r13, r1
     e7c:	85 2c       	mov	r8, r5
     e7e:	91 2c       	mov	r9, r1
     e80:	0e 15       	cp	r16, r14
     e82:	1f 05       	cpc	r17, r15
     e84:	61 f0       	breq	.+24     	; 0xe9e <highscore_to_SRAM+0xa2>
     e86:	f8 01       	movw	r30, r16
     e88:	42 91       	ld	r20, -Z
     e8a:	8f 01       	movw	r16, r30
     e8c:	50 e0       	ldi	r21, 0x00	; 0
     e8e:	b6 01       	movw	r22, r12
     e90:	c4 01       	movw	r24, r8
     e92:	0e 94 a5 0f 	call	0x1f4a	; 0x1f4a <oled_write_char_to_SRAM>
     e96:	f1 e0       	ldi	r31, 0x01	; 1
     e98:	cf 1a       	sub	r12, r31
     e9a:	d1 08       	sbc	r13, r1
     e9c:	f1 cf       	rjmp	.-30     	; 0xe80 <highscore_to_SRAM+0x84>
     e9e:	0f b6       	in	r0, 0x3f	; 63
     ea0:	f8 94       	cli
     ea2:	be be       	out	0x3e, r11	; 62
     ea4:	0f be       	out	0x3f, r0	; 63
     ea6:	ad be       	out	0x3d, r10	; 61
     ea8:	53 94       	inc	r5
     eaa:	28 e0       	ldi	r18, 0x08	; 8
     eac:	52 12       	cpse	r5, r18
     eae:	c1 cf       	rjmp	.-126    	; 0xe32 <highscore_to_SRAM+0x36>
     eb0:	0f b6       	in	r0, 0x3f	; 63
     eb2:	f8 94       	cli
     eb4:	7e be       	out	0x3e, r7	; 62
     eb6:	0f be       	out	0x3f, r0	; 63
     eb8:	6d be       	out	0x3d, r6	; 61
     eba:	df 91       	pop	r29
     ebc:	cf 91       	pop	r28
     ebe:	1f 91       	pop	r17
     ec0:	0f 91       	pop	r16
     ec2:	ff 90       	pop	r15
     ec4:	ef 90       	pop	r14
     ec6:	df 90       	pop	r13
     ec8:	cf 90       	pop	r12
     eca:	bf 90       	pop	r11
     ecc:	af 90       	pop	r10
     ece:	9f 90       	pop	r9
     ed0:	8f 90       	pop	r8
     ed2:	7f 90       	pop	r7
     ed4:	6f 90       	pop	r6
     ed6:	5f 90       	pop	r5
     ed8:	4f 90       	pop	r4
     eda:	08 95       	ret

00000edc <system_init>:
     edc:	0f 93       	push	r16
     ede:	1f 93       	push	r17
     ee0:	cf 93       	push	r28
     ee2:	df 93       	push	r29
     ee4:	ec 01       	movw	r28, r24
     ee6:	8b 01       	movw	r16, r22
     ee8:	8f e1       	ldi	r24, 0x1F	; 31
     eea:	90 e0       	ldi	r25, 0x00	; 0
     eec:	0e 94 db 04 	call	0x9b6	; 0x9b6 <UART_Init>
     ef0:	0e 94 f9 04 	call	0x9f2	; 0x9f2 <URAT_initStudio>
     ef4:	0e 94 04 05 	call	0xa08	; 0xa08 <UART_EnableReceiveInterrupt>
     ef8:	0e 94 12 15 	call	0x2a24	; 0x2a24 <setup_timer>
     efc:	80 e0       	ldi	r24, 0x00	; 0
     efe:	0e 94 65 03 	call	0x6ca	; 0x6ca <CAN_Init>
     f02:	81 ee       	ldi	r24, 0xE1	; 225
     f04:	92 e0       	ldi	r25, 0x02	; 2
     f06:	9f 93       	push	r25
     f08:	8f 93       	push	r24
     f0a:	0e 94 c3 15 	call	0x2b86	; 0x2b86 <printf>
     f0e:	0e 94 46 15 	call	0x2a8c	; 0x2a8c <externalMemoryInit>
     f12:	0e 94 3d 0c 	call	0x187a	; 0x187a <initialize_menus>
     f16:	c8 01       	movw	r24, r16
     f18:	0e 94 72 0c 	call	0x18e4	; 0x18e4 <MultiBoard_Init>
     f1c:	ce 01       	movw	r24, r28
     f1e:	0e 94 13 05 	call	0xa26	; 0xa26 <game_Init>
     f22:	0e 94 bc 0e 	call	0x1d78	; 0x1d78 <oled_init>
     f26:	0e 94 0f 10 	call	0x201e	; 0x201e <oled_clear_screen>
     f2a:	22 e3       	ldi	r18, 0x32	; 50
     f2c:	44 e6       	ldi	r20, 0x64	; 100
     f2e:	6a e0       	ldi	r22, 0x0A	; 10
     f30:	8a e0       	ldi	r24, 0x0A	; 10
     f32:	0e 94 1f 10 	call	0x203e	; 0x203e <oled_draw_line>
     f36:	44 e1       	ldi	r20, 0x14	; 20
     f38:	60 e2       	ldi	r22, 0x20	; 32
     f3a:	80 e4       	ldi	r24, 0x40	; 64
     f3c:	0e 94 80 10 	call	0x2100	; 0x2100 <oled_draw_circle>
     f40:	2e e1       	ldi	r18, 0x1E	; 30
     f42:	48 e2       	ldi	r20, 0x28	; 40
     f44:	64 e1       	ldi	r22, 0x14	; 20
     f46:	84 e1       	ldi	r24, 0x14	; 20
     f48:	0e 94 f0 10 	call	0x21e0	; 0x21e0 <oled_draw_square>
     f4c:	0e 94 fe 0e 	call	0x1dfc	; 0x1dfc <oled_data_from_SRAM>
     f50:	2f e9       	ldi	r18, 0x9F	; 159
     f52:	86 e8       	ldi	r24, 0x86	; 134
     f54:	91 e0       	ldi	r25, 0x01	; 1
     f56:	21 50       	subi	r18, 0x01	; 1
     f58:	80 40       	sbci	r24, 0x00	; 0
     f5a:	90 40       	sbci	r25, 0x00	; 0
     f5c:	e1 f7       	brne	.-8      	; 0xf56 <system_init+0x7a>
     f5e:	00 c0       	rjmp	.+0      	; 0xf60 <system_init+0x84>
     f60:	00 00       	nop
     f62:	0e 94 03 04 	call	0x806	; 0x806 <CAN_Check_startup>
     f66:	78 94       	sei
     f68:	0f 90       	pop	r0
     f6a:	0f 90       	pop	r0
     f6c:	df 91       	pop	r29
     f6e:	cf 91       	pop	r28
     f70:	1f 91       	pop	r17
     f72:	0f 91       	pop	r16
     f74:	08 95       	ret

00000f76 <main>:
     f76:	69 e9       	ldi	r22, 0x99	; 153
     f78:	73 e0       	ldi	r23, 0x03	; 3
     f7a:	86 eb       	ldi	r24, 0xB6	; 182
     f7c:	93 e0       	ldi	r25, 0x03	; 3
     f7e:	0e 94 6e 07 	call	0xedc	; 0xedc <system_init>
     f82:	84 ec       	ldi	r24, 0xC4	; 196
     f84:	93 e0       	ldi	r25, 0x03	; 3
     f86:	90 93 95 03 	sts	0x0395, r25	; 0x800395 <current_menu+0x1>
     f8a:	80 93 94 03 	sts	0x0394, r24	; 0x800394 <current_menu>
     f8e:	0e 94 d4 08 	call	0x11a8	; 0x11a8 <write_menu_oled_to_SRAM>
     f92:	0e 94 cc 05 	call	0xb98	; 0xb98 <print_game_status>
     f96:	0e 94 72 06 	call	0xce4	; 0xce4 <clear_highscore_list>
     f9a:	85 e4       	ldi	r24, 0x45	; 69
     f9c:	90 e0       	ldi	r25, 0x00	; 0
     f9e:	0e 94 c5 06 	call	0xd8a	; 0xd8a <update_highscore_list>
     fa2:	84 ea       	ldi	r24, 0xA4	; 164
     fa4:	91 e0       	ldi	r25, 0x01	; 1
     fa6:	0e 94 c5 06 	call	0xd8a	; 0xd8a <update_highscore_list>
     faa:	82 ed       	ldi	r24, 0xD2	; 210
     fac:	94 e0       	ldi	r25, 0x04	; 4
     fae:	0e 94 c5 06 	call	0xd8a	; 0xd8a <update_highscore_list>
     fb2:	89 e3       	ldi	r24, 0x39	; 57
     fb4:	90 e3       	ldi	r25, 0x30	; 48
     fb6:	0e 94 c5 06 	call	0xd8a	; 0xd8a <update_highscore_list>
     fba:	78 94       	sei
     fbc:	60 91 94 03 	lds	r22, 0x0394	; 0x800394 <current_menu>
     fc0:	70 91 95 03 	lds	r23, 0x0395	; 0x800395 <current_menu+0x1>
     fc4:	89 e9       	ldi	r24, 0x99	; 153
     fc6:	93 e0       	ldi	r25, 0x03	; 3
     fc8:	0e 94 15 0c 	call	0x182a	; 0x182a <menu_navigate>
     fcc:	80 91 93 03 	lds	r24, 0x0393	; 0x800393 <screen_count>
     fd0:	82 30       	cpi	r24, 0x02	; 2
     fd2:	a0 f3       	brcs	.-24     	; 0xfbc <main+0x46>
     fd4:	0e 94 fe 0e 	call	0x1dfc	; 0x1dfc <oled_data_from_SRAM>
     fd8:	10 92 93 03 	sts	0x0393, r1	; 0x800393 <screen_count>
     fdc:	ef cf       	rjmp	.-34     	; 0xfbc <main+0x46>

00000fde <__vector_1>:
     fde:	1f 92       	push	r1
     fe0:	0f 92       	push	r0
     fe2:	0f b6       	in	r0, 0x3f	; 63
     fe4:	0f 92       	push	r0
     fe6:	11 24       	eor	r1, r1
     fe8:	2f 93       	push	r18
     fea:	3f 93       	push	r19
     fec:	4f 93       	push	r20
     fee:	5f 93       	push	r21
     ff0:	6f 93       	push	r22
     ff2:	7f 93       	push	r23
     ff4:	8f 93       	push	r24
     ff6:	9f 93       	push	r25
     ff8:	af 93       	push	r26
     ffa:	bf 93       	push	r27
     ffc:	ef 93       	push	r30
     ffe:	ff 93       	push	r31
    1000:	cf 93       	push	r28
    1002:	df 93       	push	r29
    1004:	cd b7       	in	r28, 0x3d	; 61
    1006:	de b7       	in	r29, 0x3e	; 62
    1008:	2b 97       	sbiw	r28, 0x0b	; 11
    100a:	de bf       	out	0x3e, r29	; 62
    100c:	cd bf       	out	0x3d, r28	; 61
    100e:	ce 01       	movw	r24, r28
    1010:	01 96       	adiw	r24, 0x01	; 1
    1012:	0e 94 be 03 	call	0x77c	; 0x77c <CAN_ReceiveMessage>
    1016:	8a 81       	ldd	r24, Y+2	; 0x02
    1018:	8f 93       	push	r24
    101a:	89 81       	ldd	r24, Y+1	; 0x01
    101c:	8f 93       	push	r24
    101e:	85 ee       	ldi	r24, 0xE5	; 229
    1020:	92 e0       	ldi	r25, 0x02	; 2
    1022:	9f 93       	push	r25
    1024:	8f 93       	push	r24
    1026:	0e 94 c3 15 	call	0x2b86	; 0x2b86 <printf>
    102a:	be 01       	movw	r22, r28
    102c:	6f 5f       	subi	r22, 0xFF	; 255
    102e:	7f 4f       	sbci	r23, 0xFF	; 255
    1030:	86 eb       	ldi	r24, 0xB6	; 182
    1032:	93 e0       	ldi	r25, 0x03	; 3
    1034:	0e 94 8c 05 	call	0xb18	; 0xb18 <game_Recive>
    1038:	0f 90       	pop	r0
    103a:	0f 90       	pop	r0
    103c:	0f 90       	pop	r0
    103e:	0f 90       	pop	r0
    1040:	2b 96       	adiw	r28, 0x0b	; 11
    1042:	0f b6       	in	r0, 0x3f	; 63
    1044:	f8 94       	cli
    1046:	de bf       	out	0x3e, r29	; 62
    1048:	0f be       	out	0x3f, r0	; 63
    104a:	cd bf       	out	0x3d, r28	; 61
    104c:	df 91       	pop	r29
    104e:	cf 91       	pop	r28
    1050:	ff 91       	pop	r31
    1052:	ef 91       	pop	r30
    1054:	bf 91       	pop	r27
    1056:	af 91       	pop	r26
    1058:	9f 91       	pop	r25
    105a:	8f 91       	pop	r24
    105c:	7f 91       	pop	r23
    105e:	6f 91       	pop	r22
    1060:	5f 91       	pop	r21
    1062:	4f 91       	pop	r20
    1064:	3f 91       	pop	r19
    1066:	2f 91       	pop	r18
    1068:	0f 90       	pop	r0
    106a:	0f be       	out	0x3f, r0	; 63
    106c:	0f 90       	pop	r0
    106e:	1f 90       	pop	r1
    1070:	18 95       	reti

00001072 <__vector_15>:
    1072:	1f 92       	push	r1
    1074:	0f 92       	push	r0
    1076:	0f b6       	in	r0, 0x3f	; 63
    1078:	0f 92       	push	r0
    107a:	11 24       	eor	r1, r1
    107c:	2f 93       	push	r18
    107e:	3f 93       	push	r19
    1080:	4f 93       	push	r20
    1082:	5f 93       	push	r21
    1084:	6f 93       	push	r22
    1086:	7f 93       	push	r23
    1088:	8f 93       	push	r24
    108a:	9f 93       	push	r25
    108c:	af 93       	push	r26
    108e:	bf 93       	push	r27
    1090:	ef 93       	push	r30
    1092:	ff 93       	push	r31
    1094:	80 91 93 03 	lds	r24, 0x0393	; 0x800393 <screen_count>
    1098:	8f 5f       	subi	r24, 0xFF	; 255
    109a:	80 93 93 03 	sts	0x0393, r24	; 0x800393 <screen_count>
    109e:	80 91 92 03 	lds	r24, 0x0392	; 0x800392 <menu_pos_count>
    10a2:	8f 5f       	subi	r24, 0xFF	; 255
    10a4:	80 93 92 03 	sts	0x0392, r24	; 0x800392 <menu_pos_count>
    10a8:	80 91 8c 03 	lds	r24, 0x038C	; 0x80038c <count_fake_proc>
    10ac:	88 23       	and	r24, r24
    10ae:	49 f0       	breq	.+18     	; 0x10c2 <__vector_15+0x50>
    10b0:	80 91 8d 03 	lds	r24, 0x038D	; 0x80038d <fake_proc_time>
    10b4:	90 91 8e 03 	lds	r25, 0x038E	; 0x80038e <fake_proc_time+0x1>
    10b8:	01 96       	adiw	r24, 0x01	; 1
    10ba:	90 93 8e 03 	sts	0x038E, r25	; 0x80038e <fake_proc_time+0x1>
    10be:	80 93 8d 03 	sts	0x038D, r24	; 0x80038d <fake_proc_time>
    10c2:	80 91 b8 03 	lds	r24, 0x03B8	; 0x8003b8 <main_game+0x2>
    10c6:	88 23       	and	r24, r24
    10c8:	21 f1       	breq	.+72     	; 0x1112 <__vector_15+0xa0>
    10ca:	80 91 8a 03 	lds	r24, 0x038A	; 0x80038a <__data_end>
    10ce:	90 91 8b 03 	lds	r25, 0x038B	; 0x80038b <__data_end+0x1>
    10d2:	01 96       	adiw	r24, 0x01	; 1
    10d4:	90 93 8b 03 	sts	0x038B, r25	; 0x80038b <__data_end+0x1>
    10d8:	80 93 8a 03 	sts	0x038A, r24	; 0x80038a <__data_end>
    10dc:	6b e4       	ldi	r22, 0x4B	; 75
    10de:	70 e0       	ldi	r23, 0x00	; 0
    10e0:	0e 94 a9 15 	call	0x2b52	; 0x2b52 <__divmodhi4>
    10e4:	89 2b       	or	r24, r25
    10e6:	a9 f4       	brne	.+42     	; 0x1112 <__vector_15+0xa0>
    10e8:	80 91 8f 03 	lds	r24, 0x038F	; 0x80038f <score_counter>
    10ec:	90 91 90 03 	lds	r25, 0x0390	; 0x800390 <score_counter+0x1>
    10f0:	01 96       	adiw	r24, 0x01	; 1
    10f2:	90 93 90 03 	sts	0x0390, r25	; 0x800390 <score_counter+0x1>
    10f6:	80 93 8f 03 	sts	0x038F, r24	; 0x80038f <score_counter>
    10fa:	9f 93       	push	r25
    10fc:	8f 93       	push	r24
    10fe:	80 e0       	ldi	r24, 0x00	; 0
    1100:	93 e0       	ldi	r25, 0x03	; 3
    1102:	9f 93       	push	r25
    1104:	8f 93       	push	r24
    1106:	0e 94 c3 15 	call	0x2b86	; 0x2b86 <printf>
    110a:	0f 90       	pop	r0
    110c:	0f 90       	pop	r0
    110e:	0f 90       	pop	r0
    1110:	0f 90       	pop	r0
    1112:	88 b7       	in	r24, 0x38	; 56
    1114:	80 68       	ori	r24, 0x80	; 128
    1116:	88 bf       	out	0x38, r24	; 56
    1118:	ff 91       	pop	r31
    111a:	ef 91       	pop	r30
    111c:	bf 91       	pop	r27
    111e:	af 91       	pop	r26
    1120:	9f 91       	pop	r25
    1122:	8f 91       	pop	r24
    1124:	7f 91       	pop	r23
    1126:	6f 91       	pop	r22
    1128:	5f 91       	pop	r21
    112a:	4f 91       	pop	r20
    112c:	3f 91       	pop	r19
    112e:	2f 91       	pop	r18
    1130:	0f 90       	pop	r0
    1132:	0f be       	out	0x3f, r0	; 63
    1134:	0f 90       	pop	r0
    1136:	1f 90       	pop	r1
    1138:	18 95       	reti

0000113a <update_menu_position_from_joystick>:
    113a:	fb 01       	movw	r30, r22
    113c:	20 91 92 03 	lds	r18, 0x0392	; 0x800392 <menu_pos_count>
    1140:	28 30       	cpi	r18, 0x08	; 8
    1142:	88 f1       	brcs	.+98     	; 0x11a6 <update_menu_position_from_joystick+0x6c>
    1144:	dc 01       	movw	r26, r24
    1146:	1b 96       	adiw	r26, 0x0b	; 11
    1148:	8d 91       	ld	r24, X+
    114a:	9c 91       	ld	r25, X
    114c:	1c 97       	sbiw	r26, 0x0c	; 12
    114e:	10 92 92 03 	sts	0x0392, r1	; 0x800392 <menu_pos_count>
    1152:	83 33       	cpi	r24, 0x33	; 51
    1154:	91 05       	cpc	r25, r1
    1156:	64 f0       	brlt	.+24     	; 0x1170 <update_menu_position_from_joystick+0x36>
    1158:	82 81       	ldd	r24, Z+2	; 0x02
    115a:	88 23       	and	r24, r24
    115c:	21 f1       	breq	.+72     	; 0x11a6 <update_menu_position_from_joystick+0x6c>
    115e:	83 83       	std	Z+3, r24	; 0x03
    1160:	81 50       	subi	r24, 0x01	; 1
    1162:	82 83       	std	Z+2, r24	; 0x02
    1164:	94 81       	ldd	r25, Z+4	; 0x04
    1166:	89 17       	cp	r24, r25
    1168:	f0 f4       	brcc	.+60     	; 0x11a6 <update_menu_position_from_joystick+0x6c>
    116a:	91 50       	subi	r25, 0x01	; 1
    116c:	94 83       	std	Z+4, r25	; 0x04
    116e:	08 95       	ret
    1170:	8e 3c       	cpi	r24, 0xCE	; 206
    1172:	9f 4f       	sbci	r25, 0xFF	; 255
    1174:	c4 f4       	brge	.+48     	; 0x11a6 <update_menu_position_from_joystick+0x6c>
    1176:	82 81       	ldd	r24, Z+2	; 0x02
    1178:	48 2f       	mov	r20, r24
    117a:	50 e0       	ldi	r21, 0x00	; 0
    117c:	25 81       	ldd	r18, Z+5	; 0x05
    117e:	30 e0       	ldi	r19, 0x00	; 0
    1180:	21 50       	subi	r18, 0x01	; 1
    1182:	31 09       	sbc	r19, r1
    1184:	42 17       	cp	r20, r18
    1186:	53 07       	cpc	r21, r19
    1188:	74 f4       	brge	.+28     	; 0x11a6 <update_menu_position_from_joystick+0x6c>
    118a:	83 83       	std	Z+3, r24	; 0x03
    118c:	8f 5f       	subi	r24, 0xFF	; 255
    118e:	82 83       	std	Z+2, r24	; 0x02
    1190:	24 81       	ldd	r18, Z+4	; 0x04
    1192:	42 2f       	mov	r20, r18
    1194:	50 e0       	ldi	r21, 0x00	; 0
    1196:	49 5f       	subi	r20, 0xF9	; 249
    1198:	5f 4f       	sbci	r21, 0xFF	; 255
    119a:	90 e0       	ldi	r25, 0x00	; 0
    119c:	48 17       	cp	r20, r24
    119e:	59 07       	cpc	r21, r25
    11a0:	14 f4       	brge	.+4      	; 0x11a6 <update_menu_position_from_joystick+0x6c>
    11a2:	2f 5f       	subi	r18, 0xFF	; 255
    11a4:	24 83       	std	Z+4, r18	; 0x04
    11a6:	08 95       	ret

000011a8 <write_menu_oled_to_SRAM>:
    11a8:	2f 92       	push	r2
    11aa:	3f 92       	push	r3
    11ac:	4f 92       	push	r4
    11ae:	5f 92       	push	r5
    11b0:	6f 92       	push	r6
    11b2:	7f 92       	push	r7
    11b4:	8f 92       	push	r8
    11b6:	9f 92       	push	r9
    11b8:	af 92       	push	r10
    11ba:	bf 92       	push	r11
    11bc:	cf 92       	push	r12
    11be:	df 92       	push	r13
    11c0:	ef 92       	push	r14
    11c2:	ff 92       	push	r15
    11c4:	0f 93       	push	r16
    11c6:	1f 93       	push	r17
    11c8:	cf 93       	push	r28
    11ca:	df 93       	push	r29
    11cc:	cd b7       	in	r28, 0x3d	; 61
    11ce:	de b7       	in	r29, 0x3e	; 62
    11d0:	28 97       	sbiw	r28, 0x08	; 8
    11d2:	0f b6       	in	r0, 0x3f	; 63
    11d4:	f8 94       	cli
    11d6:	de bf       	out	0x3e, r29	; 62
    11d8:	0f be       	out	0x3f, r0	; 63
    11da:	cd bf       	out	0x3d, r28	; 61
    11dc:	7c 01       	movw	r14, r24
    11de:	dc 01       	movw	r26, r24
    11e0:	15 96       	adiw	r26, 0x05	; 5
    11e2:	8c 91       	ld	r24, X
    11e4:	89 30       	cpi	r24, 0x09	; 9
    11e6:	08 f0       	brcs	.+2      	; 0x11ea <write_menu_oled_to_SRAM+0x42>
    11e8:	e3 c0       	rjmp	.+454    	; 0x13b0 <write_menu_oled_to_SRAM+0x208>
    11ea:	c8 2e       	mov	r12, r24
    11ec:	d1 2c       	mov	r13, r1
    11ee:	36 01       	movw	r6, r12
    11f0:	74 e0       	ldi	r23, 0x04	; 4
    11f2:	66 0c       	add	r6, r6
    11f4:	77 1c       	adc	r7, r7
    11f6:	7a 95       	dec	r23
    11f8:	e1 f7       	brne	.-8      	; 0x11f2 <write_menu_oled_to_SRAM+0x4a>
    11fa:	a1 2c       	mov	r10, r1
    11fc:	b1 2c       	mov	r11, r1
    11fe:	18 86       	std	Y+8, r1	; 0x08
    1200:	1f 82       	std	Y+7, r1	; 0x07
    1202:	8f 81       	ldd	r24, Y+7	; 0x07
    1204:	98 85       	ldd	r25, Y+8	; 0x08
    1206:	86 15       	cp	r24, r6
    1208:	97 05       	cpc	r25, r7
    120a:	09 f4       	brne	.+2      	; 0x120e <write_menu_oled_to_SRAM+0x66>
    120c:	a5 c0       	rjmp	.+330    	; 0x1358 <write_menu_oled_to_SRAM+0x1b0>
    120e:	d7 01       	movw	r26, r14
    1210:	ed 91       	ld	r30, X+
    1212:	fc 91       	ld	r31, X
    1214:	2f 81       	ldd	r18, Y+7	; 0x07
    1216:	38 85       	ldd	r19, Y+8	; 0x08
    1218:	e2 0f       	add	r30, r18
    121a:	f3 1f       	adc	r31, r19
    121c:	e4 91       	lpm	r30, Z
    121e:	44 e0       	ldi	r20, 0x04	; 4
    1220:	36 95       	lsr	r19
    1222:	27 95       	ror	r18
    1224:	4a 95       	dec	r20
    1226:	e1 f7       	brne	.-8      	; 0x1220 <write_menu_oled_to_SRAM+0x78>
    1228:	3a 83       	std	Y+2, r19	; 0x02
    122a:	29 83       	std	Y+1, r18	; 0x01
    122c:	f0 e0       	ldi	r31, 0x00	; 0
    122e:	b0 97       	sbiw	r30, 0x20	; 32
    1230:	af 01       	movw	r20, r30
    1232:	63 e0       	ldi	r22, 0x03	; 3
    1234:	44 0f       	add	r20, r20
    1236:	55 1f       	adc	r21, r21
    1238:	6a 95       	dec	r22
    123a:	e1 f7       	brne	.-8      	; 0x1234 <write_menu_oled_to_SRAM+0x8c>
    123c:	5c 83       	std	Y+4, r21	; 0x04
    123e:	4b 83       	std	Y+3, r20	; 0x03
    1240:	00 e0       	ldi	r16, 0x00	; 0
    1242:	10 e0       	ldi	r17, 0x00	; 0
    1244:	8f 80       	ldd	r8, Y+7	; 0x07
    1246:	98 84       	ldd	r9, Y+8	; 0x08
    1248:	5f e0       	ldi	r21, 0x0F	; 15
    124a:	85 22       	and	r8, r21
    124c:	99 24       	eor	r9, r9
    124e:	6f 81       	ldd	r22, Y+7	; 0x07
    1250:	78 85       	ldd	r23, Y+8	; 0x08
    1252:	60 51       	subi	r22, 0x10	; 16
    1254:	71 09       	sbc	r23, r1
    1256:	7e 83       	std	Y+6, r23	; 0x06
    1258:	6d 83       	std	Y+5, r22	; 0x05
    125a:	2f 80       	ldd	r2, Y+7	; 0x07
    125c:	38 84       	ldd	r3, Y+8	; 0x08
    125e:	70 e2       	ldi	r23, 0x20	; 32
    1260:	27 1a       	sub	r2, r23
    1262:	31 08       	sbc	r3, r1
    1264:	4f 80       	ldd	r4, Y+7	; 0x07
    1266:	58 84       	ldd	r5, Y+8	; 0x08
    1268:	80 e3       	ldi	r24, 0x30	; 48
    126a:	48 1a       	sub	r4, r24
    126c:	51 08       	sbc	r5, r1
    126e:	d7 01       	movw	r26, r14
    1270:	12 96       	adiw	r26, 0x02	; 2
    1272:	8c 91       	ld	r24, X
    1274:	90 e0       	ldi	r25, 0x00	; 0
    1276:	95 01       	movw	r18, r10
    1278:	20 0f       	add	r18, r16
    127a:	31 1f       	adc	r19, r17
    127c:	e9 81       	ldd	r30, Y+1	; 0x01
    127e:	fa 81       	ldd	r31, Y+2	; 0x02
    1280:	8e 17       	cp	r24, r30
    1282:	9f 07       	cpc	r25, r31
    1284:	39 f4       	brne	.+14     	; 0x1294 <write_menu_oled_to_SRAM+0xec>
    1286:	81 14       	cp	r8, r1
    1288:	91 04       	cpc	r9, r1
    128a:	21 f4       	brne	.+8      	; 0x1294 <write_menu_oled_to_SRAM+0xec>
    128c:	f8 01       	movw	r30, r16
    128e:	ec 57       	subi	r30, 0x7C	; 124
    1290:	fb 4f       	sbci	r31, 0xFB	; 251
    1292:	4e c0       	rjmp	.+156    	; 0x1330 <write_menu_oled_to_SRAM+0x188>
    1294:	91 e0       	ldi	r25, 0x01	; 1
    1296:	ff e0       	ldi	r31, 0x0F	; 15
    1298:	8f 16       	cp	r8, r31
    129a:	91 04       	cpc	r9, r1
    129c:	09 f0       	breq	.+2      	; 0x12a0 <write_menu_oled_to_SRAM+0xf8>
    129e:	90 e0       	ldi	r25, 0x00	; 0
    12a0:	81 e0       	ldi	r24, 0x01	; 1
    12a2:	40 91 96 03 	lds	r20, 0x0396	; 0x800396 <currentMenuState>
    12a6:	42 30       	cpi	r20, 0x02	; 2
    12a8:	09 f0       	breq	.+2      	; 0x12ac <write_menu_oled_to_SRAM+0x104>
    12aa:	80 e0       	ldi	r24, 0x00	; 0
    12ac:	41 e0       	ldi	r20, 0x01	; 1
    12ae:	6d 81       	ldd	r22, Y+5	; 0x05
    12b0:	7e 81       	ldd	r23, Y+6	; 0x06
    12b2:	60 31       	cpi	r22, 0x10	; 16
    12b4:	71 05       	cpc	r23, r1
    12b6:	08 f0       	brcs	.+2      	; 0x12ba <write_menu_oled_to_SRAM+0x112>
    12b8:	40 e0       	ldi	r20, 0x00	; 0
    12ba:	49 23       	and	r20, r25
    12bc:	59 f0       	breq	.+22     	; 0x12d4 <write_menu_oled_to_SRAM+0x12c>
    12be:	88 23       	and	r24, r24
    12c0:	49 f0       	breq	.+18     	; 0x12d4 <write_menu_oled_to_SRAM+0x12c>
    12c2:	80 91 b6 03 	lds	r24, 0x03B6	; 0x8003b6 <main_game>
    12c6:	f8 01       	movw	r30, r16
    12c8:	78 e0       	ldi	r23, 0x08	; 8
    12ca:	87 9f       	mul	r24, r23
    12cc:	e0 0d       	add	r30, r0
    12ce:	f1 1d       	adc	r31, r1
    12d0:	11 24       	eor	r1, r1
    12d2:	25 c0       	rjmp	.+74     	; 0x131e <write_menu_oled_to_SRAM+0x176>
    12d4:	41 e0       	ldi	r20, 0x01	; 1
    12d6:	a0 e1       	ldi	r26, 0x10	; 16
    12d8:	2a 16       	cp	r2, r26
    12da:	31 04       	cpc	r3, r1
    12dc:	08 f0       	brcs	.+2      	; 0x12e0 <write_menu_oled_to_SRAM+0x138>
    12de:	40 e0       	ldi	r20, 0x00	; 0
    12e0:	49 23       	and	r20, r25
    12e2:	59 f0       	breq	.+22     	; 0x12fa <write_menu_oled_to_SRAM+0x152>
    12e4:	88 23       	and	r24, r24
    12e6:	49 f0       	breq	.+18     	; 0x12fa <write_menu_oled_to_SRAM+0x152>
    12e8:	80 91 bb 03 	lds	r24, 0x03BB	; 0x8003bb <main_game+0x5>
    12ec:	f8 01       	movw	r30, r16
    12ee:	b8 e0       	ldi	r27, 0x08	; 8
    12f0:	8b 9f       	mul	r24, r27
    12f2:	e0 0d       	add	r30, r0
    12f4:	f1 1d       	adc	r31, r1
    12f6:	11 24       	eor	r1, r1
    12f8:	12 c0       	rjmp	.+36     	; 0x131e <write_menu_oled_to_SRAM+0x176>
    12fa:	41 e0       	ldi	r20, 0x01	; 1
    12fc:	e0 e1       	ldi	r30, 0x10	; 16
    12fe:	4e 16       	cp	r4, r30
    1300:	51 04       	cpc	r5, r1
    1302:	08 f0       	brcs	.+2      	; 0x1306 <write_menu_oled_to_SRAM+0x15e>
    1304:	40 e0       	ldi	r20, 0x00	; 0
    1306:	94 23       	and	r25, r20
    1308:	69 f0       	breq	.+26     	; 0x1324 <write_menu_oled_to_SRAM+0x17c>
    130a:	88 23       	and	r24, r24
    130c:	59 f0       	breq	.+22     	; 0x1324 <write_menu_oled_to_SRAM+0x17c>
    130e:	80 91 b7 03 	lds	r24, 0x03B7	; 0x8003b7 <main_game+0x1>
    1312:	f8 01       	movw	r30, r16
    1314:	48 e0       	ldi	r20, 0x08	; 8
    1316:	84 9f       	mul	r24, r20
    1318:	e0 0d       	add	r30, r0
    131a:	f1 1d       	adc	r31, r1
    131c:	11 24       	eor	r1, r1
    131e:	ec 5e       	subi	r30, 0xEC	; 236
    1320:	fb 4f       	sbci	r31, 0xFB	; 251
    1322:	06 c0       	rjmp	.+12     	; 0x1330 <write_menu_oled_to_SRAM+0x188>
    1324:	eb 81       	ldd	r30, Y+3	; 0x03
    1326:	fc 81       	ldd	r31, Y+4	; 0x04
    1328:	e0 0f       	add	r30, r16
    132a:	f1 1f       	adc	r31, r17
    132c:	ec 56       	subi	r30, 0x6C	; 108
    132e:	fc 4f       	sbci	r31, 0xFC	; 252
    1330:	64 91       	lpm	r22, Z
    1332:	c9 01       	movw	r24, r18
    1334:	0e 94 55 15 	call	0x2aaa	; 0x2aaa <SRAM_write>
    1338:	0f 5f       	subi	r16, 0xFF	; 255
    133a:	1f 4f       	sbci	r17, 0xFF	; 255
    133c:	08 30       	cpi	r16, 0x08	; 8
    133e:	11 05       	cpc	r17, r1
    1340:	09 f0       	breq	.+2      	; 0x1344 <write_menu_oled_to_SRAM+0x19c>
    1342:	95 cf       	rjmp	.-214    	; 0x126e <write_menu_oled_to_SRAM+0xc6>
    1344:	6f 81       	ldd	r22, Y+7	; 0x07
    1346:	78 85       	ldd	r23, Y+8	; 0x08
    1348:	6f 5f       	subi	r22, 0xFF	; 255
    134a:	7f 4f       	sbci	r23, 0xFF	; 255
    134c:	78 87       	std	Y+8, r23	; 0x08
    134e:	6f 83       	std	Y+7, r22	; 0x07
    1350:	78 e0       	ldi	r23, 0x08	; 8
    1352:	a7 0e       	add	r10, r23
    1354:	b1 1c       	adc	r11, r1
    1356:	55 cf       	rjmp	.-342    	; 0x1202 <write_menu_oled_to_SRAM+0x5a>
    1358:	08 e0       	ldi	r16, 0x08	; 8
    135a:	10 e0       	ldi	r17, 0x00	; 0
    135c:	0c 19       	sub	r16, r12
    135e:	1d 09       	sbc	r17, r13
    1360:	34 e0       	ldi	r19, 0x04	; 4
    1362:	00 0f       	add	r16, r16
    1364:	11 1f       	adc	r17, r17
    1366:	3a 95       	dec	r19
    1368:	e1 f7       	brne	.-8      	; 0x1362 <write_menu_oled_to_SRAM+0x1ba>
    136a:	d1 2c       	mov	r13, r1
    136c:	8d 2d       	mov	r24, r13
    136e:	90 e0       	ldi	r25, 0x00	; 0
    1370:	80 17       	cp	r24, r16
    1372:	91 07       	cpc	r25, r17
    1374:	0c f0       	brlt	.+2      	; 0x1378 <write_menu_oled_to_SRAM+0x1d0>
    1376:	94 c0       	rjmp	.+296    	; 0x14a0 <write_menu_oled_to_SRAM+0x2f8>
    1378:	86 0d       	add	r24, r6
    137a:	97 1d       	adc	r25, r7
    137c:	fc 01       	movw	r30, r24
    137e:	23 e0       	ldi	r18, 0x03	; 3
    1380:	ee 0f       	add	r30, r30
    1382:	ff 1f       	adc	r31, r31
    1384:	2a 95       	dec	r18
    1386:	e1 f7       	brne	.-8      	; 0x1380 <write_menu_oled_to_SRAM+0x1d8>
    1388:	fa 83       	std	Y+2, r31	; 0x02
    138a:	e9 83       	std	Y+1, r30	; 0x01
    138c:	e1 2c       	mov	r14, r1
    138e:	f1 2c       	mov	r15, r1
    1390:	60 e0       	ldi	r22, 0x00	; 0
    1392:	89 81       	ldd	r24, Y+1	; 0x01
    1394:	9a 81       	ldd	r25, Y+2	; 0x02
    1396:	8e 0d       	add	r24, r14
    1398:	9f 1d       	adc	r25, r15
    139a:	0e 94 55 15 	call	0x2aaa	; 0x2aaa <SRAM_write>
    139e:	9f ef       	ldi	r25, 0xFF	; 255
    13a0:	e9 1a       	sub	r14, r25
    13a2:	f9 0a       	sbc	r15, r25
    13a4:	a8 e0       	ldi	r26, 0x08	; 8
    13a6:	ea 16       	cp	r14, r26
    13a8:	f1 04       	cpc	r15, r1
    13aa:	91 f7       	brne	.-28     	; 0x1390 <write_menu_oled_to_SRAM+0x1e8>
    13ac:	d3 94       	inc	r13
    13ae:	de cf       	rjmp	.-68     	; 0x136c <write_menu_oled_to_SRAM+0x1c4>
    13b0:	a1 2c       	mov	r10, r1
    13b2:	b1 2c       	mov	r11, r1
    13b4:	00 e0       	ldi	r16, 0x00	; 0
    13b6:	10 e0       	ldi	r17, 0x00	; 0
    13b8:	d7 01       	movw	r26, r14
    13ba:	14 96       	adiw	r26, 0x04	; 4
    13bc:	8c 91       	ld	r24, X
    13be:	14 97       	sbiw	r26, 0x04	; 4
    13c0:	f8 01       	movw	r30, r16
    13c2:	20 e1       	ldi	r18, 0x10	; 16
    13c4:	82 9f       	mul	r24, r18
    13c6:	e0 0d       	add	r30, r0
    13c8:	f1 1d       	adc	r31, r1
    13ca:	11 24       	eor	r1, r1
    13cc:	cf 01       	movw	r24, r30
    13ce:	ed 91       	ld	r30, X+
    13d0:	fc 91       	ld	r31, X
    13d2:	e8 0f       	add	r30, r24
    13d4:	f9 1f       	adc	r31, r25
    13d6:	34 91       	lpm	r19, Z
    13d8:	38 01       	movw	r6, r16
    13da:	84 e0       	ldi	r24, 0x04	; 4
    13dc:	76 94       	lsr	r7
    13de:	67 94       	ror	r6
    13e0:	8a 95       	dec	r24
    13e2:	e1 f7       	brne	.-8      	; 0x13dc <write_menu_oled_to_SRAM+0x234>
    13e4:	43 2f       	mov	r20, r19
    13e6:	50 e0       	ldi	r21, 0x00	; 0
    13e8:	40 52       	subi	r20, 0x20	; 32
    13ea:	51 09       	sbc	r21, r1
    13ec:	93 e0       	ldi	r25, 0x03	; 3
    13ee:	44 0f       	add	r20, r20
    13f0:	55 1f       	adc	r21, r21
    13f2:	9a 95       	dec	r25
    13f4:	e1 f7       	brne	.-8      	; 0x13ee <write_menu_oled_to_SRAM+0x246>
    13f6:	5a 83       	std	Y+2, r21	; 0x02
    13f8:	49 83       	std	Y+1, r20	; 0x01
    13fa:	c1 2c       	mov	r12, r1
    13fc:	d1 2c       	mov	r13, r1
    13fe:	48 01       	movw	r8, r16
    1400:	6f e0       	ldi	r22, 0x0F	; 15
    1402:	86 22       	and	r8, r22
    1404:	99 24       	eor	r9, r9
    1406:	d7 01       	movw	r26, r14
    1408:	12 96       	adiw	r26, 0x02	; 2
    140a:	2c 91       	ld	r18, X
    140c:	12 97       	sbiw	r26, 0x02	; 2
    140e:	30 e0       	ldi	r19, 0x00	; 0
    1410:	14 96       	adiw	r26, 0x04	; 4
    1412:	8c 91       	ld	r24, X
    1414:	28 1b       	sub	r18, r24
    1416:	31 09       	sbc	r19, r1
    1418:	c6 01       	movw	r24, r12
    141a:	8a 0d       	add	r24, r10
    141c:	9b 1d       	adc	r25, r11
    141e:	26 15       	cp	r18, r6
    1420:	37 05       	cpc	r19, r7
    1422:	39 f4       	brne	.+14     	; 0x1432 <write_menu_oled_to_SRAM+0x28a>
    1424:	81 14       	cp	r8, r1
    1426:	91 04       	cpc	r9, r1
    1428:	21 f4       	brne	.+8      	; 0x1432 <write_menu_oled_to_SRAM+0x28a>
    142a:	f6 01       	movw	r30, r12
    142c:	ec 57       	subi	r30, 0x7C	; 124
    142e:	fb 4f       	sbci	r31, 0xFB	; 251
    1430:	06 c0       	rjmp	.+12     	; 0x143e <write_menu_oled_to_SRAM+0x296>
    1432:	e9 81       	ldd	r30, Y+1	; 0x01
    1434:	fa 81       	ldd	r31, Y+2	; 0x02
    1436:	ec 0d       	add	r30, r12
    1438:	fd 1d       	adc	r31, r13
    143a:	ec 56       	subi	r30, 0x6C	; 108
    143c:	fc 4f       	sbci	r31, 0xFC	; 252
    143e:	64 91       	lpm	r22, Z
    1440:	0e 94 55 15 	call	0x2aaa	; 0x2aaa <SRAM_write>
    1444:	bf ef       	ldi	r27, 0xFF	; 255
    1446:	cb 1a       	sub	r12, r27
    1448:	db 0a       	sbc	r13, r27
    144a:	e8 e0       	ldi	r30, 0x08	; 8
    144c:	ce 16       	cp	r12, r30
    144e:	d1 04       	cpc	r13, r1
    1450:	d1 f6       	brne	.-76     	; 0x1406 <write_menu_oled_to_SRAM+0x25e>
    1452:	0f 5f       	subi	r16, 0xFF	; 255
    1454:	1f 4f       	sbci	r17, 0xFF	; 255
    1456:	f8 e0       	ldi	r31, 0x08	; 8
    1458:	af 0e       	add	r10, r31
    145a:	b1 1c       	adc	r11, r1
    145c:	00 38       	cpi	r16, 0x80	; 128
    145e:	11 05       	cpc	r17, r1
    1460:	09 f0       	breq	.+2      	; 0x1464 <write_menu_oled_to_SRAM+0x2bc>
    1462:	aa cf       	rjmp	.-172    	; 0x13b8 <write_menu_oled_to_SRAM+0x210>
    1464:	d7 01       	movw	r26, r14
    1466:	14 96       	adiw	r26, 0x04	; 4
    1468:	8c 91       	ld	r24, X
    146a:	90 e0       	ldi	r25, 0x00	; 0
    146c:	28 96       	adiw	r28, 0x08	; 8
    146e:	0f b6       	in	r0, 0x3f	; 63
    1470:	f8 94       	cli
    1472:	de bf       	out	0x3e, r29	; 62
    1474:	0f be       	out	0x3f, r0	; 63
    1476:	cd bf       	out	0x3d, r28	; 61
    1478:	df 91       	pop	r29
    147a:	cf 91       	pop	r28
    147c:	1f 91       	pop	r17
    147e:	0f 91       	pop	r16
    1480:	ff 90       	pop	r15
    1482:	ef 90       	pop	r14
    1484:	df 90       	pop	r13
    1486:	cf 90       	pop	r12
    1488:	bf 90       	pop	r11
    148a:	af 90       	pop	r10
    148c:	9f 90       	pop	r9
    148e:	8f 90       	pop	r8
    1490:	7f 90       	pop	r7
    1492:	6f 90       	pop	r6
    1494:	5f 90       	pop	r5
    1496:	4f 90       	pop	r4
    1498:	3f 90       	pop	r3
    149a:	2f 90       	pop	r2
    149c:	0c 94 fe 06 	jmp	0xdfc	; 0xdfc <highscore_to_SRAM>
    14a0:	28 96       	adiw	r28, 0x08	; 8
    14a2:	0f b6       	in	r0, 0x3f	; 63
    14a4:	f8 94       	cli
    14a6:	de bf       	out	0x3e, r29	; 62
    14a8:	0f be       	out	0x3f, r0	; 63
    14aa:	cd bf       	out	0x3d, r28	; 61
    14ac:	df 91       	pop	r29
    14ae:	cf 91       	pop	r28
    14b0:	1f 91       	pop	r17
    14b2:	0f 91       	pop	r16
    14b4:	ff 90       	pop	r15
    14b6:	ef 90       	pop	r14
    14b8:	df 90       	pop	r13
    14ba:	cf 90       	pop	r12
    14bc:	bf 90       	pop	r11
    14be:	af 90       	pop	r10
    14c0:	9f 90       	pop	r9
    14c2:	8f 90       	pop	r8
    14c4:	7f 90       	pop	r7
    14c6:	6f 90       	pop	r6
    14c8:	5f 90       	pop	r5
    14ca:	4f 90       	pop	r4
    14cc:	3f 90       	pop	r3
    14ce:	2f 90       	pop	r2
    14d0:	08 95       	ret

000014d2 <handle_game_screen>:
    14d2:	8f 92       	push	r8
    14d4:	9f 92       	push	r9
    14d6:	bf 92       	push	r11
    14d8:	cf 92       	push	r12
    14da:	df 92       	push	r13
    14dc:	ef 92       	push	r14
    14de:	ff 92       	push	r15
    14e0:	0f 93       	push	r16
    14e2:	1f 93       	push	r17
    14e4:	cf 93       	push	r28
    14e6:	df 93       	push	r29
    14e8:	cd b7       	in	r28, 0x3d	; 61
    14ea:	de b7       	in	r29, 0x3e	; 62
    14ec:	ed b6       	in	r14, 0x3d	; 61
    14ee:	fe b6       	in	r15, 0x3e	; 62
    14f0:	10 91 bc 03 	lds	r17, 0x03BC	; 0x8003bc <main_game+0x6>
    14f4:	84 e8       	ldi	r24, 0x84	; 132
    14f6:	90 e0       	ldi	r25, 0x00	; 0
    14f8:	0e 94 4f 0f 	call	0x1e9e	; 0x1e9e <oled_write_screen_to_SRAM>
    14fc:	81 2f       	mov	r24, r17
    14fe:	90 e0       	ldi	r25, 0x00	; 0
    1500:	8a 30       	cpi	r24, 0x0A	; 10
    1502:	91 05       	cpc	r25, r1
    1504:	00 f5       	brcc	.+64     	; 0x1546 <handle_game_screen+0x74>
    1506:	fc 01       	movw	r30, r24
    1508:	e8 5c       	subi	r30, 0xC8	; 200
    150a:	ff 4f       	sbci	r31, 0xFF	; 255
    150c:	0c 94 bd 15 	jmp	0x2b7a	; 0x2b7a <__tablejump2__>
    1510:	0e 94 aa 11 	call	0x2354	; 0x2354 <draw_number_1>
    1514:	2b c0       	rjmp	.+86     	; 0x156c <handle_game_screen+0x9a>
    1516:	0e 94 b0 11 	call	0x2360	; 0x2360 <draw_number_2>
    151a:	28 c0       	rjmp	.+80     	; 0x156c <handle_game_screen+0x9a>
    151c:	0e 94 ce 11 	call	0x239c	; 0x239c <draw_number_3>
    1520:	25 c0       	rjmp	.+74     	; 0x156c <handle_game_screen+0x9a>
    1522:	0e 94 e6 11 	call	0x23cc	; 0x23cc <draw_number_4>
    1526:	22 c0       	rjmp	.+68     	; 0x156c <handle_game_screen+0x9a>
    1528:	0e 94 f8 11 	call	0x23f0	; 0x23f0 <draw_number_5>
    152c:	1f c0       	rjmp	.+62     	; 0x156c <handle_game_screen+0x9a>
    152e:	0e 94 16 12 	call	0x242c	; 0x242c <draw_number_6>
    1532:	1c c0       	rjmp	.+56     	; 0x156c <handle_game_screen+0x9a>
    1534:	0e 94 34 12 	call	0x2468	; 0x2468 <draw_number_7>
    1538:	19 c0       	rjmp	.+50     	; 0x156c <handle_game_screen+0x9a>
    153a:	0e 94 40 12 	call	0x2480	; 0x2480 <draw_number_8>
    153e:	16 c0       	rjmp	.+44     	; 0x156c <handle_game_screen+0x9a>
    1540:	0e 94 5e 12 	call	0x24bc	; 0x24bc <draw_number_9>
    1544:	13 c0       	rjmp	.+38     	; 0x156c <handle_game_screen+0x9a>
    1546:	0e 94 0f 10 	call	0x201e	; 0x201e <oled_clear_screen>
    154a:	22 e3       	ldi	r18, 0x32	; 50
    154c:	44 e6       	ldi	r20, 0x64	; 100
    154e:	6a e0       	ldi	r22, 0x0A	; 10
    1550:	8a e0       	ldi	r24, 0x0A	; 10
    1552:	0e 94 1f 10 	call	0x203e	; 0x203e <oled_draw_line>
    1556:	44 e1       	ldi	r20, 0x14	; 20
    1558:	60 e2       	ldi	r22, 0x20	; 32
    155a:	80 e4       	ldi	r24, 0x40	; 64
    155c:	0e 94 80 10 	call	0x2100	; 0x2100 <oled_draw_circle>
    1560:	2e e1       	ldi	r18, 0x1E	; 30
    1562:	48 e2       	ldi	r20, 0x28	; 40
    1564:	64 e1       	ldi	r22, 0x14	; 20
    1566:	84 e1       	ldi	r24, 0x14	; 20
    1568:	0e 94 f0 10 	call	0x21e0	; 0x21e0 <oled_draw_square>
    156c:	c0 90 8f 03 	lds	r12, 0x038F	; 0x80038f <score_counter>
    1570:	d0 90 90 03 	lds	r13, 0x0390	; 0x800390 <score_counter+0x1>
    1574:	c6 01       	movw	r24, r12
    1576:	0e 94 1c 15 	call	0x2a38	; 0x2a38 <count_digits>
    157a:	88 2e       	mov	r8, r24
    157c:	91 2c       	mov	r9, r1
    157e:	94 01       	movw	r18, r8
    1580:	2f 5f       	subi	r18, 0xFF	; 255
    1582:	3f 4f       	sbci	r19, 0xFF	; 255
    1584:	4d b7       	in	r20, 0x3d	; 61
    1586:	5e b7       	in	r21, 0x3e	; 62
    1588:	42 1b       	sub	r20, r18
    158a:	53 0b       	sbc	r21, r19
    158c:	0f b6       	in	r0, 0x3f	; 63
    158e:	f8 94       	cli
    1590:	5e bf       	out	0x3e, r21	; 62
    1592:	0f be       	out	0x3f, r0	; 63
    1594:	4d bf       	out	0x3d, r20	; 61
    1596:	0d b7       	in	r16, 0x3d	; 61
    1598:	1e b7       	in	r17, 0x3e	; 62
    159a:	0f 5f       	subi	r16, 0xFF	; 255
    159c:	1f 4f       	sbci	r17, 0xFF	; 255
    159e:	48 2f       	mov	r20, r24
    15a0:	b8 01       	movw	r22, r16
    15a2:	c6 01       	movw	r24, r12
    15a4:	0e 94 2e 15 	call	0x2a5c	; 0x2a5c <number_to_chars>
    15a8:	68 01       	movw	r12, r16
    15aa:	87 e0       	ldi	r24, 0x07	; 7
    15ac:	b8 2e       	mov	r11, r24
    15ae:	c6 01       	movw	r24, r12
    15b0:	80 1b       	sub	r24, r16
    15b2:	91 0b       	sbc	r25, r17
    15b4:	88 15       	cp	r24, r8
    15b6:	99 05       	cpc	r25, r9
    15b8:	4c f4       	brge	.+18     	; 0x15cc <handle_game_screen+0xfa>
    15ba:	f6 01       	movw	r30, r12
    15bc:	41 91       	ld	r20, Z+
    15be:	6f 01       	movw	r12, r30
    15c0:	6b 2d       	mov	r22, r11
    15c2:	80 e0       	ldi	r24, 0x00	; 0
    15c4:	0e 94 a5 0f 	call	0x1f4a	; 0x1f4a <oled_write_char_to_SRAM>
    15c8:	b3 94       	inc	r11
    15ca:	f1 cf       	rjmp	.-30     	; 0x15ae <handle_game_screen+0xdc>
    15cc:	0e 94 fe 0e 	call	0x1dfc	; 0x1dfc <oled_data_from_SRAM>
    15d0:	0f b6       	in	r0, 0x3f	; 63
    15d2:	f8 94       	cli
    15d4:	fe be       	out	0x3e, r15	; 62
    15d6:	0f be       	out	0x3f, r0	; 63
    15d8:	ed be       	out	0x3d, r14	; 61
    15da:	df 91       	pop	r29
    15dc:	cf 91       	pop	r28
    15de:	1f 91       	pop	r17
    15e0:	0f 91       	pop	r16
    15e2:	ff 90       	pop	r15
    15e4:	ef 90       	pop	r14
    15e6:	df 90       	pop	r13
    15e8:	cf 90       	pop	r12
    15ea:	bf 90       	pop	r11
    15ec:	9f 90       	pop	r9
    15ee:	8f 90       	pop	r8
    15f0:	08 95       	ret

000015f2 <handleMenuSelection>:
    15f2:	1f 93       	push	r17
    15f4:	cf 93       	push	r28
    15f6:	df 93       	push	r29
    15f8:	eb 01       	movw	r28, r22
    15fa:	0e 94 0f 10 	call	0x201e	; 0x201e <oled_clear_screen>
    15fe:	80 91 96 03 	lds	r24, 0x0396	; 0x800396 <currentMenuState>
    1602:	81 30       	cpi	r24, 0x01	; 1
    1604:	09 f4       	brne	.+2      	; 0x1608 <handleMenuSelection+0x16>
    1606:	ef c0       	rjmp	.+478    	; 0x17e6 <handleMenuSelection+0x1f4>
    1608:	20 f0       	brcs	.+8      	; 0x1612 <handleMenuSelection+0x20>
    160a:	82 30       	cpi	r24, 0x02	; 2
    160c:	09 f4       	brne	.+2      	; 0x1610 <handleMenuSelection+0x1e>
    160e:	c2 c0       	rjmp	.+388    	; 0x1794 <handleMenuSelection+0x1a2>
    1610:	08 c1       	rjmp	.+528    	; 0x1822 <handleMenuSelection+0x230>
    1612:	8a 81       	ldd	r24, Y+2	; 0x02
    1614:	82 30       	cpi	r24, 0x02	; 2
    1616:	09 f4       	brne	.+2      	; 0x161a <handleMenuSelection+0x28>
    1618:	45 c0       	rjmp	.+138    	; 0x16a4 <handleMenuSelection+0xb2>
    161a:	58 f4       	brcc	.+22     	; 0x1632 <handleMenuSelection+0x40>
    161c:	88 23       	and	r24, r24
    161e:	89 f0       	breq	.+34     	; 0x1642 <handleMenuSelection+0x50>
    1620:	81 30       	cpi	r24, 0x01	; 1
    1622:	09 f0       	breq	.+2      	; 0x1626 <handleMenuSelection+0x34>
    1624:	f6 c0       	rjmp	.+492    	; 0x1812 <handleMenuSelection+0x220>
    1626:	82 e0       	ldi	r24, 0x02	; 2
    1628:	80 93 96 03 	sts	0x0396, r24	; 0x800396 <currentMenuState>
    162c:	8e eb       	ldi	r24, 0xBE	; 190
    162e:	93 e0       	ldi	r25, 0x03	; 3
    1630:	eb c0       	rjmp	.+470    	; 0x1808 <handleMenuSelection+0x216>
    1632:	83 30       	cpi	r24, 0x03	; 3
    1634:	e9 f1       	breq	.+122    	; 0x16b0 <handleMenuSelection+0xbe>
    1636:	84 30       	cpi	r24, 0x04	; 4
    1638:	09 f0       	breq	.+2      	; 0x163c <handleMenuSelection+0x4a>
    163a:	eb c0       	rjmp	.+470    	; 0x1812 <handleMenuSelection+0x220>
    163c:	62 e3       	ldi	r22, 0x32	; 50
    163e:	73 e0       	ldi	r23, 0x03	; 3
    1640:	ea c0       	rjmp	.+468    	; 0x1816 <handleMenuSelection+0x224>
    1642:	6f e0       	ldi	r22, 0x0F	; 15
    1644:	73 e0       	ldi	r23, 0x03	; 3
    1646:	80 e0       	ldi	r24, 0x00	; 0
    1648:	0e 94 a0 0f 	call	0x1f40	; 0x1f40 <oled_write_line_to_SRAM>
    164c:	81 e0       	ldi	r24, 0x01	; 1
    164e:	80 93 91 03 	sts	0x0391, r24	; 0x800391 <playGame>
    1652:	80 93 b8 03 	sts	0x03B8, r24	; 0x8003b8 <main_game+0x2>
    1656:	86 eb       	ldi	r24, 0xB6	; 182
    1658:	93 e0       	ldi	r25, 0x03	; 3
    165a:	0e 94 7c 05 	call	0xaf8	; 0xaf8 <game_Start>
    165e:	0e 94 cc 05 	call	0xb98	; 0xb98 <print_game_status>
    1662:	0e 94 d7 12 	call	0x25ae	; 0x25ae <draw_sunset_with_pikachu_and_ash>
    1666:	0e 94 fe 0e 	call	0x1dfc	; 0x1dfc <oled_data_from_SRAM>
    166a:	c2 e8       	ldi	r28, 0x82	; 130
    166c:	d3 e0       	ldi	r29, 0x03	; 3
    166e:	80 91 bd 03 	lds	r24, 0x03BD	; 0x8003bd <main_game+0x7>
    1672:	81 11       	cpse	r24, r1
    1674:	07 c0       	rjmp	.+14     	; 0x1684 <handleMenuSelection+0x92>
    1676:	df 93       	push	r29
    1678:	cf 93       	push	r28
    167a:	0e 94 c3 15 	call	0x2b86	; 0x2b86 <printf>
    167e:	0f 90       	pop	r0
    1680:	0f 90       	pop	r0
    1682:	f5 cf       	rjmp	.-22     	; 0x166e <handleMenuSelection+0x7c>
    1684:	10 92 90 03 	sts	0x0390, r1	; 0x800390 <score_counter+0x1>
    1688:	10 92 8f 03 	sts	0x038F, r1	; 0x80038f <score_counter>
    168c:	0e 94 22 05 	call	0xa44	; 0xa44 <game_run>
    1690:	89 2b       	or	r24, r25
    1692:	19 f0       	breq	.+6      	; 0x169a <handleMenuSelection+0xa8>
    1694:	0e 94 69 0a 	call	0x14d2	; 0x14d2 <handle_game_screen>
    1698:	f9 cf       	rjmp	.-14     	; 0x168c <handleMenuSelection+0x9a>
    169a:	df 91       	pop	r29
    169c:	cf 91       	pop	r28
    169e:	1f 91       	pop	r17
    16a0:	0c 94 fe 0e 	jmp	0x1dfc	; 0x1dfc <oled_data_from_SRAM>
    16a4:	81 e0       	ldi	r24, 0x01	; 1
    16a6:	80 93 96 03 	sts	0x0396, r24	; 0x800396 <currentMenuState>
    16aa:	8a ec       	ldi	r24, 0xCA	; 202
    16ac:	93 e0       	ldi	r25, 0x03	; 3
    16ae:	ac c0       	rjmp	.+344    	; 0x1808 <handleMenuSelection+0x216>
    16b0:	81 e0       	ldi	r24, 0x01	; 1
    16b2:	80 93 8c 03 	sts	0x038C, r24	; 0x80038c <count_fake_proc>
    16b6:	0e 94 72 06 	call	0xce4	; 0xce4 <clear_highscore_list>
    16ba:	0e 94 0f 10 	call	0x201e	; 0x201e <oled_clear_screen>
    16be:	0e 94 76 12 	call	0x24ec	; 0x24ec <draw_pikachu>
    16c2:	12 e0       	ldi	r17, 0x02	; 2
    16c4:	c2 e8       	ldi	r28, 0x82	; 130
    16c6:	d3 e0       	ldi	r29, 0x03	; 3
    16c8:	61 e2       	ldi	r22, 0x21	; 33
    16ca:	73 e0       	ldi	r23, 0x03	; 3
    16cc:	80 e0       	ldi	r24, 0x00	; 0
    16ce:	0e 94 a0 0f 	call	0x1f40	; 0x1f40 <oled_write_line_to_SRAM>
    16d2:	0e 94 fe 0e 	call	0x1dfc	; 0x1dfc <oled_data_from_SRAM>
    16d6:	80 91 8d 03 	lds	r24, 0x038D	; 0x80038d <fake_proc_time>
    16da:	90 91 8e 03 	lds	r25, 0x038E	; 0x80038e <fake_proc_time+0x1>
    16de:	83 97       	sbiw	r24, 0x23	; 35
    16e0:	38 f4       	brcc	.+14     	; 0x16f0 <handleMenuSelection+0xfe>
    16e2:	df 93       	push	r29
    16e4:	cf 93       	push	r28
    16e6:	0e 94 c3 15 	call	0x2b86	; 0x2b86 <printf>
    16ea:	0f 90       	pop	r0
    16ec:	0f 90       	pop	r0
    16ee:	f3 cf       	rjmp	.-26     	; 0x16d6 <handleMenuSelection+0xe4>
    16f0:	10 92 8e 03 	sts	0x038E, r1	; 0x80038e <fake_proc_time+0x1>
    16f4:	10 92 8d 03 	sts	0x038D, r1	; 0x80038d <fake_proc_time>
    16f8:	4e e2       	ldi	r20, 0x2E	; 46
    16fa:	6e e0       	ldi	r22, 0x0E	; 14
    16fc:	80 e0       	ldi	r24, 0x00	; 0
    16fe:	0e 94 a5 0f 	call	0x1f4a	; 0x1f4a <oled_write_char_to_SRAM>
    1702:	0e 94 fe 0e 	call	0x1dfc	; 0x1dfc <oled_data_from_SRAM>
    1706:	80 91 8d 03 	lds	r24, 0x038D	; 0x80038d <fake_proc_time>
    170a:	90 91 8e 03 	lds	r25, 0x038E	; 0x80038e <fake_proc_time+0x1>
    170e:	83 97       	sbiw	r24, 0x23	; 35
    1710:	38 f4       	brcc	.+14     	; 0x1720 <handleMenuSelection+0x12e>
    1712:	df 93       	push	r29
    1714:	cf 93       	push	r28
    1716:	0e 94 c3 15 	call	0x2b86	; 0x2b86 <printf>
    171a:	0f 90       	pop	r0
    171c:	0f 90       	pop	r0
    171e:	f3 cf       	rjmp	.-26     	; 0x1706 <handleMenuSelection+0x114>
    1720:	10 92 8e 03 	sts	0x038E, r1	; 0x80038e <fake_proc_time+0x1>
    1724:	10 92 8d 03 	sts	0x038D, r1	; 0x80038d <fake_proc_time>
    1728:	4e e2       	ldi	r20, 0x2E	; 46
    172a:	6f e0       	ldi	r22, 0x0F	; 15
    172c:	80 e0       	ldi	r24, 0x00	; 0
    172e:	0e 94 a5 0f 	call	0x1f4a	; 0x1f4a <oled_write_char_to_SRAM>
    1732:	0e 94 fe 0e 	call	0x1dfc	; 0x1dfc <oled_data_from_SRAM>
    1736:	80 91 8d 03 	lds	r24, 0x038D	; 0x80038d <fake_proc_time>
    173a:	90 91 8e 03 	lds	r25, 0x038E	; 0x80038e <fake_proc_time+0x1>
    173e:	83 97       	sbiw	r24, 0x23	; 35
    1740:	38 f4       	brcc	.+14     	; 0x1750 <handleMenuSelection+0x15e>
    1742:	df 93       	push	r29
    1744:	cf 93       	push	r28
    1746:	0e 94 c3 15 	call	0x2b86	; 0x2b86 <printf>
    174a:	0f 90       	pop	r0
    174c:	0f 90       	pop	r0
    174e:	f3 cf       	rjmp	.-26     	; 0x1736 <handleMenuSelection+0x144>
    1750:	10 92 8e 03 	sts	0x038E, r1	; 0x80038e <fake_proc_time+0x1>
    1754:	10 92 8d 03 	sts	0x038D, r1	; 0x80038d <fake_proc_time>
    1758:	40 e2       	ldi	r20, 0x20	; 32
    175a:	6f e0       	ldi	r22, 0x0F	; 15
    175c:	80 e0       	ldi	r24, 0x00	; 0
    175e:	0e 94 a5 0f 	call	0x1f4a	; 0x1f4a <oled_write_char_to_SRAM>
    1762:	0e 94 fe 0e 	call	0x1dfc	; 0x1dfc <oled_data_from_SRAM>
    1766:	80 91 8d 03 	lds	r24, 0x038D	; 0x80038d <fake_proc_time>
    176a:	90 91 8e 03 	lds	r25, 0x038E	; 0x80038e <fake_proc_time+0x1>
    176e:	83 97       	sbiw	r24, 0x23	; 35
    1770:	38 f4       	brcc	.+14     	; 0x1780 <handleMenuSelection+0x18e>
    1772:	df 93       	push	r29
    1774:	cf 93       	push	r28
    1776:	0e 94 c3 15 	call	0x2b86	; 0x2b86 <printf>
    177a:	0f 90       	pop	r0
    177c:	0f 90       	pop	r0
    177e:	f3 cf       	rjmp	.-26     	; 0x1766 <handleMenuSelection+0x174>
    1780:	10 92 8e 03 	sts	0x038E, r1	; 0x80038e <fake_proc_time+0x1>
    1784:	10 92 8d 03 	sts	0x038D, r1	; 0x80038d <fake_proc_time>
    1788:	11 50       	subi	r17, 0x01	; 1
    178a:	09 f0       	breq	.+2      	; 0x178e <handleMenuSelection+0x19c>
    178c:	9d cf       	rjmp	.-198    	; 0x16c8 <handleMenuSelection+0xd6>
    178e:	10 92 8c 03 	sts	0x038C, r1	; 0x80038c <count_fake_proc>
    1792:	47 c0       	rjmp	.+142    	; 0x1822 <handleMenuSelection+0x230>
    1794:	8a 81       	ldd	r24, Y+2	; 0x02
    1796:	82 30       	cpi	r24, 0x02	; 2
    1798:	c1 f0       	breq	.+48     	; 0x17ca <handleMenuSelection+0x1d8>
    179a:	58 f4       	brcc	.+22     	; 0x17b2 <handleMenuSelection+0x1c0>
    179c:	88 23       	and	r24, r24
    179e:	71 f0       	breq	.+28     	; 0x17bc <handleMenuSelection+0x1ca>
    17a0:	81 30       	cpi	r24, 0x01	; 1
    17a2:	b9 f5       	brne	.+110    	; 0x1812 <handleMenuSelection+0x220>
    17a4:	86 eb       	ldi	r24, 0xB6	; 182
    17a6:	93 e0       	ldi	r25, 0x03	; 3
    17a8:	df 91       	pop	r29
    17aa:	cf 91       	pop	r28
    17ac:	1f 91       	pop	r17
    17ae:	0c 94 4f 06 	jmp	0xc9e	; 0xc9e <add_lives>
    17b2:	83 30       	cpi	r24, 0x03	; 3
    17b4:	89 f0       	breq	.+34     	; 0x17d8 <handleMenuSelection+0x1e6>
    17b6:	84 30       	cpi	r24, 0x04	; 4
    17b8:	19 f1       	breq	.+70     	; 0x1800 <handleMenuSelection+0x20e>
    17ba:	2b c0       	rjmp	.+86     	; 0x1812 <handleMenuSelection+0x220>
    17bc:	86 eb       	ldi	r24, 0xB6	; 182
    17be:	93 e0       	ldi	r25, 0x03	; 3
    17c0:	df 91       	pop	r29
    17c2:	cf 91       	pop	r28
    17c4:	1f 91       	pop	r17
    17c6:	0c 94 6c 06 	jmp	0xcd8	; 0xcd8 <reset_settings>
    17ca:	86 eb       	ldi	r24, 0xB6	; 182
    17cc:	93 e0       	ldi	r25, 0x03	; 3
    17ce:	df 91       	pop	r29
    17d0:	cf 91       	pop	r28
    17d2:	1f 91       	pop	r17
    17d4:	0c 94 59 06 	jmp	0xcb2	; 0xcb2 <add_sensitivity>
    17d8:	86 eb       	ldi	r24, 0xB6	; 182
    17da:	93 e0       	ldi	r25, 0x03	; 3
    17dc:	df 91       	pop	r29
    17de:	cf 91       	pop	r28
    17e0:	1f 91       	pop	r17
    17e2:	0c 94 63 06 	jmp	0xcc6	; 0xcc6 <add_difficulty>
    17e6:	8a 81       	ldd	r24, Y+2	; 0x02
    17e8:	88 23       	and	r24, r24
    17ea:	29 f0       	breq	.+10     	; 0x17f6 <handleMenuSelection+0x204>
    17ec:	81 30       	cpi	r24, 0x01	; 1
    17ee:	89 f4       	brne	.+34     	; 0x1812 <handleMenuSelection+0x220>
    17f0:	69 e5       	ldi	r22, 0x59	; 89
    17f2:	73 e0       	ldi	r23, 0x03	; 3
    17f4:	10 c0       	rjmp	.+32     	; 0x1816 <handleMenuSelection+0x224>
    17f6:	6c e4       	ldi	r22, 0x4C	; 76
    17f8:	73 e0       	ldi	r23, 0x03	; 3
    17fa:	80 e0       	ldi	r24, 0x00	; 0
    17fc:	0e 94 a0 0f 	call	0x1f40	; 0x1f40 <oled_write_line_to_SRAM>
    1800:	10 92 96 03 	sts	0x0396, r1	; 0x800396 <currentMenuState>
    1804:	84 ec       	ldi	r24, 0xC4	; 196
    1806:	93 e0       	ldi	r25, 0x03	; 3
    1808:	90 93 95 03 	sts	0x0395, r25	; 0x800395 <current_menu+0x1>
    180c:	80 93 94 03 	sts	0x0394, r24	; 0x800394 <current_menu>
    1810:	08 c0       	rjmp	.+16     	; 0x1822 <handleMenuSelection+0x230>
    1812:	6f e3       	ldi	r22, 0x3F	; 63
    1814:	73 e0       	ldi	r23, 0x03	; 3
    1816:	80 e0       	ldi	r24, 0x00	; 0
    1818:	df 91       	pop	r29
    181a:	cf 91       	pop	r28
    181c:	1f 91       	pop	r17
    181e:	0c 94 a0 0f 	jmp	0x1f40	; 0x1f40 <oled_write_line_to_SRAM>
    1822:	df 91       	pop	r29
    1824:	cf 91       	pop	r28
    1826:	1f 91       	pop	r17
    1828:	08 95       	ret

0000182a <menu_navigate>:
    182a:	0f 93       	push	r16
    182c:	1f 93       	push	r17
    182e:	cf 93       	push	r28
    1830:	df 93       	push	r29
    1832:	ec 01       	movw	r28, r24
    1834:	8b 01       	movw	r16, r22
    1836:	0e 94 08 0d 	call	0x1a10	; 0x1a10 <MultiBoard_Update>
    183a:	b8 01       	movw	r22, r16
    183c:	ce 01       	movw	r24, r28
    183e:	0e 94 9d 08 	call	0x113a	; 0x113a <update_menu_position_from_joystick>
    1842:	21 e0       	ldi	r18, 0x01	; 1
    1844:	30 e0       	ldi	r19, 0x00	; 0
    1846:	8d 89       	ldd	r24, Y+21	; 0x15
    1848:	88 23       	and	r24, r24
    184a:	11 f0       	breq	.+4      	; 0x1850 <menu_navigate+0x26>
    184c:	20 e0       	ldi	r18, 0x00	; 0
    184e:	30 e0       	ldi	r19, 0x00	; 0
    1850:	9e 81       	ldd	r25, Y+6	; 0x06
    1852:	89 2f       	mov	r24, r25
    1854:	90 e0       	ldi	r25, 0x00	; 0
    1856:	82 23       	and	r24, r18
    1858:	93 23       	and	r25, r19
    185a:	89 2b       	or	r24, r25
    185c:	21 f0       	breq	.+8      	; 0x1866 <menu_navigate+0x3c>
    185e:	b8 01       	movw	r22, r16
    1860:	ce 01       	movw	r24, r28
    1862:	0e 94 f9 0a 	call	0x15f2	; 0x15f2 <handleMenuSelection>
    1866:	c8 01       	movw	r24, r16
    1868:	0e 94 d4 08 	call	0x11a8	; 0x11a8 <write_menu_oled_to_SRAM>
    186c:	8e 81       	ldd	r24, Y+6	; 0x06
    186e:	8d 8b       	std	Y+21, r24	; 0x15
    1870:	df 91       	pop	r29
    1872:	cf 91       	pop	r28
    1874:	1f 91       	pop	r17
    1876:	0f 91       	pop	r16
    1878:	08 95       	ret

0000187a <initialize_menus>:
    187a:	e4 ec       	ldi	r30, 0xC4	; 196
    187c:	f3 e0       	ldi	r31, 0x03	; 3
    187e:	84 e9       	ldi	r24, 0x94	; 148
    1880:	92 e0       	ldi	r25, 0x02	; 2
    1882:	91 83       	std	Z+1, r25	; 0x01
    1884:	80 83       	st	Z, r24
    1886:	85 e0       	ldi	r24, 0x05	; 5
    1888:	85 83       	std	Z+5, r24	; 0x05
    188a:	12 82       	std	Z+2, r1	; 0x02
    188c:	13 82       	std	Z+3, r1	; 0x03
    188e:	14 82       	std	Z+4, r1	; 0x04
    1890:	aa ec       	ldi	r26, 0xCA	; 202
    1892:	b3 e0       	ldi	r27, 0x03	; 3
    1894:	24 e5       	ldi	r18, 0x54	; 84
    1896:	31 e0       	ldi	r19, 0x01	; 1
    1898:	11 96       	adiw	r26, 0x01	; 1
    189a:	3c 93       	st	X, r19
    189c:	2e 93       	st	-X, r18
    189e:	94 e1       	ldi	r25, 0x14	; 20
    18a0:	15 96       	adiw	r26, 0x05	; 5
    18a2:	9c 93       	st	X, r25
    18a4:	15 97       	sbiw	r26, 0x05	; 5
    18a6:	12 96       	adiw	r26, 0x02	; 2
    18a8:	1c 92       	st	X, r1
    18aa:	12 97       	sbiw	r26, 0x02	; 2
    18ac:	13 96       	adiw	r26, 0x03	; 3
    18ae:	1c 92       	st	X, r1
    18b0:	13 97       	sbiw	r26, 0x03	; 3
    18b2:	14 96       	adiw	r26, 0x04	; 4
    18b4:	1c 92       	st	X, r1
    18b6:	ae eb       	ldi	r26, 0xBE	; 190
    18b8:	b3 e0       	ldi	r27, 0x03	; 3
    18ba:	24 e0       	ldi	r18, 0x04	; 4
    18bc:	31 e0       	ldi	r19, 0x01	; 1
    18be:	11 96       	adiw	r26, 0x01	; 1
    18c0:	3c 93       	st	X, r19
    18c2:	2e 93       	st	-X, r18
    18c4:	15 96       	adiw	r26, 0x05	; 5
    18c6:	8c 93       	st	X, r24
    18c8:	15 97       	sbiw	r26, 0x05	; 5
    18ca:	12 96       	adiw	r26, 0x02	; 2
    18cc:	1c 92       	st	X, r1
    18ce:	12 97       	sbiw	r26, 0x02	; 2
    18d0:	13 96       	adiw	r26, 0x03	; 3
    18d2:	1c 92       	st	X, r1
    18d4:	13 97       	sbiw	r26, 0x03	; 3
    18d6:	14 96       	adiw	r26, 0x04	; 4
    18d8:	1c 92       	st	X, r1
    18da:	f0 93 95 03 	sts	0x0395, r31	; 0x800395 <current_menu+0x1>
    18de:	e0 93 94 03 	sts	0x0394, r30	; 0x800394 <current_menu>
    18e2:	08 95       	ret

000018e4 <MultiBoard_Init>:
    18e4:	cf 93       	push	r28
    18e6:	df 93       	push	r29
    18e8:	ec 01       	movw	r28, r24
    18ea:	8c 98       	cbi	0x11, 4	; 17
    18ec:	bb 98       	cbi	0x17, 3	; 23
    18ee:	ba 98       	cbi	0x17, 2	; 23
    18f0:	b9 98       	cbi	0x17, 1	; 23
    18f2:	c2 9a       	sbi	0x18, 2	; 24
    18f4:	60 e8       	ldi	r22, 0x80	; 128
    18f6:	80 e0       	ldi	r24, 0x00	; 0
    18f8:	94 e1       	ldi	r25, 0x14	; 20
    18fa:	0e 94 75 15 	call	0x2aea	; 0x2aea <Universal_write>
    18fe:	b1 99       	sbic	0x16, 1	; 22
    1900:	fe cf       	rjmp	.-4      	; 0x18fe <MultiBoard_Init+0x1a>
    1902:	80 e0       	ldi	r24, 0x00	; 0
    1904:	94 e1       	ldi	r25, 0x14	; 20
    1906:	0e 94 85 15 	call	0x2b0a	; 0x2b0a <Universal_read>
    190a:	88 87       	std	Y+8, r24	; 0x08
    190c:	80 e0       	ldi	r24, 0x00	; 0
    190e:	94 e1       	ldi	r25, 0x14	; 20
    1910:	0e 94 85 15 	call	0x2b0a	; 0x2b0a <Universal_read>
    1914:	8f 83       	std	Y+7, r24	; 0x07
    1916:	1a 82       	std	Y+2, r1	; 0x02
    1918:	1b 82       	std	Y+3, r1	; 0x03
    191a:	1c 82       	std	Y+4, r1	; 0x04
    191c:	1d 82       	std	Y+5, r1	; 0x05
    191e:	19 82       	std	Y+1, r1	; 0x01
    1920:	18 82       	st	Y, r1
    1922:	1a 86       	std	Y+10, r1	; 0x0a
    1924:	19 86       	std	Y+9, r1	; 0x09
    1926:	1c 86       	std	Y+12, r1	; 0x0c
    1928:	1b 86       	std	Y+11, r1	; 0x0b
    192a:	1e 86       	std	Y+14, r1	; 0x0e
    192c:	1d 86       	std	Y+13, r1	; 0x0d
    192e:	1e 82       	std	Y+6, r1	; 0x06
    1930:	18 8a       	std	Y+16, r1	; 0x10
    1932:	1f 86       	std	Y+15, r1	; 0x0f
    1934:	19 8a       	std	Y+17, r1	; 0x11
    1936:	1a 8a       	std	Y+18, r1	; 0x12
    1938:	1b 8a       	std	Y+19, r1	; 0x13
    193a:	1c 8a       	std	Y+20, r1	; 0x14
    193c:	1d 8a       	std	Y+21, r1	; 0x15
    193e:	1e 8a       	std	Y+22, r1	; 0x16
    1940:	18 8e       	std	Y+24, r1	; 0x18
    1942:	1f 8a       	std	Y+23, r1	; 0x17
    1944:	1a 8e       	std	Y+26, r1	; 0x1a
    1946:	19 8e       	std	Y+25, r1	; 0x19
    1948:	1c 8e       	std	Y+28, r1	; 0x1c
    194a:	1b 8e       	std	Y+27, r1	; 0x1b
    194c:	df 91       	pop	r29
    194e:	cf 91       	pop	r28
    1950:	08 95       	ret

00001952 <MultiBoard_UpdateJoystickAngle>:
    1952:	fc 01       	movw	r30, r24
    1954:	61 85       	ldd	r22, Z+9	; 0x09
    1956:	72 85       	ldd	r23, Z+10	; 0x0a
    1958:	23 85       	ldd	r18, Z+11	; 0x0b
    195a:	34 85       	ldd	r19, Z+12	; 0x0c
    195c:	cb 01       	movw	r24, r22
    195e:	05 96       	adiw	r24, 0x05	; 5
    1960:	0b 97       	sbiw	r24, 0x0b	; 11
    1962:	38 f4       	brcc	.+14     	; 0x1972 <MultiBoard_UpdateJoystickAngle+0x20>
    1964:	c9 01       	movw	r24, r18
    1966:	05 96       	adiw	r24, 0x05	; 5
    1968:	0b 97       	sbiw	r24, 0x0b	; 11
    196a:	18 f4       	brcc	.+6      	; 0x1972 <MultiBoard_UpdateJoystickAngle+0x20>
    196c:	16 86       	std	Z+14, r1	; 0x0e
    196e:	15 86       	std	Z+13, r1	; 0x0d
    1970:	08 95       	ret
    1972:	87 2f       	mov	r24, r23
    1974:	80 95       	com	r24
    1976:	88 1f       	adc	r24, r24
    1978:	88 27       	eor	r24, r24
    197a:	88 1f       	adc	r24, r24
    197c:	90 e0       	ldi	r25, 0x00	; 0
    197e:	88 0f       	add	r24, r24
    1980:	99 1f       	adc	r25, r25
    1982:	43 2f       	mov	r20, r19
    1984:	40 95       	com	r20
    1986:	44 1f       	adc	r20, r20
    1988:	44 27       	eor	r20, r20
    198a:	44 1f       	adc	r20, r20
    198c:	84 2b       	or	r24, r20
    198e:	82 30       	cpi	r24, 0x02	; 2
    1990:	91 05       	cpc	r25, r1
    1992:	79 f1       	breq	.+94     	; 0x19f2 <MultiBoard_UpdateJoystickAngle+0xa0>
    1994:	83 30       	cpi	r24, 0x03	; 3
    1996:	91 05       	cpc	r25, r1
    1998:	89 f0       	breq	.+34     	; 0x19bc <MultiBoard_UpdateJoystickAngle+0x6a>
    199a:	01 97       	sbiw	r24, 0x01	; 1
    199c:	d1 f4       	brne	.+52     	; 0x19d2 <MultiBoard_UpdateJoystickAngle+0x80>
    199e:	46 ea       	ldi	r20, 0xA6	; 166
    19a0:	46 03       	mulsu	r20, r22
    19a2:	c0 01       	movw	r24, r0
    19a4:	47 9f       	mul	r20, r23
    19a6:	90 0d       	add	r25, r0
    19a8:	11 24       	eor	r1, r1
    19aa:	a9 01       	movw	r20, r18
    19ac:	46 1b       	sub	r20, r22
    19ae:	57 0b       	sbc	r21, r23
    19b0:	ba 01       	movw	r22, r20
    19b2:	0e 94 a9 15 	call	0x2b52	; 0x2b52 <__divmodhi4>
    19b6:	66 5a       	subi	r22, 0xA6	; 166
    19b8:	7f 4f       	sbci	r23, 0xFF	; 255
    19ba:	27 c0       	rjmp	.+78     	; 0x1a0a <MultiBoard_UpdateJoystickAngle+0xb8>
    19bc:	4a e5       	ldi	r20, 0x5A	; 90
    19be:	42 9f       	mul	r20, r18
    19c0:	c0 01       	movw	r24, r0
    19c2:	43 9f       	mul	r20, r19
    19c4:	90 0d       	add	r25, r0
    19c6:	11 24       	eor	r1, r1
    19c8:	62 0f       	add	r22, r18
    19ca:	73 1f       	adc	r23, r19
    19cc:	0e 94 a9 15 	call	0x2b52	; 0x2b52 <__divmodhi4>
    19d0:	1c c0       	rjmp	.+56     	; 0x1a0a <MultiBoard_UpdateJoystickAngle+0xb8>
    19d2:	46 ea       	ldi	r20, 0xA6	; 166
    19d4:	42 03       	mulsu	r20, r18
    19d6:	c0 01       	movw	r24, r0
    19d8:	43 9f       	mul	r20, r19
    19da:	90 0d       	add	r25, r0
    19dc:	11 24       	eor	r1, r1
    19de:	71 95       	neg	r23
    19e0:	61 95       	neg	r22
    19e2:	71 09       	sbc	r23, r1
    19e4:	62 1b       	sub	r22, r18
    19e6:	73 0b       	sbc	r23, r19
    19e8:	0e 94 a9 15 	call	0x2b52	; 0x2b52 <__divmodhi4>
    19ec:	6c 54       	subi	r22, 0x4C	; 76
    19ee:	7f 4f       	sbci	r23, 0xFF	; 255
    19f0:	0c c0       	rjmp	.+24     	; 0x1a0a <MultiBoard_UpdateJoystickAngle+0xb8>
    19f2:	4a e5       	ldi	r20, 0x5A	; 90
    19f4:	46 9f       	mul	r20, r22
    19f6:	c0 01       	movw	r24, r0
    19f8:	47 9f       	mul	r20, r23
    19fa:	90 0d       	add	r25, r0
    19fc:	11 24       	eor	r1, r1
    19fe:	62 1b       	sub	r22, r18
    1a00:	73 0b       	sbc	r23, r19
    1a02:	0e 94 a9 15 	call	0x2b52	; 0x2b52 <__divmodhi4>
    1a06:	62 5f       	subi	r22, 0xF2	; 242
    1a08:	7e 4f       	sbci	r23, 0xFE	; 254
    1a0a:	76 87       	std	Z+14, r23	; 0x0e
    1a0c:	65 87       	std	Z+13, r22	; 0x0d
    1a0e:	08 95       	ret

00001a10 <MultiBoard_Update>:
    1a10:	cf 93       	push	r28
    1a12:	df 93       	push	r29
    1a14:	ec 01       	movw	r28, r24
    1a16:	60 e0       	ldi	r22, 0x00	; 0
    1a18:	80 e0       	ldi	r24, 0x00	; 0
    1a1a:	94 e1       	ldi	r25, 0x14	; 20
    1a1c:	0e 94 75 15 	call	0x2aea	; 0x2aea <Universal_write>
    1a20:	b1 99       	sbic	0x16, 1	; 22
    1a22:	fe cf       	rjmp	.-4      	; 0x1a20 <MultiBoard_Update+0x10>
    1a24:	80 e0       	ldi	r24, 0x00	; 0
    1a26:	94 e1       	ldi	r25, 0x14	; 20
    1a28:	0e 94 85 15 	call	0x2b0a	; 0x2b0a <Universal_read>
    1a2c:	88 83       	st	Y, r24
    1a2e:	80 e0       	ldi	r24, 0x00	; 0
    1a30:	94 e1       	ldi	r25, 0x14	; 20
    1a32:	0e 94 85 15 	call	0x2b0a	; 0x2b0a <Universal_read>
    1a36:	89 83       	std	Y+1, r24	; 0x01
    1a38:	80 e0       	ldi	r24, 0x00	; 0
    1a3a:	94 e1       	ldi	r25, 0x14	; 20
    1a3c:	0e 94 85 15 	call	0x2b0a	; 0x2b0a <Universal_read>
    1a40:	8b 83       	std	Y+3, r24	; 0x03
    1a42:	80 e0       	ldi	r24, 0x00	; 0
    1a44:	94 e1       	ldi	r25, 0x14	; 20
    1a46:	0e 94 85 15 	call	0x2b0a	; 0x2b0a <Universal_read>
    1a4a:	8a 83       	std	Y+2, r24	; 0x02
    1a4c:	81 e0       	ldi	r24, 0x01	; 1
    1a4e:	84 9b       	sbis	0x10, 4	; 16
    1a50:	80 e0       	ldi	r24, 0x00	; 0
    1a52:	8c 83       	std	Y+4, r24	; 0x04
    1a54:	81 e0       	ldi	r24, 0x01	; 1
    1a56:	b3 9b       	sbis	0x16, 3	; 22
    1a58:	80 e0       	ldi	r24, 0x00	; 0
    1a5a:	8d 83       	std	Y+5, r24	; 0x05
    1a5c:	81 e0       	ldi	r24, 0x01	; 1
    1a5e:	b2 99       	sbic	0x16, 2	; 22
    1a60:	80 e0       	ldi	r24, 0x00	; 0
    1a62:	8e 83       	std	Y+6, r24	; 0x06
    1a64:	88 81       	ld	r24, Y
    1a66:	90 e0       	ldi	r25, 0x00	; 0
    1a68:	28 85       	ldd	r18, Y+8	; 0x08
    1a6a:	82 1b       	sub	r24, r18
    1a6c:	91 09       	sbc	r25, r1
    1a6e:	9c 87       	std	Y+12, r25	; 0x0c
    1a70:	8b 87       	std	Y+11, r24	; 0x0b
    1a72:	89 81       	ldd	r24, Y+1	; 0x01
    1a74:	90 e0       	ldi	r25, 0x00	; 0
    1a76:	2f 81       	ldd	r18, Y+7	; 0x07
    1a78:	82 1b       	sub	r24, r18
    1a7a:	91 09       	sbc	r25, r1
    1a7c:	9a 87       	std	Y+10, r25	; 0x0a
    1a7e:	89 87       	std	Y+9, r24	; 0x09
    1a80:	ce 01       	movw	r24, r28
    1a82:	df 91       	pop	r29
    1a84:	cf 91       	pop	r28
    1a86:	0c 94 a9 0c 	jmp	0x1952	; 0x1952 <MultiBoard_UpdateJoystickAngle>

00001a8a <MultiBoard_Send>:
    1a8a:	0f 93       	push	r16
    1a8c:	1f 93       	push	r17
    1a8e:	cf 93       	push	r28
    1a90:	df 93       	push	r29
    1a92:	cd b7       	in	r28, 0x3d	; 61
    1a94:	de b7       	in	r29, 0x3e	; 62
    1a96:	2b 97       	sbiw	r28, 0x0b	; 11
    1a98:	0f b6       	in	r0, 0x3f	; 63
    1a9a:	f8 94       	cli
    1a9c:	de bf       	out	0x3e, r29	; 62
    1a9e:	0f be       	out	0x3f, r0	; 63
    1aa0:	cd bf       	out	0x3d, r28	; 61
    1aa2:	8c 01       	movw	r16, r24
    1aa4:	fc 01       	movw	r30, r24
    1aa6:	23 85       	ldd	r18, Z+11	; 0x0b
    1aa8:	34 85       	ldd	r19, Z+12	; 0x0c
    1aaa:	81 8d       	ldd	r24, Z+25	; 0x19
    1aac:	92 8d       	ldd	r25, Z+26	; 0x1a
    1aae:	a9 01       	movw	r20, r18
    1ab0:	48 1b       	sub	r20, r24
    1ab2:	59 0b       	sbc	r21, r25
    1ab4:	ca 01       	movw	r24, r20
    1ab6:	57 ff       	sbrs	r21, 7
    1ab8:	03 c0       	rjmp	.+6      	; 0x1ac0 <MultiBoard_Send+0x36>
    1aba:	91 95       	neg	r25
    1abc:	81 95       	neg	r24
    1abe:	91 09       	sbc	r25, r1
    1ac0:	08 97       	sbiw	r24, 0x08	; 8
    1ac2:	8c f0       	brlt	.+34     	; 0x1ae6 <MultiBoard_Send+0x5c>
    1ac4:	81 e0       	ldi	r24, 0x01	; 1
    1ac6:	90 e0       	ldi	r25, 0x00	; 0
    1ac8:	9a 83       	std	Y+2, r25	; 0x02
    1aca:	89 83       	std	Y+1, r24	; 0x01
    1acc:	82 e0       	ldi	r24, 0x02	; 2
    1ace:	8b 83       	std	Y+3, r24	; 0x03
    1ad0:	2c 83       	std	Y+4, r18	; 0x04
    1ad2:	3d 83       	std	Y+5, r19	; 0x05
    1ad4:	ce 01       	movw	r24, r28
    1ad6:	01 96       	adiw	r24, 0x01	; 1
    1ad8:	0e 94 86 03 	call	0x70c	; 0x70c <CAN_SendMessage>
    1adc:	f8 01       	movw	r30, r16
    1ade:	83 85       	ldd	r24, Z+11	; 0x0b
    1ae0:	94 85       	ldd	r25, Z+12	; 0x0c
    1ae2:	92 8f       	std	Z+26, r25	; 0x1a
    1ae4:	81 8f       	std	Z+25, r24	; 0x19
    1ae6:	f8 01       	movw	r30, r16
    1ae8:	21 85       	ldd	r18, Z+9	; 0x09
    1aea:	32 85       	ldd	r19, Z+10	; 0x0a
    1aec:	87 89       	ldd	r24, Z+23	; 0x17
    1aee:	90 8d       	ldd	r25, Z+24	; 0x18
    1af0:	a9 01       	movw	r20, r18
    1af2:	48 1b       	sub	r20, r24
    1af4:	59 0b       	sbc	r21, r25
    1af6:	ca 01       	movw	r24, r20
    1af8:	57 ff       	sbrs	r21, 7
    1afa:	03 c0       	rjmp	.+6      	; 0x1b02 <MultiBoard_Send+0x78>
    1afc:	91 95       	neg	r25
    1afe:	81 95       	neg	r24
    1b00:	91 09       	sbc	r25, r1
    1b02:	08 97       	sbiw	r24, 0x08	; 8
    1b04:	84 f0       	brlt	.+32     	; 0x1b26 <MultiBoard_Send+0x9c>
    1b06:	82 e0       	ldi	r24, 0x02	; 2
    1b08:	90 e0       	ldi	r25, 0x00	; 0
    1b0a:	9a 83       	std	Y+2, r25	; 0x02
    1b0c:	89 83       	std	Y+1, r24	; 0x01
    1b0e:	8b 83       	std	Y+3, r24	; 0x03
    1b10:	2c 83       	std	Y+4, r18	; 0x04
    1b12:	3d 83       	std	Y+5, r19	; 0x05
    1b14:	ce 01       	movw	r24, r28
    1b16:	01 96       	adiw	r24, 0x01	; 1
    1b18:	0e 94 86 03 	call	0x70c	; 0x70c <CAN_SendMessage>
    1b1c:	f8 01       	movw	r30, r16
    1b1e:	81 85       	ldd	r24, Z+9	; 0x09
    1b20:	92 85       	ldd	r25, Z+10	; 0x0a
    1b22:	90 8f       	std	Z+24, r25	; 0x18
    1b24:	87 8b       	std	Z+23, r24	; 0x17
    1b26:	f8 01       	movw	r30, r16
    1b28:	84 81       	ldd	r24, Z+4	; 0x04
    1b2a:	93 89       	ldd	r25, Z+19	; 0x13
    1b2c:	89 17       	cp	r24, r25
    1b2e:	71 f0       	breq	.+28     	; 0x1b4c <MultiBoard_Send+0xc2>
    1b30:	26 e0       	ldi	r18, 0x06	; 6
    1b32:	30 e0       	ldi	r19, 0x00	; 0
    1b34:	3a 83       	std	Y+2, r19	; 0x02
    1b36:	29 83       	std	Y+1, r18	; 0x01
    1b38:	91 e0       	ldi	r25, 0x01	; 1
    1b3a:	9b 83       	std	Y+3, r25	; 0x03
    1b3c:	8c 83       	std	Y+4, r24	; 0x04
    1b3e:	ce 01       	movw	r24, r28
    1b40:	01 96       	adiw	r24, 0x01	; 1
    1b42:	0e 94 86 03 	call	0x70c	; 0x70c <CAN_SendMessage>
    1b46:	f8 01       	movw	r30, r16
    1b48:	84 81       	ldd	r24, Z+4	; 0x04
    1b4a:	83 8b       	std	Z+19, r24	; 0x13
    1b4c:	f8 01       	movw	r30, r16
    1b4e:	85 81       	ldd	r24, Z+5	; 0x05
    1b50:	94 89       	ldd	r25, Z+20	; 0x14
    1b52:	89 17       	cp	r24, r25
    1b54:	71 f0       	breq	.+28     	; 0x1b72 <MultiBoard_Send+0xe8>
    1b56:	27 e0       	ldi	r18, 0x07	; 7
    1b58:	30 e0       	ldi	r19, 0x00	; 0
    1b5a:	3a 83       	std	Y+2, r19	; 0x02
    1b5c:	29 83       	std	Y+1, r18	; 0x01
    1b5e:	91 e0       	ldi	r25, 0x01	; 1
    1b60:	9b 83       	std	Y+3, r25	; 0x03
    1b62:	8c 83       	std	Y+4, r24	; 0x04
    1b64:	ce 01       	movw	r24, r28
    1b66:	01 96       	adiw	r24, 0x01	; 1
    1b68:	0e 94 86 03 	call	0x70c	; 0x70c <CAN_SendMessage>
    1b6c:	f8 01       	movw	r30, r16
    1b6e:	85 81       	ldd	r24, Z+5	; 0x05
    1b70:	84 8b       	std	Z+20, r24	; 0x14
    1b72:	f8 01       	movw	r30, r16
    1b74:	86 81       	ldd	r24, Z+6	; 0x06
    1b76:	96 89       	ldd	r25, Z+22	; 0x16
    1b78:	89 17       	cp	r24, r25
    1b7a:	71 f0       	breq	.+28     	; 0x1b98 <MultiBoard_Send+0x10e>
    1b7c:	23 e0       	ldi	r18, 0x03	; 3
    1b7e:	30 e0       	ldi	r19, 0x00	; 0
    1b80:	3a 83       	std	Y+2, r19	; 0x02
    1b82:	29 83       	std	Y+1, r18	; 0x01
    1b84:	91 e0       	ldi	r25, 0x01	; 1
    1b86:	9b 83       	std	Y+3, r25	; 0x03
    1b88:	8c 83       	std	Y+4, r24	; 0x04
    1b8a:	ce 01       	movw	r24, r28
    1b8c:	01 96       	adiw	r24, 0x01	; 1
    1b8e:	0e 94 86 03 	call	0x70c	; 0x70c <CAN_SendMessage>
    1b92:	f8 01       	movw	r30, r16
    1b94:	86 81       	ldd	r24, Z+6	; 0x06
    1b96:	86 8b       	std	Z+22, r24	; 0x16
    1b98:	f8 01       	movw	r30, r16
    1b9a:	23 81       	ldd	r18, Z+3	; 0x03
    1b9c:	82 2f       	mov	r24, r18
    1b9e:	90 e0       	ldi	r25, 0x00	; 0
    1ba0:	32 89       	ldd	r19, Z+18	; 0x12
    1ba2:	83 1b       	sub	r24, r19
    1ba4:	91 09       	sbc	r25, r1
    1ba6:	97 ff       	sbrs	r25, 7
    1ba8:	03 c0       	rjmp	.+6      	; 0x1bb0 <MultiBoard_Send+0x126>
    1baa:	91 95       	neg	r25
    1bac:	81 95       	neg	r24
    1bae:	91 09       	sbc	r25, r1
    1bb0:	03 97       	sbiw	r24, 0x03	; 3
    1bb2:	74 f0       	brlt	.+28     	; 0x1bd0 <MultiBoard_Send+0x146>
    1bb4:	85 e0       	ldi	r24, 0x05	; 5
    1bb6:	90 e0       	ldi	r25, 0x00	; 0
    1bb8:	9a 83       	std	Y+2, r25	; 0x02
    1bba:	89 83       	std	Y+1, r24	; 0x01
    1bbc:	81 e0       	ldi	r24, 0x01	; 1
    1bbe:	8b 83       	std	Y+3, r24	; 0x03
    1bc0:	2c 83       	std	Y+4, r18	; 0x04
    1bc2:	ce 01       	movw	r24, r28
    1bc4:	01 96       	adiw	r24, 0x01	; 1
    1bc6:	0e 94 86 03 	call	0x70c	; 0x70c <CAN_SendMessage>
    1bca:	f8 01       	movw	r30, r16
    1bcc:	83 81       	ldd	r24, Z+3	; 0x03
    1bce:	82 8b       	std	Z+18, r24	; 0x12
    1bd0:	f8 01       	movw	r30, r16
    1bd2:	22 81       	ldd	r18, Z+2	; 0x02
    1bd4:	82 2f       	mov	r24, r18
    1bd6:	90 e0       	ldi	r25, 0x00	; 0
    1bd8:	31 89       	ldd	r19, Z+17	; 0x11
    1bda:	83 1b       	sub	r24, r19
    1bdc:	91 09       	sbc	r25, r1
    1bde:	97 ff       	sbrs	r25, 7
    1be0:	03 c0       	rjmp	.+6      	; 0x1be8 <MultiBoard_Send+0x15e>
    1be2:	91 95       	neg	r25
    1be4:	81 95       	neg	r24
    1be6:	91 09       	sbc	r25, r1
    1be8:	0b 97       	sbiw	r24, 0x0b	; 11
    1bea:	74 f0       	brlt	.+28     	; 0x1c08 <MultiBoard_Send+0x17e>
    1bec:	84 e0       	ldi	r24, 0x04	; 4
    1bee:	90 e0       	ldi	r25, 0x00	; 0
    1bf0:	9a 83       	std	Y+2, r25	; 0x02
    1bf2:	89 83       	std	Y+1, r24	; 0x01
    1bf4:	81 e0       	ldi	r24, 0x01	; 1
    1bf6:	8b 83       	std	Y+3, r24	; 0x03
    1bf8:	2c 83       	std	Y+4, r18	; 0x04
    1bfa:	ce 01       	movw	r24, r28
    1bfc:	01 96       	adiw	r24, 0x01	; 1
    1bfe:	0e 94 86 03 	call	0x70c	; 0x70c <CAN_SendMessage>
    1c02:	f8 01       	movw	r30, r16
    1c04:	82 81       	ldd	r24, Z+2	; 0x02
    1c06:	81 8b       	std	Z+17, r24	; 0x11
    1c08:	f8 01       	movw	r30, r16
    1c0a:	85 85       	ldd	r24, Z+13	; 0x0d
    1c0c:	96 85       	ldd	r25, Z+14	; 0x0e
    1c0e:	23 8d       	ldd	r18, Z+27	; 0x1b
    1c10:	34 8d       	ldd	r19, Z+28	; 0x1c
    1c12:	82 17       	cp	r24, r18
    1c14:	93 07       	cpc	r25, r19
    1c16:	89 f0       	breq	.+34     	; 0x1c3a <MultiBoard_Send+0x1b0>
    1c18:	28 e0       	ldi	r18, 0x08	; 8
    1c1a:	30 e0       	ldi	r19, 0x00	; 0
    1c1c:	3a 83       	std	Y+2, r19	; 0x02
    1c1e:	29 83       	std	Y+1, r18	; 0x01
    1c20:	22 e0       	ldi	r18, 0x02	; 2
    1c22:	2b 83       	std	Y+3, r18	; 0x03
    1c24:	8c 83       	std	Y+4, r24	; 0x04
    1c26:	9d 83       	std	Y+5, r25	; 0x05
    1c28:	ce 01       	movw	r24, r28
    1c2a:	01 96       	adiw	r24, 0x01	; 1
    1c2c:	0e 94 86 03 	call	0x70c	; 0x70c <CAN_SendMessage>
    1c30:	f8 01       	movw	r30, r16
    1c32:	85 85       	ldd	r24, Z+13	; 0x0d
    1c34:	96 85       	ldd	r25, Z+14	; 0x0e
    1c36:	94 8f       	std	Z+28, r25	; 0x1c
    1c38:	83 8f       	std	Z+27, r24	; 0x1b
    1c3a:	2b 96       	adiw	r28, 0x0b	; 11
    1c3c:	0f b6       	in	r0, 0x3f	; 63
    1c3e:	f8 94       	cli
    1c40:	de bf       	out	0x3e, r29	; 62
    1c42:	0f be       	out	0x3f, r0	; 63
    1c44:	cd bf       	out	0x3d, r28	; 61
    1c46:	df 91       	pop	r29
    1c48:	cf 91       	pop	r28
    1c4a:	1f 91       	pop	r17
    1c4c:	0f 91       	pop	r16
    1c4e:	08 95       	ret

00001c50 <oled_write_line_to_SRAM.part.1>:
    1c50:	af 92       	push	r10
    1c52:	bf 92       	push	r11
    1c54:	cf 92       	push	r12
    1c56:	df 92       	push	r13
    1c58:	ef 92       	push	r14
    1c5a:	ff 92       	push	r15
    1c5c:	0f 93       	push	r16
    1c5e:	1f 93       	push	r17
    1c60:	cf 93       	push	r28
    1c62:	90 e8       	ldi	r25, 0x80	; 128
    1c64:	89 9f       	mul	r24, r25
    1c66:	60 01       	movw	r12, r0
    1c68:	11 24       	eor	r1, r1
    1c6a:	8b 01       	movw	r16, r22
    1c6c:	56 01       	movw	r10, r12
    1c6e:	c0 e0       	ldi	r28, 0x00	; 0
    1c70:	f8 01       	movw	r30, r16
    1c72:	80 81       	ld	r24, Z
    1c74:	88 23       	and	r24, r24
    1c76:	11 f1       	breq	.+68     	; 0x1cbc <oled_write_line_to_SRAM.part.1+0x6c>
    1c78:	e1 2c       	mov	r14, r1
    1c7a:	f1 2c       	mov	r15, r1
    1c7c:	f8 01       	movw	r30, r16
    1c7e:	80 81       	ld	r24, Z
    1c80:	f7 01       	movw	r30, r14
    1c82:	98 e0       	ldi	r25, 0x08	; 8
    1c84:	89 9f       	mul	r24, r25
    1c86:	e0 0d       	add	r30, r0
    1c88:	f1 1d       	adc	r31, r1
    1c8a:	11 24       	eor	r1, r1
    1c8c:	ec 56       	subi	r30, 0x6C	; 108
    1c8e:	fd 4f       	sbci	r31, 0xFD	; 253
    1c90:	64 91       	lpm	r22, Z
    1c92:	c5 01       	movw	r24, r10
    1c94:	8e 0d       	add	r24, r14
    1c96:	9f 1d       	adc	r25, r15
    1c98:	0e 94 55 15 	call	0x2aaa	; 0x2aaa <SRAM_write>
    1c9c:	ef ef       	ldi	r30, 0xFF	; 255
    1c9e:	ee 1a       	sub	r14, r30
    1ca0:	fe 0a       	sbc	r15, r30
    1ca2:	f8 e0       	ldi	r31, 0x08	; 8
    1ca4:	ef 16       	cp	r14, r31
    1ca6:	f1 04       	cpc	r15, r1
    1ca8:	49 f7       	brne	.-46     	; 0x1c7c <oled_write_line_to_SRAM.part.1+0x2c>
    1caa:	cf 5f       	subi	r28, 0xFF	; 255
    1cac:	0f 5f       	subi	r16, 0xFF	; 255
    1cae:	1f 4f       	sbci	r17, 0xFF	; 255
    1cb0:	88 e0       	ldi	r24, 0x08	; 8
    1cb2:	a8 0e       	add	r10, r24
    1cb4:	b1 1c       	adc	r11, r1
    1cb6:	c0 31       	cpi	r28, 0x10	; 16
    1cb8:	d9 f6       	brne	.-74     	; 0x1c70 <oled_write_line_to_SRAM.part.1+0x20>
    1cba:	20 c0       	rjmp	.+64     	; 0x1cfc <oled_write_line_to_SRAM.part.1+0xac>
    1cbc:	9c e9       	ldi	r25, 0x9C	; 156
    1cbe:	a9 2e       	mov	r10, r25
    1cc0:	93 e0       	ldi	r25, 0x03	; 3
    1cc2:	b9 2e       	mov	r11, r25
    1cc4:	84 e9       	ldi	r24, 0x94	; 148
    1cc6:	e8 2e       	mov	r14, r24
    1cc8:	83 e0       	ldi	r24, 0x03	; 3
    1cca:	f8 2e       	mov	r15, r24
    1ccc:	86 01       	movw	r16, r12
    1cce:	88 e0       	ldi	r24, 0x08	; 8
    1cd0:	c8 9f       	mul	r28, r24
    1cd2:	00 0d       	add	r16, r0
    1cd4:	11 1d       	adc	r17, r1
    1cd6:	11 24       	eor	r1, r1
    1cd8:	04 59       	subi	r16, 0x94	; 148
    1cda:	13 40       	sbci	r17, 0x03	; 3
    1cdc:	f7 01       	movw	r30, r14
    1cde:	64 91       	lpm	r22, Z
    1ce0:	c8 01       	movw	r24, r16
    1ce2:	8e 0d       	add	r24, r14
    1ce4:	9f 1d       	adc	r25, r15
    1ce6:	0e 94 55 15 	call	0x2aaa	; 0x2aaa <SRAM_write>
    1cea:	ff ef       	ldi	r31, 0xFF	; 255
    1cec:	ef 1a       	sub	r14, r31
    1cee:	ff 0a       	sbc	r15, r31
    1cf0:	ae 14       	cp	r10, r14
    1cf2:	bf 04       	cpc	r11, r15
    1cf4:	99 f7       	brne	.-26     	; 0x1cdc <oled_write_line_to_SRAM.part.1+0x8c>
    1cf6:	cf 5f       	subi	r28, 0xFF	; 255
    1cf8:	c0 31       	cpi	r28, 0x10	; 16
    1cfa:	21 f7       	brne	.-56     	; 0x1cc4 <oled_write_line_to_SRAM.part.1+0x74>
    1cfc:	cf 91       	pop	r28
    1cfe:	1f 91       	pop	r17
    1d00:	0f 91       	pop	r16
    1d02:	ff 90       	pop	r15
    1d04:	ef 90       	pop	r14
    1d06:	df 90       	pop	r13
    1d08:	cf 90       	pop	r12
    1d0a:	bf 90       	pop	r11
    1d0c:	af 90       	pop	r10
    1d0e:	08 95       	ret

00001d10 <oled_write_command>:
    1d10:	68 2f       	mov	r22, r24
    1d12:	80 e0       	ldi	r24, 0x00	; 0
    1d14:	90 e0       	ldi	r25, 0x00	; 0
    1d16:	0c 94 75 15 	jmp	0x2aea	; 0x2aea <Universal_write>

00001d1a <oled_write_data>:
    1d1a:	ef 92       	push	r14
    1d1c:	ff 92       	push	r15
    1d1e:	0f 93       	push	r16
    1d20:	1f 93       	push	r17
    1d22:	cf 93       	push	r28
    1d24:	df 93       	push	r29
    1d26:	ec 01       	movw	r28, r24
    1d28:	8c 01       	movw	r16, r24
    1d2a:	06 0f       	add	r16, r22
    1d2c:	17 1f       	adc	r17, r23
    1d2e:	e1 2c       	mov	r14, r1
    1d30:	82 e0       	ldi	r24, 0x02	; 2
    1d32:	f8 2e       	mov	r15, r24
    1d34:	c0 17       	cp	r28, r16
    1d36:	d1 07       	cpc	r29, r17
    1d38:	41 f0       	breq	.+16     	; 0x1d4a <oled_write_data+0x30>
    1d3a:	69 91       	ld	r22, Y+
    1d3c:	c7 01       	movw	r24, r14
    1d3e:	0e 94 75 15 	call	0x2aea	; 0x2aea <Universal_write>
    1d42:	8f ef       	ldi	r24, 0xFF	; 255
    1d44:	e8 1a       	sub	r14, r24
    1d46:	f8 0a       	sbc	r15, r24
    1d48:	f5 cf       	rjmp	.-22     	; 0x1d34 <oled_write_data+0x1a>
    1d4a:	df 91       	pop	r29
    1d4c:	cf 91       	pop	r28
    1d4e:	1f 91       	pop	r17
    1d50:	0f 91       	pop	r16
    1d52:	ff 90       	pop	r15
    1d54:	ef 90       	pop	r14
    1d56:	08 95       	ret

00001d58 <oled_set_page>:
    1d58:	87 70       	andi	r24, 0x07	; 7
    1d5a:	80 6b       	ori	r24, 0xB0	; 176
    1d5c:	0c 94 88 0e 	jmp	0x1d10	; 0x1d10 <oled_write_command>

00001d60 <oled_set_column>:
    1d60:	cf 93       	push	r28
    1d62:	c8 2f       	mov	r28, r24
    1d64:	82 95       	swap	r24
    1d66:	8f 70       	andi	r24, 0x0F	; 15
    1d68:	80 61       	ori	r24, 0x10	; 16
    1d6a:	0e 94 88 0e 	call	0x1d10	; 0x1d10 <oled_write_command>
    1d6e:	8c 2f       	mov	r24, r28
    1d70:	8f 70       	andi	r24, 0x0F	; 15
    1d72:	cf 91       	pop	r28
    1d74:	0c 94 88 0e 	jmp	0x1d10	; 0x1d10 <oled_write_command>

00001d78 <oled_init>:
    1d78:	8e ea       	ldi	r24, 0xAE	; 174
    1d7a:	0e 94 88 0e 	call	0x1d10	; 0x1d10 <oled_write_command>
    1d7e:	81 ea       	ldi	r24, 0xA1	; 161
    1d80:	0e 94 88 0e 	call	0x1d10	; 0x1d10 <oled_write_command>
    1d84:	8a ed       	ldi	r24, 0xDA	; 218
    1d86:	0e 94 88 0e 	call	0x1d10	; 0x1d10 <oled_write_command>
    1d8a:	82 e1       	ldi	r24, 0x12	; 18
    1d8c:	0e 94 88 0e 	call	0x1d10	; 0x1d10 <oled_write_command>
    1d90:	88 ec       	ldi	r24, 0xC8	; 200
    1d92:	0e 94 88 0e 	call	0x1d10	; 0x1d10 <oled_write_command>
    1d96:	88 ea       	ldi	r24, 0xA8	; 168
    1d98:	0e 94 88 0e 	call	0x1d10	; 0x1d10 <oled_write_command>
    1d9c:	8f e3       	ldi	r24, 0x3F	; 63
    1d9e:	0e 94 88 0e 	call	0x1d10	; 0x1d10 <oled_write_command>
    1da2:	85 ed       	ldi	r24, 0xD5	; 213
    1da4:	0e 94 88 0e 	call	0x1d10	; 0x1d10 <oled_write_command>
    1da8:	80 e8       	ldi	r24, 0x80	; 128
    1daa:	0e 94 88 0e 	call	0x1d10	; 0x1d10 <oled_write_command>
    1dae:	81 e8       	ldi	r24, 0x81	; 129
    1db0:	0e 94 88 0e 	call	0x1d10	; 0x1d10 <oled_write_command>
    1db4:	80 e5       	ldi	r24, 0x50	; 80
    1db6:	0e 94 88 0e 	call	0x1d10	; 0x1d10 <oled_write_command>
    1dba:	89 ed       	ldi	r24, 0xD9	; 217
    1dbc:	0e 94 88 0e 	call	0x1d10	; 0x1d10 <oled_write_command>
    1dc0:	81 e2       	ldi	r24, 0x21	; 33
    1dc2:	0e 94 88 0e 	call	0x1d10	; 0x1d10 <oled_write_command>
    1dc6:	80 e2       	ldi	r24, 0x20	; 32
    1dc8:	0e 94 88 0e 	call	0x1d10	; 0x1d10 <oled_write_command>
    1dcc:	82 e0       	ldi	r24, 0x02	; 2
    1dce:	0e 94 88 0e 	call	0x1d10	; 0x1d10 <oled_write_command>
    1dd2:	8b ed       	ldi	r24, 0xDB	; 219
    1dd4:	0e 94 88 0e 	call	0x1d10	; 0x1d10 <oled_write_command>
    1dd8:	80 e3       	ldi	r24, 0x30	; 48
    1dda:	0e 94 88 0e 	call	0x1d10	; 0x1d10 <oled_write_command>
    1dde:	8d ea       	ldi	r24, 0xAD	; 173
    1de0:	0e 94 88 0e 	call	0x1d10	; 0x1d10 <oled_write_command>
    1de4:	80 e0       	ldi	r24, 0x00	; 0
    1de6:	0e 94 88 0e 	call	0x1d10	; 0x1d10 <oled_write_command>
    1dea:	84 ea       	ldi	r24, 0xA4	; 164
    1dec:	0e 94 88 0e 	call	0x1d10	; 0x1d10 <oled_write_command>
    1df0:	86 ea       	ldi	r24, 0xA6	; 166
    1df2:	0e 94 88 0e 	call	0x1d10	; 0x1d10 <oled_write_command>
    1df6:	8f ea       	ldi	r24, 0xAF	; 175
    1df8:	0c 94 88 0e 	jmp	0x1d10	; 0x1d10 <oled_write_command>

00001dfc <oled_data_from_SRAM>:
    1dfc:	8f 92       	push	r8
    1dfe:	9f 92       	push	r9
    1e00:	af 92       	push	r10
    1e02:	bf 92       	push	r11
    1e04:	cf 92       	push	r12
    1e06:	df 92       	push	r13
    1e08:	ef 92       	push	r14
    1e0a:	ff 92       	push	r15
    1e0c:	1f 93       	push	r17
    1e0e:	cf 93       	push	r28
    1e10:	df 93       	push	r29
    1e12:	cd b7       	in	r28, 0x3d	; 61
    1e14:	de b7       	in	r29, 0x3e	; 62
    1e16:	c0 58       	subi	r28, 0x80	; 128
    1e18:	d1 09       	sbc	r29, r1
    1e1a:	0f b6       	in	r0, 0x3f	; 63
    1e1c:	f8 94       	cli
    1e1e:	de bf       	out	0x3e, r29	; 62
    1e20:	0f be       	out	0x3f, r0	; 63
    1e22:	cd bf       	out	0x3d, r28	; 61
    1e24:	ce 01       	movw	r24, r28
    1e26:	01 96       	adiw	r24, 0x01	; 1
    1e28:	5c 01       	movw	r10, r24
    1e2a:	cc 24       	eor	r12, r12
    1e2c:	dd 24       	eor	r13, r13
    1e2e:	c8 1a       	sub	r12, r24
    1e30:	d9 0a       	sbc	r13, r25
    1e32:	10 e0       	ldi	r17, 0x00	; 0
    1e34:	4e 01       	movw	r8, r28
    1e36:	91 e8       	ldi	r25, 0x81	; 129
    1e38:	89 0e       	add	r8, r25
    1e3a:	91 1c       	adc	r9, r1
    1e3c:	81 2f       	mov	r24, r17
    1e3e:	0e 94 ac 0e 	call	0x1d58	; 0x1d58 <oled_set_page>
    1e42:	80 e0       	ldi	r24, 0x00	; 0
    1e44:	0e 94 b0 0e 	call	0x1d60	; 0x1d60 <oled_set_column>
    1e48:	75 01       	movw	r14, r10
    1e4a:	e8 14       	cp	r14, r8
    1e4c:	f9 04       	cpc	r15, r9
    1e4e:	49 f0       	breq	.+18     	; 0x1e62 <oled_data_from_SRAM+0x66>
    1e50:	c6 01       	movw	r24, r12
    1e52:	8e 0d       	add	r24, r14
    1e54:	9f 1d       	adc	r25, r15
    1e56:	0e 94 65 15 	call	0x2aca	; 0x2aca <SRAM_read>
    1e5a:	f7 01       	movw	r30, r14
    1e5c:	81 93       	st	Z+, r24
    1e5e:	7f 01       	movw	r14, r30
    1e60:	f4 cf       	rjmp	.-24     	; 0x1e4a <oled_data_from_SRAM+0x4e>
    1e62:	60 e8       	ldi	r22, 0x80	; 128
    1e64:	70 e0       	ldi	r23, 0x00	; 0
    1e66:	c5 01       	movw	r24, r10
    1e68:	0e 94 8d 0e 	call	0x1d1a	; 0x1d1a <oled_write_data>
    1e6c:	1f 5f       	subi	r17, 0xFF	; 255
    1e6e:	f0 e8       	ldi	r31, 0x80	; 128
    1e70:	cf 0e       	add	r12, r31
    1e72:	d1 1c       	adc	r13, r1
    1e74:	18 30       	cpi	r17, 0x08	; 8
    1e76:	11 f7       	brne	.-60     	; 0x1e3c <oled_data_from_SRAM+0x40>
    1e78:	c0 58       	subi	r28, 0x80	; 128
    1e7a:	df 4f       	sbci	r29, 0xFF	; 255
    1e7c:	0f b6       	in	r0, 0x3f	; 63
    1e7e:	f8 94       	cli
    1e80:	de bf       	out	0x3e, r29	; 62
    1e82:	0f be       	out	0x3f, r0	; 63
    1e84:	cd bf       	out	0x3d, r28	; 61
    1e86:	df 91       	pop	r29
    1e88:	cf 91       	pop	r28
    1e8a:	1f 91       	pop	r17
    1e8c:	ff 90       	pop	r15
    1e8e:	ef 90       	pop	r14
    1e90:	df 90       	pop	r13
    1e92:	cf 90       	pop	r12
    1e94:	bf 90       	pop	r11
    1e96:	af 90       	pop	r10
    1e98:	9f 90       	pop	r9
    1e9a:	8f 90       	pop	r8
    1e9c:	08 95       	ret

00001e9e <oled_write_screen_to_SRAM>:
    1e9e:	cf 92       	push	r12
    1ea0:	df 92       	push	r13
    1ea2:	ef 92       	push	r14
    1ea4:	ff 92       	push	r15
    1ea6:	0f 93       	push	r16
    1ea8:	1f 93       	push	r17
    1eaa:	cf 93       	push	r28
    1eac:	df 93       	push	r29
    1eae:	7c 01       	movw	r14, r24
    1eb0:	00 e0       	ldi	r16, 0x00	; 0
    1eb2:	10 e0       	ldi	r17, 0x00	; 0
    1eb4:	f7 01       	movw	r30, r14
    1eb6:	c4 91       	lpm	r28, Z
    1eb8:	80 ee       	ldi	r24, 0xE0	; 224
    1eba:	8c 0f       	add	r24, r28
    1ebc:	80 36       	cpi	r24, 0x60	; 96
    1ebe:	68 f5       	brcc	.+90     	; 0x1f1a <oled_write_screen_to_SRAM+0x7c>
    1ec0:	d0 e0       	ldi	r29, 0x00	; 0
    1ec2:	a0 97       	sbiw	r28, 0x20	; 32
    1ec4:	83 e0       	ldi	r24, 0x03	; 3
    1ec6:	cc 0f       	add	r28, r28
    1ec8:	dd 1f       	adc	r29, r29
    1eca:	8a 95       	dec	r24
    1ecc:	e1 f7       	brne	.-8      	; 0x1ec6 <oled_write_screen_to_SRAM+0x28>
    1ece:	c1 2c       	mov	r12, r1
    1ed0:	d1 2c       	mov	r13, r1
    1ed2:	fe 01       	movw	r30, r28
    1ed4:	ec 0d       	add	r30, r12
    1ed6:	fd 1d       	adc	r31, r13
    1ed8:	ec 56       	subi	r30, 0x6C	; 108
    1eda:	fc 4f       	sbci	r31, 0xFC	; 252
    1edc:	64 91       	lpm	r22, Z
    1ede:	c6 01       	movw	r24, r12
    1ee0:	80 0f       	add	r24, r16
    1ee2:	91 1f       	adc	r25, r17
    1ee4:	0e 94 55 15 	call	0x2aaa	; 0x2aaa <SRAM_write>
    1ee8:	ff ef       	ldi	r31, 0xFF	; 255
    1eea:	cf 1a       	sub	r12, r31
    1eec:	df 0a       	sbc	r13, r31
    1eee:	88 e0       	ldi	r24, 0x08	; 8
    1ef0:	c8 16       	cp	r12, r24
    1ef2:	d1 04       	cpc	r13, r1
    1ef4:	71 f7       	brne	.-36     	; 0x1ed2 <oled_write_screen_to_SRAM+0x34>
    1ef6:	9f ef       	ldi	r25, 0xFF	; 255
    1ef8:	e9 1a       	sub	r14, r25
    1efa:	f9 0a       	sbc	r15, r25
    1efc:	08 5f       	subi	r16, 0xF8	; 248
    1efe:	1f 4f       	sbci	r17, 0xFF	; 255
    1f00:	01 15       	cp	r16, r1
    1f02:	e4 e0       	ldi	r30, 0x04	; 4
    1f04:	1e 07       	cpc	r17, r30
    1f06:	b1 f6       	brne	.-84     	; 0x1eb4 <oled_write_screen_to_SRAM+0x16>
    1f08:	df 91       	pop	r29
    1f0a:	cf 91       	pop	r28
    1f0c:	1f 91       	pop	r17
    1f0e:	0f 91       	pop	r16
    1f10:	ff 90       	pop	r15
    1f12:	ef 90       	pop	r14
    1f14:	df 90       	pop	r13
    1f16:	cf 90       	pop	r12
    1f18:	08 95       	ret
    1f1a:	c4 e9       	ldi	r28, 0x94	; 148
    1f1c:	d3 e0       	ldi	r29, 0x03	; 3
    1f1e:	c8 01       	movw	r24, r16
    1f20:	84 59       	subi	r24, 0x94	; 148
    1f22:	93 40       	sbci	r25, 0x03	; 3
    1f24:	6c 01       	movw	r12, r24
    1f26:	fe 01       	movw	r30, r28
    1f28:	64 91       	lpm	r22, Z
    1f2a:	c6 01       	movw	r24, r12
    1f2c:	8c 0f       	add	r24, r28
    1f2e:	9d 1f       	adc	r25, r29
    1f30:	0e 94 55 15 	call	0x2aaa	; 0x2aaa <SRAM_write>
    1f34:	21 96       	adiw	r28, 0x01	; 1
    1f36:	f3 e0       	ldi	r31, 0x03	; 3
    1f38:	cc 39       	cpi	r28, 0x9C	; 156
    1f3a:	df 07       	cpc	r29, r31
    1f3c:	a1 f7       	brne	.-24     	; 0x1f26 <oled_write_screen_to_SRAM+0x88>
    1f3e:	db cf       	rjmp	.-74     	; 0x1ef6 <oled_write_screen_to_SRAM+0x58>

00001f40 <oled_write_line_to_SRAM>:
    1f40:	88 30       	cpi	r24, 0x08	; 8
    1f42:	10 f4       	brcc	.+4      	; 0x1f48 <oled_write_line_to_SRAM+0x8>
    1f44:	0c 94 28 0e 	jmp	0x1c50	; 0x1c50 <oled_write_line_to_SRAM.part.1>
    1f48:	08 95       	ret

00001f4a <oled_write_char_to_SRAM>:
    1f4a:	ef 92       	push	r14
    1f4c:	ff 92       	push	r15
    1f4e:	0f 93       	push	r16
    1f50:	1f 93       	push	r17
    1f52:	cf 93       	push	r28
    1f54:	df 93       	push	r29
    1f56:	88 30       	cpi	r24, 0x08	; 8
    1f58:	58 f5       	brcc	.+86     	; 0x1fb0 <oled_write_char_to_SRAM+0x66>
    1f5a:	60 31       	cpi	r22, 0x10	; 16
    1f5c:	48 f5       	brcc	.+82     	; 0x1fb0 <oled_write_char_to_SRAM+0x66>
    1f5e:	c6 2f       	mov	r28, r22
    1f60:	d0 e0       	ldi	r29, 0x00	; 0
    1f62:	90 e1       	ldi	r25, 0x10	; 16
    1f64:	89 9f       	mul	r24, r25
    1f66:	c0 0d       	add	r28, r0
    1f68:	d1 1d       	adc	r29, r1
    1f6a:	11 24       	eor	r1, r1
    1f6c:	83 e0       	ldi	r24, 0x03	; 3
    1f6e:	cc 0f       	add	r28, r28
    1f70:	dd 1f       	adc	r29, r29
    1f72:	8a 95       	dec	r24
    1f74:	e1 f7       	brne	.-8      	; 0x1f6e <oled_write_char_to_SRAM+0x24>
    1f76:	04 2f       	mov	r16, r20
    1f78:	10 e0       	ldi	r17, 0x00	; 0
    1f7a:	00 52       	subi	r16, 0x20	; 32
    1f7c:	11 09       	sbc	r17, r1
    1f7e:	93 e0       	ldi	r25, 0x03	; 3
    1f80:	00 0f       	add	r16, r16
    1f82:	11 1f       	adc	r17, r17
    1f84:	9a 95       	dec	r25
    1f86:	e1 f7       	brne	.-8      	; 0x1f80 <oled_write_char_to_SRAM+0x36>
    1f88:	e1 2c       	mov	r14, r1
    1f8a:	f1 2c       	mov	r15, r1
    1f8c:	f8 01       	movw	r30, r16
    1f8e:	ee 0d       	add	r30, r14
    1f90:	ff 1d       	adc	r31, r15
    1f92:	ec 56       	subi	r30, 0x6C	; 108
    1f94:	fc 4f       	sbci	r31, 0xFC	; 252
    1f96:	64 91       	lpm	r22, Z
    1f98:	ce 01       	movw	r24, r28
    1f9a:	8e 0d       	add	r24, r14
    1f9c:	9f 1d       	adc	r25, r15
    1f9e:	0e 94 55 15 	call	0x2aaa	; 0x2aaa <SRAM_write>
    1fa2:	8f ef       	ldi	r24, 0xFF	; 255
    1fa4:	e8 1a       	sub	r14, r24
    1fa6:	f8 0a       	sbc	r15, r24
    1fa8:	98 e0       	ldi	r25, 0x08	; 8
    1faa:	e9 16       	cp	r14, r25
    1fac:	f1 04       	cpc	r15, r1
    1fae:	71 f7       	brne	.-36     	; 0x1f8c <oled_write_char_to_SRAM+0x42>
    1fb0:	df 91       	pop	r29
    1fb2:	cf 91       	pop	r28
    1fb4:	1f 91       	pop	r17
    1fb6:	0f 91       	pop	r16
    1fb8:	ff 90       	pop	r15
    1fba:	ef 90       	pop	r14
    1fbc:	08 95       	ret

00001fbe <oled_write_pixel_to_SRAM>:
    1fbe:	0f 93       	push	r16
    1fc0:	1f 93       	push	r17
    1fc2:	cf 93       	push	r28
    1fc4:	df 93       	push	r29
    1fc6:	80 34       	cpi	r24, 0x40	; 64
    1fc8:	28 f5       	brcc	.+74     	; 0x2014 <oled_write_pixel_to_SRAM+0x56>
    1fca:	67 fd       	sbrc	r22, 7
    1fcc:	23 c0       	rjmp	.+70     	; 0x2014 <oled_write_pixel_to_SRAM+0x56>
    1fce:	04 2f       	mov	r16, r20
    1fd0:	18 2f       	mov	r17, r24
    1fd2:	86 95       	lsr	r24
    1fd4:	86 95       	lsr	r24
    1fd6:	86 95       	lsr	r24
    1fd8:	c6 2f       	mov	r28, r22
    1fda:	d0 e0       	ldi	r29, 0x00	; 0
    1fdc:	90 e8       	ldi	r25, 0x80	; 128
    1fde:	89 9f       	mul	r24, r25
    1fe0:	c0 0d       	add	r28, r0
    1fe2:	d1 1d       	adc	r29, r1
    1fe4:	11 24       	eor	r1, r1
    1fe6:	ce 01       	movw	r24, r28
    1fe8:	0e 94 65 15 	call	0x2aca	; 0x2aca <SRAM_read>
    1fec:	17 70       	andi	r17, 0x07	; 7
    1fee:	61 e0       	ldi	r22, 0x01	; 1
    1ff0:	70 e0       	ldi	r23, 0x00	; 0
    1ff2:	01 c0       	rjmp	.+2      	; 0x1ff6 <oled_write_pixel_to_SRAM+0x38>
    1ff4:	66 0f       	add	r22, r22
    1ff6:	1a 95       	dec	r17
    1ff8:	ea f7       	brpl	.-6      	; 0x1ff4 <oled_write_pixel_to_SRAM+0x36>
    1ffa:	00 23       	and	r16, r16
    1ffc:	11 f0       	breq	.+4      	; 0x2002 <oled_write_pixel_to_SRAM+0x44>
    1ffe:	68 2b       	or	r22, r24
    2000:	02 c0       	rjmp	.+4      	; 0x2006 <oled_write_pixel_to_SRAM+0x48>
    2002:	60 95       	com	r22
    2004:	68 23       	and	r22, r24
    2006:	ce 01       	movw	r24, r28
    2008:	df 91       	pop	r29
    200a:	cf 91       	pop	r28
    200c:	1f 91       	pop	r17
    200e:	0f 91       	pop	r16
    2010:	0c 94 55 15 	jmp	0x2aaa	; 0x2aaa <SRAM_write>
    2014:	df 91       	pop	r29
    2016:	cf 91       	pop	r28
    2018:	1f 91       	pop	r17
    201a:	0f 91       	pop	r16
    201c:	08 95       	ret

0000201e <oled_clear_screen>:
    201e:	cf 93       	push	r28
    2020:	df 93       	push	r29
    2022:	c0 e0       	ldi	r28, 0x00	; 0
    2024:	d0 e0       	ldi	r29, 0x00	; 0
    2026:	60 e0       	ldi	r22, 0x00	; 0
    2028:	ce 01       	movw	r24, r28
    202a:	0e 94 55 15 	call	0x2aaa	; 0x2aaa <SRAM_write>
    202e:	21 96       	adiw	r28, 0x01	; 1
    2030:	c1 15       	cp	r28, r1
    2032:	84 e0       	ldi	r24, 0x04	; 4
    2034:	d8 07       	cpc	r29, r24
    2036:	b9 f7       	brne	.-18     	; 0x2026 <oled_clear_screen+0x8>
    2038:	df 91       	pop	r29
    203a:	cf 91       	pop	r28
    203c:	08 95       	ret

0000203e <oled_draw_line>:
    203e:	6f 92       	push	r6
    2040:	7f 92       	push	r7
    2042:	8f 92       	push	r8
    2044:	9f 92       	push	r9
    2046:	af 92       	push	r10
    2048:	bf 92       	push	r11
    204a:	cf 92       	push	r12
    204c:	df 92       	push	r13
    204e:	ef 92       	push	r14
    2050:	ff 92       	push	r15
    2052:	0f 93       	push	r16
    2054:	1f 93       	push	r17
    2056:	cf 93       	push	r28
    2058:	df 93       	push	r29
    205a:	e8 2e       	mov	r14, r24
    205c:	f6 2e       	mov	r15, r22
    205e:	94 2e       	mov	r9, r20
    2060:	82 2e       	mov	r8, r18
    2062:	c4 2f       	mov	r28, r20
    2064:	d0 e0       	ldi	r29, 0x00	; 0
    2066:	c8 1b       	sub	r28, r24
    2068:	d1 09       	sbc	r29, r1
    206a:	d7 ff       	sbrs	r29, 7
    206c:	03 c0       	rjmp	.+6      	; 0x2074 <oled_draw_line+0x36>
    206e:	d1 95       	neg	r29
    2070:	c1 95       	neg	r28
    2072:	d1 09       	sbc	r29, r1
    2074:	08 2d       	mov	r16, r8
    2076:	10 e0       	ldi	r17, 0x00	; 0
    2078:	0f 19       	sub	r16, r15
    207a:	11 09       	sbc	r17, r1
    207c:	17 ff       	sbrs	r17, 7
    207e:	03 c0       	rjmp	.+6      	; 0x2086 <oled_draw_line+0x48>
    2080:	11 95       	neg	r17
    2082:	01 95       	neg	r16
    2084:	11 09       	sbc	r17, r1
    2086:	e9 14       	cp	r14, r9
    2088:	18 f0       	brcs	.+6      	; 0x2090 <oled_draw_line+0x52>
    208a:	66 24       	eor	r6, r6
    208c:	6a 94       	dec	r6
    208e:	02 c0       	rjmp	.+4      	; 0x2094 <oled_draw_line+0x56>
    2090:	66 24       	eor	r6, r6
    2092:	63 94       	inc	r6
    2094:	f8 14       	cp	r15, r8
    2096:	18 f0       	brcs	.+6      	; 0x209e <oled_draw_line+0x60>
    2098:	77 24       	eor	r7, r7
    209a:	7a 94       	dec	r7
    209c:	02 c0       	rjmp	.+4      	; 0x20a2 <oled_draw_line+0x64>
    209e:	77 24       	eor	r7, r7
    20a0:	73 94       	inc	r7
    20a2:	6e 01       	movw	r12, r28
    20a4:	c0 1a       	sub	r12, r16
    20a6:	d1 0a       	sbc	r13, r17
    20a8:	aa 24       	eor	r10, r10
    20aa:	bb 24       	eor	r11, r11
    20ac:	a0 1a       	sub	r10, r16
    20ae:	b1 0a       	sbc	r11, r17
    20b0:	41 e0       	ldi	r20, 0x01	; 1
    20b2:	6e 2d       	mov	r22, r14
    20b4:	8f 2d       	mov	r24, r15
    20b6:	0e 94 df 0f 	call	0x1fbe	; 0x1fbe <oled_write_pixel_to_SRAM>
    20ba:	e9 10       	cpse	r14, r9
    20bc:	02 c0       	rjmp	.+4      	; 0x20c2 <oled_draw_line+0x84>
    20be:	f8 14       	cp	r15, r8
    20c0:	81 f0       	breq	.+32     	; 0x20e2 <oled_draw_line+0xa4>
    20c2:	c6 01       	movw	r24, r12
    20c4:	88 0f       	add	r24, r24
    20c6:	99 1f       	adc	r25, r25
    20c8:	a8 16       	cp	r10, r24
    20ca:	b9 06       	cpc	r11, r25
    20cc:	1c f4       	brge	.+6      	; 0x20d4 <oled_draw_line+0x96>
    20ce:	c0 1a       	sub	r12, r16
    20d0:	d1 0a       	sbc	r13, r17
    20d2:	e6 0c       	add	r14, r6
    20d4:	8c 17       	cp	r24, r28
    20d6:	9d 07       	cpc	r25, r29
    20d8:	5c f7       	brge	.-42     	; 0x20b0 <oled_draw_line+0x72>
    20da:	cc 0e       	add	r12, r28
    20dc:	dd 1e       	adc	r13, r29
    20de:	f7 0c       	add	r15, r7
    20e0:	e7 cf       	rjmp	.-50     	; 0x20b0 <oled_draw_line+0x72>
    20e2:	df 91       	pop	r29
    20e4:	cf 91       	pop	r28
    20e6:	1f 91       	pop	r17
    20e8:	0f 91       	pop	r16
    20ea:	ff 90       	pop	r15
    20ec:	ef 90       	pop	r14
    20ee:	df 90       	pop	r13
    20f0:	cf 90       	pop	r12
    20f2:	bf 90       	pop	r11
    20f4:	af 90       	pop	r10
    20f6:	9f 90       	pop	r9
    20f8:	8f 90       	pop	r8
    20fa:	7f 90       	pop	r7
    20fc:	6f 90       	pop	r6
    20fe:	08 95       	ret

00002100 <oled_draw_circle>:
    2100:	9f 92       	push	r9
    2102:	af 92       	push	r10
    2104:	bf 92       	push	r11
    2106:	cf 92       	push	r12
    2108:	df 92       	push	r13
    210a:	ef 92       	push	r14
    210c:	ff 92       	push	r15
    210e:	0f 93       	push	r16
    2110:	1f 93       	push	r17
    2112:	cf 93       	push	r28
    2114:	df 93       	push	r29
    2116:	d8 2e       	mov	r13, r24
    2118:	c6 2e       	mov	r12, r22
    211a:	c4 2f       	mov	r28, r20
    211c:	d0 e0       	ldi	r29, 0x00	; 0
    211e:	e1 2c       	mov	r14, r1
    2120:	f1 2c       	mov	r15, r1
    2122:	00 e0       	ldi	r16, 0x00	; 0
    2124:	10 e0       	ldi	r17, 0x00	; 0
    2126:	41 e0       	ldi	r20, 0x01	; 1
    2128:	bc 2e       	mov	r11, r28
    212a:	bd 0c       	add	r11, r13
    212c:	6b 2d       	mov	r22, r11
    212e:	9c 2c       	mov	r9, r12
    2130:	90 0e       	add	r9, r16
    2132:	89 2d       	mov	r24, r9
    2134:	0e 94 df 0f 	call	0x1fbe	; 0x1fbe <oled_write_pixel_to_SRAM>
    2138:	41 e0       	ldi	r20, 0x01	; 1
    213a:	ad 2c       	mov	r10, r13
    213c:	ac 1a       	sub	r10, r28
    213e:	6a 2d       	mov	r22, r10
    2140:	89 2d       	mov	r24, r9
    2142:	0e 94 df 0f 	call	0x1fbe	; 0x1fbe <oled_write_pixel_to_SRAM>
    2146:	41 e0       	ldi	r20, 0x01	; 1
    2148:	6b 2d       	mov	r22, r11
    214a:	bc 2c       	mov	r11, r12
    214c:	b0 1a       	sub	r11, r16
    214e:	8b 2d       	mov	r24, r11
    2150:	0e 94 df 0f 	call	0x1fbe	; 0x1fbe <oled_write_pixel_to_SRAM>
    2154:	41 e0       	ldi	r20, 0x01	; 1
    2156:	6a 2d       	mov	r22, r10
    2158:	8b 2d       	mov	r24, r11
    215a:	0e 94 df 0f 	call	0x1fbe	; 0x1fbe <oled_write_pixel_to_SRAM>
    215e:	41 e0       	ldi	r20, 0x01	; 1
    2160:	bd 2c       	mov	r11, r13
    2162:	b0 0e       	add	r11, r16
    2164:	6b 2d       	mov	r22, r11
    2166:	9c 2e       	mov	r9, r28
    2168:	9c 0c       	add	r9, r12
    216a:	89 2d       	mov	r24, r9
    216c:	0e 94 df 0f 	call	0x1fbe	; 0x1fbe <oled_write_pixel_to_SRAM>
    2170:	41 e0       	ldi	r20, 0x01	; 1
    2172:	ad 2c       	mov	r10, r13
    2174:	a0 1a       	sub	r10, r16
    2176:	6a 2d       	mov	r22, r10
    2178:	89 2d       	mov	r24, r9
    217a:	0e 94 df 0f 	call	0x1fbe	; 0x1fbe <oled_write_pixel_to_SRAM>
    217e:	41 e0       	ldi	r20, 0x01	; 1
    2180:	6b 2d       	mov	r22, r11
    2182:	bc 2c       	mov	r11, r12
    2184:	bc 1a       	sub	r11, r28
    2186:	8b 2d       	mov	r24, r11
    2188:	0e 94 df 0f 	call	0x1fbe	; 0x1fbe <oled_write_pixel_to_SRAM>
    218c:	41 e0       	ldi	r20, 0x01	; 1
    218e:	6a 2d       	mov	r22, r10
    2190:	8b 2d       	mov	r24, r11
    2192:	0e 94 df 0f 	call	0x1fbe	; 0x1fbe <oled_write_pixel_to_SRAM>
    2196:	1e 14       	cp	r1, r14
    2198:	1f 04       	cpc	r1, r15
    219a:	5c f0       	brlt	.+22     	; 0x21b2 <oled_draw_circle+0xb2>
    219c:	0f 5f       	subi	r16, 0xFF	; 255
    219e:	1f 4f       	sbci	r17, 0xFF	; 255
    21a0:	c8 01       	movw	r24, r16
    21a2:	88 0f       	add	r24, r24
    21a4:	99 1f       	adc	r25, r25
    21a6:	01 96       	adiw	r24, 0x01	; 1
    21a8:	e8 0e       	add	r14, r24
    21aa:	f9 1e       	adc	r15, r25
    21ac:	1e 14       	cp	r1, r14
    21ae:	1f 04       	cpc	r1, r15
    21b0:	3c f4       	brge	.+14     	; 0x21c0 <oled_draw_circle+0xc0>
    21b2:	21 97       	sbiw	r28, 0x01	; 1
    21b4:	ce 01       	movw	r24, r28
    21b6:	88 0f       	add	r24, r24
    21b8:	99 1f       	adc	r25, r25
    21ba:	01 96       	adiw	r24, 0x01	; 1
    21bc:	e8 1a       	sub	r14, r24
    21be:	f9 0a       	sbc	r15, r25
    21c0:	c0 17       	cp	r28, r16
    21c2:	d1 07       	cpc	r29, r17
    21c4:	0c f0       	brlt	.+2      	; 0x21c8 <oled_draw_circle+0xc8>
    21c6:	af cf       	rjmp	.-162    	; 0x2126 <oled_draw_circle+0x26>
    21c8:	df 91       	pop	r29
    21ca:	cf 91       	pop	r28
    21cc:	1f 91       	pop	r17
    21ce:	0f 91       	pop	r16
    21d0:	ff 90       	pop	r15
    21d2:	ef 90       	pop	r14
    21d4:	df 90       	pop	r13
    21d6:	cf 90       	pop	r12
    21d8:	bf 90       	pop	r11
    21da:	af 90       	pop	r10
    21dc:	9f 90       	pop	r9
    21de:	08 95       	ret

000021e0 <oled_draw_square>:
    21e0:	0f 93       	push	r16
    21e2:	1f 93       	push	r17
    21e4:	cf 93       	push	r28
    21e6:	df 93       	push	r29
    21e8:	08 2f       	mov	r16, r24
    21ea:	16 2f       	mov	r17, r22
    21ec:	d2 2f       	mov	r29, r18
    21ee:	c8 2f       	mov	r28, r24
    21f0:	c4 0f       	add	r28, r20
    21f2:	26 2f       	mov	r18, r22
    21f4:	4c 2f       	mov	r20, r28
    21f6:	0e 94 1f 10 	call	0x203e	; 0x203e <oled_draw_line>
    21fa:	d1 0f       	add	r29, r17
    21fc:	2d 2f       	mov	r18, r29
    21fe:	4c 2f       	mov	r20, r28
    2200:	6d 2f       	mov	r22, r29
    2202:	80 2f       	mov	r24, r16
    2204:	0e 94 1f 10 	call	0x203e	; 0x203e <oled_draw_line>
    2208:	2d 2f       	mov	r18, r29
    220a:	40 2f       	mov	r20, r16
    220c:	61 2f       	mov	r22, r17
    220e:	80 2f       	mov	r24, r16
    2210:	0e 94 1f 10 	call	0x203e	; 0x203e <oled_draw_line>
    2214:	2d 2f       	mov	r18, r29
    2216:	4c 2f       	mov	r20, r28
    2218:	61 2f       	mov	r22, r17
    221a:	8c 2f       	mov	r24, r28
    221c:	df 91       	pop	r29
    221e:	cf 91       	pop	r28
    2220:	1f 91       	pop	r17
    2222:	0f 91       	pop	r16
    2224:	0c 94 1f 10 	jmp	0x203e	; 0x203e <oled_draw_line>

00002228 <draw_thick_line>:
    2228:	0f 93       	push	r16
    222a:	1f 93       	push	r17
    222c:	cf 93       	push	r28
    222e:	df 93       	push	r29
    2230:	d8 2f       	mov	r29, r24
    2232:	16 2f       	mov	r17, r22
    2234:	c4 2f       	mov	r28, r20
    2236:	02 2f       	mov	r16, r18
    2238:	0e 94 1f 10 	call	0x203e	; 0x203e <oled_draw_line>
    223c:	41 e0       	ldi	r20, 0x01	; 1
    223e:	4c 0f       	add	r20, r28
    2240:	20 2f       	mov	r18, r16
    2242:	61 2f       	mov	r22, r17
    2244:	81 e0       	ldi	r24, 0x01	; 1
    2246:	8d 0f       	add	r24, r29
    2248:	0e 94 1f 10 	call	0x203e	; 0x203e <oled_draw_line>
    224c:	4f ef       	ldi	r20, 0xFF	; 255
    224e:	4c 0f       	add	r20, r28
    2250:	20 2f       	mov	r18, r16
    2252:	61 2f       	mov	r22, r17
    2254:	8f ef       	ldi	r24, 0xFF	; 255
    2256:	8d 0f       	add	r24, r29
    2258:	df 91       	pop	r29
    225a:	cf 91       	pop	r28
    225c:	1f 91       	pop	r17
    225e:	0f 91       	pop	r16
    2260:	0c 94 1f 10 	jmp	0x203e	; 0x203e <oled_draw_line>

00002264 <oled_draw_arc>:
    2264:	8f 92       	push	r8
    2266:	9f 92       	push	r9
    2268:	af 92       	push	r10
    226a:	bf 92       	push	r11
    226c:	cf 92       	push	r12
    226e:	df 92       	push	r13
    2270:	ef 92       	push	r14
    2272:	ff 92       	push	r15
    2274:	0f 93       	push	r16
    2276:	1f 93       	push	r17
    2278:	cf 93       	push	r28
    227a:	df 93       	push	r29
    227c:	b8 2e       	mov	r11, r24
    227e:	a6 2e       	mov	r10, r22
    2280:	49 01       	movw	r8, r18
    2282:	c4 2f       	mov	r28, r20
    2284:	d0 e0       	ldi	r29, 0x00	; 0
    2286:	c1 2c       	mov	r12, r1
    2288:	d1 2c       	mov	r13, r1
    228a:	e1 2c       	mov	r14, r1
    228c:	f1 2c       	mov	r15, r1
    228e:	8e e2       	ldi	r24, 0x2E	; 46
    2290:	88 16       	cp	r8, r24
    2292:	91 04       	cpc	r9, r1
    2294:	5c f4       	brge	.+22     	; 0x22ac <oled_draw_arc+0x48>
    2296:	0d 32       	cpi	r16, 0x2D	; 45
    2298:	11 05       	cpc	r17, r1
    229a:	ac f1       	brlt	.+106    	; 0x2306 <oled_draw_arc+0xa2>
    229c:	41 e0       	ldi	r20, 0x01	; 1
    229e:	6c 2f       	mov	r22, r28
    22a0:	6b 0d       	add	r22, r11
    22a2:	8a 2d       	mov	r24, r10
    22a4:	8e 0d       	add	r24, r14
    22a6:	0e 94 df 0f 	call	0x1fbe	; 0x1fbe <oled_write_pixel_to_SRAM>
    22aa:	0e c0       	rjmp	.+28     	; 0x22c8 <oled_draw_arc+0x64>
    22ac:	98 e8       	ldi	r25, 0x88	; 136
    22ae:	89 16       	cp	r8, r25
    22b0:	91 04       	cpc	r9, r1
    22b2:	54 f0       	brlt	.+20     	; 0x22c8 <oled_draw_arc+0x64>
    22b4:	82 ee       	ldi	r24, 0xE2	; 226
    22b6:	88 16       	cp	r8, r24
    22b8:	91 04       	cpc	r9, r1
    22ba:	84 f0       	brlt	.+32     	; 0x22dc <oled_draw_arc+0x78>
    22bc:	8c e3       	ldi	r24, 0x3C	; 60
    22be:	88 16       	cp	r8, r24
    22c0:	81 e0       	ldi	r24, 0x01	; 1
    22c2:	98 06       	cpc	r9, r24
    22c4:	04 f5       	brge	.+64     	; 0x2306 <oled_draw_arc+0xa2>
    22c6:	14 c0       	rjmp	.+40     	; 0x22f0 <oled_draw_arc+0x8c>
    22c8:	07 38       	cpi	r16, 0x87	; 135
    22ca:	11 05       	cpc	r17, r1
    22cc:	e4 f0       	brlt	.+56     	; 0x2306 <oled_draw_arc+0xa2>
    22ce:	41 e0       	ldi	r20, 0x01	; 1
    22d0:	6b 2d       	mov	r22, r11
    22d2:	6e 19       	sub	r22, r14
    22d4:	8c 2f       	mov	r24, r28
    22d6:	8a 0d       	add	r24, r10
    22d8:	0e 94 df 0f 	call	0x1fbe	; 0x1fbe <oled_write_pixel_to_SRAM>
    22dc:	01 3e       	cpi	r16, 0xE1	; 225
    22de:	11 05       	cpc	r17, r1
    22e0:	94 f0       	brlt	.+36     	; 0x2306 <oled_draw_arc+0xa2>
    22e2:	41 e0       	ldi	r20, 0x01	; 1
    22e4:	6b 2d       	mov	r22, r11
    22e6:	6c 1b       	sub	r22, r28
    22e8:	8a 2d       	mov	r24, r10
    22ea:	8e 19       	sub	r24, r14
    22ec:	0e 94 df 0f 	call	0x1fbe	; 0x1fbe <oled_write_pixel_to_SRAM>
    22f0:	0b 33       	cpi	r16, 0x3B	; 59
    22f2:	91 e0       	ldi	r25, 0x01	; 1
    22f4:	19 07       	cpc	r17, r25
    22f6:	3c f0       	brlt	.+14     	; 0x2306 <oled_draw_arc+0xa2>
    22f8:	41 e0       	ldi	r20, 0x01	; 1
    22fa:	6b 2d       	mov	r22, r11
    22fc:	6e 0d       	add	r22, r14
    22fe:	8a 2d       	mov	r24, r10
    2300:	8c 1b       	sub	r24, r28
    2302:	0e 94 df 0f 	call	0x1fbe	; 0x1fbe <oled_write_pixel_to_SRAM>
    2306:	1c 14       	cp	r1, r12
    2308:	1d 04       	cpc	r1, r13
    230a:	64 f0       	brlt	.+24     	; 0x2324 <oled_draw_arc+0xc0>
    230c:	8f ef       	ldi	r24, 0xFF	; 255
    230e:	e8 1a       	sub	r14, r24
    2310:	f8 0a       	sbc	r15, r24
    2312:	c7 01       	movw	r24, r14
    2314:	88 0f       	add	r24, r24
    2316:	99 1f       	adc	r25, r25
    2318:	01 96       	adiw	r24, 0x01	; 1
    231a:	c8 0e       	add	r12, r24
    231c:	d9 1e       	adc	r13, r25
    231e:	1c 14       	cp	r1, r12
    2320:	1d 04       	cpc	r1, r13
    2322:	3c f4       	brge	.+14     	; 0x2332 <oled_draw_arc+0xce>
    2324:	21 97       	sbiw	r28, 0x01	; 1
    2326:	ce 01       	movw	r24, r28
    2328:	88 0f       	add	r24, r24
    232a:	99 1f       	adc	r25, r25
    232c:	01 96       	adiw	r24, 0x01	; 1
    232e:	c8 1a       	sub	r12, r24
    2330:	d9 0a       	sbc	r13, r25
    2332:	ce 15       	cp	r28, r14
    2334:	df 05       	cpc	r29, r15
    2336:	0c f0       	brlt	.+2      	; 0x233a <oled_draw_arc+0xd6>
    2338:	aa cf       	rjmp	.-172    	; 0x228e <oled_draw_arc+0x2a>
    233a:	df 91       	pop	r29
    233c:	cf 91       	pop	r28
    233e:	1f 91       	pop	r17
    2340:	0f 91       	pop	r16
    2342:	ff 90       	pop	r15
    2344:	ef 90       	pop	r14
    2346:	df 90       	pop	r13
    2348:	cf 90       	pop	r12
    234a:	bf 90       	pop	r11
    234c:	af 90       	pop	r10
    234e:	9f 90       	pop	r9
    2350:	8f 90       	pop	r8
    2352:	08 95       	ret

00002354 <draw_number_1>:
    2354:	20 e3       	ldi	r18, 0x30	; 48
    2356:	48 e4       	ldi	r20, 0x48	; 72
    2358:	60 e1       	ldi	r22, 0x10	; 16
    235a:	88 e4       	ldi	r24, 0x48	; 72
    235c:	0c 94 14 11 	jmp	0x2228	; 0x2228 <draw_thick_line>

00002360 <draw_number_2>:
    2360:	20 e1       	ldi	r18, 0x10	; 16
    2362:	48 e6       	ldi	r20, 0x68	; 104
    2364:	60 e1       	ldi	r22, 0x10	; 16
    2366:	88 e4       	ldi	r24, 0x48	; 72
    2368:	0e 94 14 11 	call	0x2228	; 0x2228 <draw_thick_line>
    236c:	20 e2       	ldi	r18, 0x20	; 32
    236e:	48 e6       	ldi	r20, 0x68	; 104
    2370:	60 e1       	ldi	r22, 0x10	; 16
    2372:	88 e6       	ldi	r24, 0x68	; 104
    2374:	0e 94 14 11 	call	0x2228	; 0x2228 <draw_thick_line>
    2378:	20 e2       	ldi	r18, 0x20	; 32
    237a:	48 e4       	ldi	r20, 0x48	; 72
    237c:	60 e2       	ldi	r22, 0x20	; 32
    237e:	88 e6       	ldi	r24, 0x68	; 104
    2380:	0e 94 14 11 	call	0x2228	; 0x2228 <draw_thick_line>
    2384:	20 e3       	ldi	r18, 0x30	; 48
    2386:	48 e4       	ldi	r20, 0x48	; 72
    2388:	60 e2       	ldi	r22, 0x20	; 32
    238a:	88 e4       	ldi	r24, 0x48	; 72
    238c:	0e 94 14 11 	call	0x2228	; 0x2228 <draw_thick_line>
    2390:	20 e3       	ldi	r18, 0x30	; 48
    2392:	48 e6       	ldi	r20, 0x68	; 104
    2394:	60 e3       	ldi	r22, 0x30	; 48
    2396:	88 e4       	ldi	r24, 0x48	; 72
    2398:	0c 94 14 11 	jmp	0x2228	; 0x2228 <draw_thick_line>

0000239c <draw_number_3>:
    239c:	20 e1       	ldi	r18, 0x10	; 16
    239e:	48 e6       	ldi	r20, 0x68	; 104
    23a0:	60 e1       	ldi	r22, 0x10	; 16
    23a2:	88 e4       	ldi	r24, 0x48	; 72
    23a4:	0e 94 14 11 	call	0x2228	; 0x2228 <draw_thick_line>
    23a8:	20 e3       	ldi	r18, 0x30	; 48
    23aa:	48 e6       	ldi	r20, 0x68	; 104
    23ac:	60 e1       	ldi	r22, 0x10	; 16
    23ae:	88 e6       	ldi	r24, 0x68	; 104
    23b0:	0e 94 14 11 	call	0x2228	; 0x2228 <draw_thick_line>
    23b4:	20 e2       	ldi	r18, 0x20	; 32
    23b6:	48 e6       	ldi	r20, 0x68	; 104
    23b8:	60 e2       	ldi	r22, 0x20	; 32
    23ba:	88 e4       	ldi	r24, 0x48	; 72
    23bc:	0e 94 14 11 	call	0x2228	; 0x2228 <draw_thick_line>
    23c0:	20 e3       	ldi	r18, 0x30	; 48
    23c2:	48 e6       	ldi	r20, 0x68	; 104
    23c4:	60 e3       	ldi	r22, 0x30	; 48
    23c6:	88 e4       	ldi	r24, 0x48	; 72
    23c8:	0c 94 14 11 	jmp	0x2228	; 0x2228 <draw_thick_line>

000023cc <draw_number_4>:
    23cc:	20 e2       	ldi	r18, 0x20	; 32
    23ce:	48 e4       	ldi	r20, 0x48	; 72
    23d0:	60 e1       	ldi	r22, 0x10	; 16
    23d2:	88 e4       	ldi	r24, 0x48	; 72
    23d4:	0e 94 14 11 	call	0x2228	; 0x2228 <draw_thick_line>
    23d8:	20 e2       	ldi	r18, 0x20	; 32
    23da:	48 e6       	ldi	r20, 0x68	; 104
    23dc:	60 e2       	ldi	r22, 0x20	; 32
    23de:	88 e4       	ldi	r24, 0x48	; 72
    23e0:	0e 94 14 11 	call	0x2228	; 0x2228 <draw_thick_line>
    23e4:	20 e3       	ldi	r18, 0x30	; 48
    23e6:	48 e6       	ldi	r20, 0x68	; 104
    23e8:	60 e1       	ldi	r22, 0x10	; 16
    23ea:	88 e6       	ldi	r24, 0x68	; 104
    23ec:	0c 94 14 11 	jmp	0x2228	; 0x2228 <draw_thick_line>

000023f0 <draw_number_5>:
    23f0:	20 e1       	ldi	r18, 0x10	; 16
    23f2:	48 e4       	ldi	r20, 0x48	; 72
    23f4:	60 e1       	ldi	r22, 0x10	; 16
    23f6:	88 e6       	ldi	r24, 0x68	; 104
    23f8:	0e 94 14 11 	call	0x2228	; 0x2228 <draw_thick_line>
    23fc:	20 e2       	ldi	r18, 0x20	; 32
    23fe:	48 e4       	ldi	r20, 0x48	; 72
    2400:	60 e1       	ldi	r22, 0x10	; 16
    2402:	88 e4       	ldi	r24, 0x48	; 72
    2404:	0e 94 14 11 	call	0x2228	; 0x2228 <draw_thick_line>
    2408:	20 e2       	ldi	r18, 0x20	; 32
    240a:	48 e6       	ldi	r20, 0x68	; 104
    240c:	60 e2       	ldi	r22, 0x20	; 32
    240e:	88 e4       	ldi	r24, 0x48	; 72
    2410:	0e 94 14 11 	call	0x2228	; 0x2228 <draw_thick_line>
    2414:	20 e3       	ldi	r18, 0x30	; 48
    2416:	48 e6       	ldi	r20, 0x68	; 104
    2418:	60 e2       	ldi	r22, 0x20	; 32
    241a:	88 e6       	ldi	r24, 0x68	; 104
    241c:	0e 94 14 11 	call	0x2228	; 0x2228 <draw_thick_line>
    2420:	20 e3       	ldi	r18, 0x30	; 48
    2422:	48 e6       	ldi	r20, 0x68	; 104
    2424:	60 e3       	ldi	r22, 0x30	; 48
    2426:	88 e4       	ldi	r24, 0x48	; 72
    2428:	0c 94 14 11 	jmp	0x2228	; 0x2228 <draw_thick_line>

0000242c <draw_number_6>:
    242c:	20 e1       	ldi	r18, 0x10	; 16
    242e:	48 e4       	ldi	r20, 0x48	; 72
    2430:	60 e1       	ldi	r22, 0x10	; 16
    2432:	88 e6       	ldi	r24, 0x68	; 104
    2434:	0e 94 14 11 	call	0x2228	; 0x2228 <draw_thick_line>
    2438:	20 e3       	ldi	r18, 0x30	; 48
    243a:	48 e4       	ldi	r20, 0x48	; 72
    243c:	60 e1       	ldi	r22, 0x10	; 16
    243e:	88 e4       	ldi	r24, 0x48	; 72
    2440:	0e 94 14 11 	call	0x2228	; 0x2228 <draw_thick_line>
    2444:	20 e3       	ldi	r18, 0x30	; 48
    2446:	48 e6       	ldi	r20, 0x68	; 104
    2448:	60 e3       	ldi	r22, 0x30	; 48
    244a:	88 e4       	ldi	r24, 0x48	; 72
    244c:	0e 94 14 11 	call	0x2228	; 0x2228 <draw_thick_line>
    2450:	20 e2       	ldi	r18, 0x20	; 32
    2452:	48 e4       	ldi	r20, 0x48	; 72
    2454:	60 e2       	ldi	r22, 0x20	; 32
    2456:	88 e6       	ldi	r24, 0x68	; 104
    2458:	0e 94 14 11 	call	0x2228	; 0x2228 <draw_thick_line>
    245c:	20 e3       	ldi	r18, 0x30	; 48
    245e:	48 e6       	ldi	r20, 0x68	; 104
    2460:	60 e2       	ldi	r22, 0x20	; 32
    2462:	88 e6       	ldi	r24, 0x68	; 104
    2464:	0c 94 14 11 	jmp	0x2228	; 0x2228 <draw_thick_line>

00002468 <draw_number_7>:
    2468:	20 e1       	ldi	r18, 0x10	; 16
    246a:	48 e6       	ldi	r20, 0x68	; 104
    246c:	60 e1       	ldi	r22, 0x10	; 16
    246e:	88 e4       	ldi	r24, 0x48	; 72
    2470:	0e 94 14 11 	call	0x2228	; 0x2228 <draw_thick_line>
    2474:	20 e3       	ldi	r18, 0x30	; 48
    2476:	48 e6       	ldi	r20, 0x68	; 104
    2478:	60 e1       	ldi	r22, 0x10	; 16
    247a:	88 e6       	ldi	r24, 0x68	; 104
    247c:	0c 94 14 11 	jmp	0x2228	; 0x2228 <draw_thick_line>

00002480 <draw_number_8>:
    2480:	20 e1       	ldi	r18, 0x10	; 16
    2482:	48 e6       	ldi	r20, 0x68	; 104
    2484:	60 e1       	ldi	r22, 0x10	; 16
    2486:	88 e4       	ldi	r24, 0x48	; 72
    2488:	0e 94 14 11 	call	0x2228	; 0x2228 <draw_thick_line>
    248c:	20 e3       	ldi	r18, 0x30	; 48
    248e:	48 e6       	ldi	r20, 0x68	; 104
    2490:	60 e3       	ldi	r22, 0x30	; 48
    2492:	88 e4       	ldi	r24, 0x48	; 72
    2494:	0e 94 14 11 	call	0x2228	; 0x2228 <draw_thick_line>
    2498:	20 e3       	ldi	r18, 0x30	; 48
    249a:	48 e4       	ldi	r20, 0x48	; 72
    249c:	60 e1       	ldi	r22, 0x10	; 16
    249e:	88 e4       	ldi	r24, 0x48	; 72
    24a0:	0e 94 14 11 	call	0x2228	; 0x2228 <draw_thick_line>
    24a4:	20 e3       	ldi	r18, 0x30	; 48
    24a6:	48 e6       	ldi	r20, 0x68	; 104
    24a8:	60 e1       	ldi	r22, 0x10	; 16
    24aa:	88 e6       	ldi	r24, 0x68	; 104
    24ac:	0e 94 14 11 	call	0x2228	; 0x2228 <draw_thick_line>
    24b0:	20 e2       	ldi	r18, 0x20	; 32
    24b2:	48 e6       	ldi	r20, 0x68	; 104
    24b4:	60 e2       	ldi	r22, 0x20	; 32
    24b6:	88 e4       	ldi	r24, 0x48	; 72
    24b8:	0c 94 14 11 	jmp	0x2228	; 0x2228 <draw_thick_line>

000024bc <draw_number_9>:
    24bc:	20 e1       	ldi	r18, 0x10	; 16
    24be:	48 e6       	ldi	r20, 0x68	; 104
    24c0:	60 e1       	ldi	r22, 0x10	; 16
    24c2:	88 e4       	ldi	r24, 0x48	; 72
    24c4:	0e 94 14 11 	call	0x2228	; 0x2228 <draw_thick_line>
    24c8:	20 e3       	ldi	r18, 0x30	; 48
    24ca:	48 e6       	ldi	r20, 0x68	; 104
    24cc:	60 e1       	ldi	r22, 0x10	; 16
    24ce:	88 e6       	ldi	r24, 0x68	; 104
    24d0:	0e 94 14 11 	call	0x2228	; 0x2228 <draw_thick_line>
    24d4:	20 e2       	ldi	r18, 0x20	; 32
    24d6:	48 e6       	ldi	r20, 0x68	; 104
    24d8:	60 e2       	ldi	r22, 0x20	; 32
    24da:	88 e4       	ldi	r24, 0x48	; 72
    24dc:	0e 94 14 11 	call	0x2228	; 0x2228 <draw_thick_line>
    24e0:	20 e2       	ldi	r18, 0x20	; 32
    24e2:	48 e4       	ldi	r20, 0x48	; 72
    24e4:	60 e1       	ldi	r22, 0x10	; 16
    24e6:	88 e4       	ldi	r24, 0x48	; 72
    24e8:	0c 94 14 11 	jmp	0x2228	; 0x2228 <draw_thick_line>

000024ec <draw_pikachu>:
    24ec:	0f 93       	push	r16
    24ee:	1f 93       	push	r17
    24f0:	4a e0       	ldi	r20, 0x0A	; 10
    24f2:	60 e2       	ldi	r22, 0x20	; 32
    24f4:	80 e4       	ldi	r24, 0x40	; 64
    24f6:	0e 94 80 10 	call	0x2100	; 0x2100 <oled_draw_circle>
    24fa:	2c e0       	ldi	r18, 0x0C	; 12
    24fc:	46 e3       	ldi	r20, 0x36	; 54
    24fe:	66 e1       	ldi	r22, 0x16	; 22
    2500:	8a e3       	ldi	r24, 0x3A	; 58
    2502:	0e 94 1f 10 	call	0x203e	; 0x203e <oled_draw_line>
    2506:	22 e1       	ldi	r18, 0x12	; 18
    2508:	40 e4       	ldi	r20, 0x40	; 64
    250a:	66 e1       	ldi	r22, 0x16	; 22
    250c:	8a e3       	ldi	r24, 0x3A	; 58
    250e:	0e 94 1f 10 	call	0x203e	; 0x203e <oled_draw_line>
    2512:	2c e0       	ldi	r18, 0x0C	; 12
    2514:	4a e4       	ldi	r20, 0x4A	; 74
    2516:	66 e1       	ldi	r22, 0x16	; 22
    2518:	86 e4       	ldi	r24, 0x46	; 70
    251a:	0e 94 1f 10 	call	0x203e	; 0x203e <oled_draw_line>
    251e:	22 e1       	ldi	r18, 0x12	; 18
    2520:	40 e4       	ldi	r20, 0x40	; 64
    2522:	66 e1       	ldi	r22, 0x16	; 22
    2524:	86 e4       	ldi	r24, 0x46	; 70
    2526:	0e 94 1f 10 	call	0x203e	; 0x203e <oled_draw_line>
    252a:	41 e0       	ldi	r20, 0x01	; 1
    252c:	6e e1       	ldi	r22, 0x1E	; 30
    252e:	8c e3       	ldi	r24, 0x3C	; 60
    2530:	0e 94 80 10 	call	0x2100	; 0x2100 <oled_draw_circle>
    2534:	41 e0       	ldi	r20, 0x01	; 1
    2536:	6e e1       	ldi	r22, 0x1E	; 30
    2538:	84 e4       	ldi	r24, 0x44	; 68
    253a:	0e 94 80 10 	call	0x2100	; 0x2100 <oled_draw_circle>
    253e:	42 e0       	ldi	r20, 0x02	; 2
    2540:	63 e2       	ldi	r22, 0x23	; 35
    2542:	87 e3       	ldi	r24, 0x37	; 55
    2544:	0e 94 80 10 	call	0x2100	; 0x2100 <oled_draw_circle>
    2548:	42 e0       	ldi	r20, 0x02	; 2
    254a:	63 e2       	ldi	r22, 0x23	; 35
    254c:	89 e4       	ldi	r24, 0x49	; 73
    254e:	0e 94 80 10 	call	0x2100	; 0x2100 <oled_draw_circle>
    2552:	04 eb       	ldi	r16, 0xB4	; 180
    2554:	10 e0       	ldi	r17, 0x00	; 0
    2556:	20 e0       	ldi	r18, 0x00	; 0
    2558:	30 e0       	ldi	r19, 0x00	; 0
    255a:	43 e0       	ldi	r20, 0x03	; 3
    255c:	65 e2       	ldi	r22, 0x25	; 37
    255e:	80 e4       	ldi	r24, 0x40	; 64
    2560:	0e 94 32 11 	call	0x2264	; 0x2264 <oled_draw_arc>
    2564:	48 e0       	ldi	r20, 0x08	; 8
    2566:	62 e3       	ldi	r22, 0x32	; 50
    2568:	80 e4       	ldi	r24, 0x40	; 64
    256a:	0e 94 80 10 	call	0x2100	; 0x2100 <oled_draw_circle>
    256e:	20 e3       	ldi	r18, 0x30	; 48
    2570:	44 e3       	ldi	r20, 0x34	; 52
    2572:	6c e2       	ldi	r22, 0x2C	; 44
    2574:	8a e3       	ldi	r24, 0x3A	; 58
    2576:	0e 94 1f 10 	call	0x203e	; 0x203e <oled_draw_line>
    257a:	20 e3       	ldi	r18, 0x30	; 48
    257c:	4c e4       	ldi	r20, 0x4C	; 76
    257e:	6c e2       	ldi	r22, 0x2C	; 44
    2580:	86 e4       	ldi	r24, 0x46	; 70
    2582:	0e 94 1f 10 	call	0x203e	; 0x203e <oled_draw_line>
    2586:	26 e2       	ldi	r18, 0x26	; 38
    2588:	48 e5       	ldi	r20, 0x58	; 88
    258a:	68 e2       	ldi	r22, 0x28	; 40
    258c:	80 e5       	ldi	r24, 0x50	; 80
    258e:	0e 94 1f 10 	call	0x203e	; 0x203e <oled_draw_line>
    2592:	20 e2       	ldi	r18, 0x20	; 32
    2594:	44 e5       	ldi	r20, 0x54	; 84
    2596:	66 e2       	ldi	r22, 0x26	; 38
    2598:	88 e5       	ldi	r24, 0x58	; 88
    259a:	0e 94 1f 10 	call	0x203e	; 0x203e <oled_draw_line>
    259e:	2e e1       	ldi	r18, 0x1E	; 30
    25a0:	4a e5       	ldi	r20, 0x5A	; 90
    25a2:	60 e2       	ldi	r22, 0x20	; 32
    25a4:	84 e5       	ldi	r24, 0x54	; 84
    25a6:	1f 91       	pop	r17
    25a8:	0f 91       	pop	r16
    25aa:	0c 94 1f 10 	jmp	0x203e	; 0x203e <oled_draw_line>

000025ae <draw_sunset_with_pikachu_and_ash>:
    25ae:	0f 93       	push	r16
    25b0:	1f 93       	push	r17
    25b2:	4c e0       	ldi	r20, 0x0C	; 12
    25b4:	64 e1       	ldi	r22, 0x14	; 20
    25b6:	80 e6       	ldi	r24, 0x60	; 96
    25b8:	0e 94 80 10 	call	0x2100	; 0x2100 <oled_draw_circle>
    25bc:	07 e8       	ldi	r16, 0x87	; 135
    25be:	10 e0       	ldi	r17, 0x00	; 0
    25c0:	2d e2       	ldi	r18, 0x2D	; 45
    25c2:	30 e0       	ldi	r19, 0x00	; 0
    25c4:	40 e1       	ldi	r20, 0x10	; 16
    25c6:	64 e1       	ldi	r22, 0x14	; 20
    25c8:	80 e6       	ldi	r24, 0x60	; 96
    25ca:	0e 94 32 11 	call	0x2264	; 0x2264 <oled_draw_arc>
    25ce:	01 ee       	ldi	r16, 0xE1	; 225
    25d0:	10 e0       	ldi	r17, 0x00	; 0
    25d2:	27 e8       	ldi	r18, 0x87	; 135
    25d4:	30 e0       	ldi	r19, 0x00	; 0
    25d6:	40 e1       	ldi	r20, 0x10	; 16
    25d8:	64 e1       	ldi	r22, 0x14	; 20
    25da:	80 e6       	ldi	r24, 0x60	; 96
    25dc:	0e 94 32 11 	call	0x2264	; 0x2264 <oled_draw_arc>
    25e0:	0b e3       	ldi	r16, 0x3B	; 59
    25e2:	11 e0       	ldi	r17, 0x01	; 1
    25e4:	21 ee       	ldi	r18, 0xE1	; 225
    25e6:	30 e0       	ldi	r19, 0x00	; 0
    25e8:	40 e1       	ldi	r20, 0x10	; 16
    25ea:	64 e1       	ldi	r22, 0x14	; 20
    25ec:	80 e6       	ldi	r24, 0x60	; 96
    25ee:	0e 94 32 11 	call	0x2264	; 0x2264 <oled_draw_arc>
    25f2:	0d e2       	ldi	r16, 0x2D	; 45
    25f4:	10 e0       	ldi	r17, 0x00	; 0
    25f6:	2b e3       	ldi	r18, 0x3B	; 59
    25f8:	31 e0       	ldi	r19, 0x01	; 1
    25fa:	40 e1       	ldi	r20, 0x10	; 16
    25fc:	64 e1       	ldi	r22, 0x14	; 20
    25fe:	80 e6       	ldi	r24, 0x60	; 96
    2600:	0e 94 32 11 	call	0x2264	; 0x2264 <oled_draw_arc>
    2604:	20 e3       	ldi	r18, 0x30	; 48
    2606:	40 e2       	ldi	r20, 0x20	; 32
    2608:	60 e4       	ldi	r22, 0x40	; 64
    260a:	80 e0       	ldi	r24, 0x00	; 0
    260c:	0e 94 1f 10 	call	0x203e	; 0x203e <oled_draw_line>
    2610:	28 e3       	ldi	r18, 0x38	; 56
    2612:	40 e4       	ldi	r20, 0x40	; 64
    2614:	60 e3       	ldi	r22, 0x30	; 48
    2616:	80 e2       	ldi	r24, 0x20	; 32
    2618:	0e 94 1f 10 	call	0x203e	; 0x203e <oled_draw_line>
    261c:	28 e2       	ldi	r18, 0x28	; 40
    261e:	40 e6       	ldi	r20, 0x60	; 96
    2620:	68 e3       	ldi	r22, 0x38	; 56
    2622:	80 e4       	ldi	r24, 0x40	; 64
    2624:	0e 94 1f 10 	call	0x203e	; 0x203e <oled_draw_line>
    2628:	20 e4       	ldi	r18, 0x40	; 64
    262a:	40 e8       	ldi	r20, 0x80	; 128
    262c:	68 e2       	ldi	r22, 0x28	; 40
    262e:	80 e6       	ldi	r24, 0x60	; 96
    2630:	0e 94 1f 10 	call	0x203e	; 0x203e <oled_draw_line>
    2634:	24 e3       	ldi	r18, 0x34	; 52
    2636:	40 e2       	ldi	r20, 0x20	; 32
    2638:	6c e3       	ldi	r22, 0x3C	; 60
    263a:	80 e0       	ldi	r24, 0x00	; 0
    263c:	0e 94 1f 10 	call	0x203e	; 0x203e <oled_draw_line>
    2640:	2c e3       	ldi	r18, 0x3C	; 60
    2642:	40 e4       	ldi	r20, 0x40	; 64
    2644:	64 e3       	ldi	r22, 0x34	; 52
    2646:	80 e2       	ldi	r24, 0x20	; 32
    2648:	0e 94 1f 10 	call	0x203e	; 0x203e <oled_draw_line>
    264c:	24 e3       	ldi	r18, 0x34	; 52
    264e:	40 e6       	ldi	r20, 0x60	; 96
    2650:	6c e3       	ldi	r22, 0x3C	; 60
    2652:	80 e4       	ldi	r24, 0x40	; 64
    2654:	0e 94 1f 10 	call	0x203e	; 0x203e <oled_draw_line>
    2658:	2c e3       	ldi	r18, 0x3C	; 60
    265a:	40 e8       	ldi	r20, 0x80	; 128
    265c:	64 e3       	ldi	r22, 0x34	; 52
    265e:	80 e6       	ldi	r24, 0x60	; 96
    2660:	0e 94 1f 10 	call	0x203e	; 0x203e <oled_draw_line>
    2664:	43 e0       	ldi	r20, 0x03	; 3
    2666:	63 e2       	ldi	r22, 0x23	; 35
    2668:	82 e3       	ldi	r24, 0x32	; 50
    266a:	0e 94 80 10 	call	0x2100	; 0x2100 <oled_draw_circle>
    266e:	23 e2       	ldi	r18, 0x23	; 35
    2670:	45 e3       	ldi	r20, 0x35	; 53
    2672:	63 e2       	ldi	r22, 0x23	; 35
    2674:	8f e2       	ldi	r24, 0x2F	; 47
    2676:	0e 94 1f 10 	call	0x203e	; 0x203e <oled_draw_line>
    267a:	2d e2       	ldi	r18, 0x2D	; 45
    267c:	42 e3       	ldi	r20, 0x32	; 50
    267e:	66 e2       	ldi	r22, 0x26	; 38
    2680:	82 e3       	ldi	r24, 0x32	; 50
    2682:	0e 94 1f 10 	call	0x203e	; 0x203e <oled_draw_line>
    2686:	2a e2       	ldi	r18, 0x2A	; 42
    2688:	4d e2       	ldi	r20, 0x2D	; 45
    268a:	68 e2       	ldi	r22, 0x28	; 40
    268c:	82 e3       	ldi	r24, 0x32	; 50
    268e:	0e 94 1f 10 	call	0x203e	; 0x203e <oled_draw_line>
    2692:	2a e2       	ldi	r18, 0x2A	; 42
    2694:	47 e3       	ldi	r20, 0x37	; 55
    2696:	68 e2       	ldi	r22, 0x28	; 40
    2698:	82 e3       	ldi	r24, 0x32	; 50
    269a:	0e 94 1f 10 	call	0x203e	; 0x203e <oled_draw_line>
    269e:	22 e3       	ldi	r18, 0x32	; 50
    26a0:	4f e2       	ldi	r20, 0x2F	; 47
    26a2:	6d e2       	ldi	r22, 0x2D	; 45
    26a4:	82 e3       	ldi	r24, 0x32	; 50
    26a6:	0e 94 1f 10 	call	0x203e	; 0x203e <oled_draw_line>
    26aa:	22 e3       	ldi	r18, 0x32	; 50
    26ac:	45 e3       	ldi	r20, 0x35	; 53
    26ae:	6d e2       	ldi	r22, 0x2D	; 45
    26b0:	82 e3       	ldi	r24, 0x32	; 50
    26b2:	0e 94 1f 10 	call	0x203e	; 0x203e <oled_draw_line>
    26b6:	42 e0       	ldi	r20, 0x02	; 2
    26b8:	63 e2       	ldi	r22, 0x23	; 35
    26ba:	8a e3       	ldi	r24, 0x3A	; 58
    26bc:	0e 94 80 10 	call	0x2100	; 0x2100 <oled_draw_circle>
    26c0:	21 e2       	ldi	r18, 0x21	; 33
    26c2:	49 e3       	ldi	r20, 0x39	; 57
    26c4:	6e e1       	ldi	r22, 0x1E	; 30
    26c6:	88 e3       	ldi	r24, 0x38	; 56
    26c8:	0e 94 1f 10 	call	0x203e	; 0x203e <oled_draw_line>
    26cc:	21 e2       	ldi	r18, 0x21	; 33
    26ce:	4b e3       	ldi	r20, 0x3B	; 59
    26d0:	6e e1       	ldi	r22, 0x1E	; 30
    26d2:	8c e3       	ldi	r24, 0x3C	; 60
    26d4:	0e 94 1f 10 	call	0x203e	; 0x203e <oled_draw_line>
    26d8:	41 e0       	ldi	r20, 0x01	; 1
    26da:	64 e2       	ldi	r22, 0x24	; 36
    26dc:	88 e3       	ldi	r24, 0x38	; 56
    26de:	0e 94 80 10 	call	0x2100	; 0x2100 <oled_draw_circle>
    26e2:	41 e0       	ldi	r20, 0x01	; 1
    26e4:	64 e2       	ldi	r22, 0x24	; 36
    26e6:	8c e3       	ldi	r24, 0x3C	; 60
    26e8:	0e 94 80 10 	call	0x2100	; 0x2100 <oled_draw_circle>
    26ec:	2a e2       	ldi	r18, 0x2A	; 42
    26ee:	4a e3       	ldi	r20, 0x3A	; 58
    26f0:	65 e2       	ldi	r22, 0x25	; 37
    26f2:	8a e3       	ldi	r24, 0x3A	; 58
    26f4:	0e 94 1f 10 	call	0x203e	; 0x203e <oled_draw_line>
    26f8:	2a e2       	ldi	r18, 0x2A	; 42
    26fa:	46 e3       	ldi	r20, 0x36	; 54
    26fc:	68 e2       	ldi	r22, 0x28	; 40
    26fe:	88 e3       	ldi	r24, 0x38	; 56
    2700:	0e 94 1f 10 	call	0x203e	; 0x203e <oled_draw_line>
    2704:	2a e2       	ldi	r18, 0x2A	; 42
    2706:	4e e3       	ldi	r20, 0x3E	; 62
    2708:	68 e2       	ldi	r22, 0x28	; 40
    270a:	8c e3       	ldi	r24, 0x3C	; 60
    270c:	0e 94 1f 10 	call	0x203e	; 0x203e <oled_draw_line>
    2710:	2e e2       	ldi	r18, 0x2E	; 46
    2712:	48 e3       	ldi	r20, 0x38	; 56
    2714:	6a e2       	ldi	r22, 0x2A	; 42
    2716:	8a e3       	ldi	r24, 0x3A	; 58
    2718:	0e 94 1f 10 	call	0x203e	; 0x203e <oled_draw_line>
    271c:	2e e2       	ldi	r18, 0x2E	; 46
    271e:	4c e3       	ldi	r20, 0x3C	; 60
    2720:	6a e2       	ldi	r22, 0x2A	; 42
    2722:	8a e3       	ldi	r24, 0x3A	; 58
    2724:	0e 94 1f 10 	call	0x203e	; 0x203e <oled_draw_line>
    2728:	21 e2       	ldi	r18, 0x21	; 33
    272a:	44 e4       	ldi	r20, 0x44	; 68
    272c:	63 e2       	ldi	r22, 0x23	; 35
    272e:	8f e3       	ldi	r24, 0x3F	; 63
    2730:	0e 94 1f 10 	call	0x203e	; 0x203e <oled_draw_line>
    2734:	2e e1       	ldi	r18, 0x1E	; 30
    2736:	41 e4       	ldi	r20, 0x41	; 65
    2738:	61 e2       	ldi	r22, 0x21	; 33
    273a:	84 e4       	ldi	r24, 0x44	; 68
    273c:	0e 94 1f 10 	call	0x203e	; 0x203e <oled_draw_line>
    2740:	2c e1       	ldi	r18, 0x1C	; 28
    2742:	46 e4       	ldi	r20, 0x46	; 70
    2744:	6e e1       	ldi	r22, 0x1E	; 30
    2746:	81 e4       	ldi	r24, 0x41	; 65
    2748:	1f 91       	pop	r17
    274a:	0f 91       	pop	r16
    274c:	0c 94 1f 10 	jmp	0x203e	; 0x203e <oled_draw_line>

00002750 <draw_ash_laughing_normal>:
    2750:	0f 93       	push	r16
    2752:	1f 93       	push	r17
    2754:	4c e0       	ldi	r20, 0x0C	; 12
    2756:	6e e1       	ldi	r22, 0x1E	; 30
    2758:	88 e2       	ldi	r24, 0x28	; 40
    275a:	0e 94 80 10 	call	0x2100	; 0x2100 <oled_draw_circle>
    275e:	2e e1       	ldi	r18, 0x1E	; 30
    2760:	44 e3       	ldi	r20, 0x34	; 52
    2762:	6e e1       	ldi	r22, 0x1E	; 30
    2764:	8c e1       	ldi	r24, 0x1C	; 28
    2766:	0e 94 1f 10 	call	0x203e	; 0x203e <oled_draw_line>
    276a:	2c e3       	ldi	r18, 0x3C	; 60
    276c:	48 e2       	ldi	r20, 0x28	; 40
    276e:	6a e2       	ldi	r22, 0x2A	; 42
    2770:	88 e2       	ldi	r24, 0x28	; 40
    2772:	0e 94 1f 10 	call	0x203e	; 0x203e <oled_draw_line>
    2776:	27 e3       	ldi	r18, 0x37	; 55
    2778:	49 e1       	ldi	r20, 0x19	; 25
    277a:	6d e2       	ldi	r22, 0x2D	; 45
    277c:	88 e2       	ldi	r24, 0x28	; 40
    277e:	0e 94 1f 10 	call	0x203e	; 0x203e <oled_draw_line>
    2782:	27 e3       	ldi	r18, 0x37	; 55
    2784:	47 e3       	ldi	r20, 0x37	; 55
    2786:	6d e2       	ldi	r22, 0x2D	; 45
    2788:	88 e2       	ldi	r24, 0x28	; 40
    278a:	0e 94 1f 10 	call	0x203e	; 0x203e <oled_draw_line>
    278e:	42 e0       	ldi	r20, 0x02	; 2
    2790:	62 e2       	ldi	r22, 0x22	; 34
    2792:	84 e2       	ldi	r24, 0x24	; 36
    2794:	0e 94 80 10 	call	0x2100	; 0x2100 <oled_draw_circle>
    2798:	42 e0       	ldi	r20, 0x02	; 2
    279a:	62 e2       	ldi	r22, 0x22	; 34
    279c:	8c e2       	ldi	r24, 0x2C	; 44
    279e:	0e 94 80 10 	call	0x2100	; 0x2100 <oled_draw_circle>
    27a2:	04 eb       	ldi	r16, 0xB4	; 180
    27a4:	10 e0       	ldi	r17, 0x00	; 0
    27a6:	20 e0       	ldi	r18, 0x00	; 0
    27a8:	30 e0       	ldi	r19, 0x00	; 0
    27aa:	46 e0       	ldi	r20, 0x06	; 6
    27ac:	62 e3       	ldi	r22, 0x32	; 50
    27ae:	88 e2       	ldi	r24, 0x28	; 40
    27b0:	0e 94 32 11 	call	0x2264	; 0x2264 <oled_draw_arc>
    27b4:	1f 91       	pop	r17
    27b6:	0f 91       	pop	r16
    27b8:	08 95       	ret

000027ba <draw_ash_laughing_hard>:
    27ba:	0f 93       	push	r16
    27bc:	1f 93       	push	r17
    27be:	4c e0       	ldi	r20, 0x0C	; 12
    27c0:	6e e1       	ldi	r22, 0x1E	; 30
    27c2:	88 e2       	ldi	r24, 0x28	; 40
    27c4:	0e 94 80 10 	call	0x2100	; 0x2100 <oled_draw_circle>
    27c8:	2e e1       	ldi	r18, 0x1E	; 30
    27ca:	44 e3       	ldi	r20, 0x34	; 52
    27cc:	6e e1       	ldi	r22, 0x1E	; 30
    27ce:	8c e1       	ldi	r24, 0x1C	; 28
    27d0:	0e 94 1f 10 	call	0x203e	; 0x203e <oled_draw_line>
    27d4:	2c e3       	ldi	r18, 0x3C	; 60
    27d6:	48 e2       	ldi	r20, 0x28	; 40
    27d8:	6a e2       	ldi	r22, 0x2A	; 42
    27da:	88 e2       	ldi	r24, 0x28	; 40
    27dc:	0e 94 1f 10 	call	0x203e	; 0x203e <oled_draw_line>
    27e0:	27 e3       	ldi	r18, 0x37	; 55
    27e2:	49 e1       	ldi	r20, 0x19	; 25
    27e4:	6d e2       	ldi	r22, 0x2D	; 45
    27e6:	88 e2       	ldi	r24, 0x28	; 40
    27e8:	0e 94 1f 10 	call	0x203e	; 0x203e <oled_draw_line>
    27ec:	27 e3       	ldi	r18, 0x37	; 55
    27ee:	47 e3       	ldi	r20, 0x37	; 55
    27f0:	6d e2       	ldi	r22, 0x2D	; 45
    27f2:	88 e2       	ldi	r24, 0x28	; 40
    27f4:	0e 94 1f 10 	call	0x203e	; 0x203e <oled_draw_line>
    27f8:	22 e2       	ldi	r18, 0x22	; 34
    27fa:	44 e2       	ldi	r20, 0x24	; 36
    27fc:	62 e2       	ldi	r22, 0x22	; 34
    27fe:	84 e2       	ldi	r24, 0x24	; 36
    2800:	0e 94 1f 10 	call	0x203e	; 0x203e <oled_draw_line>
    2804:	22 e2       	ldi	r18, 0x22	; 34
    2806:	4c e2       	ldi	r20, 0x2C	; 44
    2808:	62 e2       	ldi	r22, 0x22	; 34
    280a:	8c e2       	ldi	r24, 0x2C	; 44
    280c:	0e 94 1f 10 	call	0x203e	; 0x203e <oled_draw_line>
    2810:	04 eb       	ldi	r16, 0xB4	; 180
    2812:	10 e0       	ldi	r17, 0x00	; 0
    2814:	20 e0       	ldi	r18, 0x00	; 0
    2816:	30 e0       	ldi	r19, 0x00	; 0
    2818:	46 e0       	ldi	r20, 0x06	; 6
    281a:	62 e3       	ldi	r22, 0x32	; 50
    281c:	88 e2       	ldi	r24, 0x28	; 40
    281e:	0e 94 32 11 	call	0x2264	; 0x2264 <oled_draw_arc>
    2822:	42 e0       	ldi	r20, 0x02	; 2
    2824:	6d e2       	ldi	r22, 0x2D	; 45
    2826:	82 e2       	ldi	r24, 0x22	; 34
    2828:	0e 94 80 10 	call	0x2100	; 0x2100 <oled_draw_circle>
    282c:	42 e0       	ldi	r20, 0x02	; 2
    282e:	6d e2       	ldi	r22, 0x2D	; 45
    2830:	8e e2       	ldi	r24, 0x2E	; 46
    2832:	1f 91       	pop	r17
    2834:	0f 91       	pop	r16
    2836:	0c 94 80 10 	jmp	0x2100	; 0x2100 <oled_draw_circle>

0000283a <draw_pikachu_laughing_normal>:
    283a:	0f 93       	push	r16
    283c:	1f 93       	push	r17
    283e:	4a e0       	ldi	r20, 0x0A	; 10
    2840:	6e e1       	ldi	r22, 0x1E	; 30
    2842:	8a e5       	ldi	r24, 0x5A	; 90
    2844:	0e 94 80 10 	call	0x2100	; 0x2100 <oled_draw_circle>
    2848:	29 e1       	ldi	r18, 0x19	; 25
    284a:	48 e5       	ldi	r20, 0x58	; 88
    284c:	62 e1       	ldi	r22, 0x12	; 18
    284e:	85 e5       	ldi	r24, 0x55	; 85
    2850:	0e 94 1f 10 	call	0x203e	; 0x203e <oled_draw_line>
    2854:	29 e1       	ldi	r18, 0x19	; 25
    2856:	4c e5       	ldi	r20, 0x5C	; 92
    2858:	62 e1       	ldi	r22, 0x12	; 18
    285a:	8f e5       	ldi	r24, 0x5F	; 95
    285c:	0e 94 1f 10 	call	0x203e	; 0x203e <oled_draw_line>
    2860:	42 e0       	ldi	r20, 0x02	; 2
    2862:	64 e2       	ldi	r22, 0x24	; 36
    2864:	86 e5       	ldi	r24, 0x56	; 86
    2866:	0e 94 80 10 	call	0x2100	; 0x2100 <oled_draw_circle>
    286a:	42 e0       	ldi	r20, 0x02	; 2
    286c:	64 e2       	ldi	r22, 0x24	; 36
    286e:	8e e5       	ldi	r24, 0x5E	; 94
    2870:	0e 94 80 10 	call	0x2100	; 0x2100 <oled_draw_circle>
    2874:	2c e3       	ldi	r18, 0x3C	; 60
    2876:	4a e5       	ldi	r20, 0x5A	; 90
    2878:	68 e2       	ldi	r22, 0x28	; 40
    287a:	8a e5       	ldi	r24, 0x5A	; 90
    287c:	0e 94 1f 10 	call	0x203e	; 0x203e <oled_draw_line>
    2880:	27 e3       	ldi	r18, 0x37	; 55
    2882:	4b e4       	ldi	r20, 0x4B	; 75
    2884:	6d e2       	ldi	r22, 0x2D	; 45
    2886:	85 e5       	ldi	r24, 0x55	; 85
    2888:	0e 94 1f 10 	call	0x203e	; 0x203e <oled_draw_line>
    288c:	27 e3       	ldi	r18, 0x37	; 55
    288e:	49 e6       	ldi	r20, 0x69	; 105
    2890:	6d e2       	ldi	r22, 0x2D	; 45
    2892:	8f e5       	ldi	r24, 0x5F	; 95
    2894:	0e 94 1f 10 	call	0x203e	; 0x203e <oled_draw_line>
    2898:	42 e0       	ldi	r20, 0x02	; 2
    289a:	62 e2       	ldi	r22, 0x22	; 34
    289c:	88 e5       	ldi	r24, 0x58	; 88
    289e:	0e 94 80 10 	call	0x2100	; 0x2100 <oled_draw_circle>
    28a2:	42 e0       	ldi	r20, 0x02	; 2
    28a4:	62 e2       	ldi	r22, 0x22	; 34
    28a6:	8c e5       	ldi	r24, 0x5C	; 92
    28a8:	0e 94 80 10 	call	0x2100	; 0x2100 <oled_draw_circle>
    28ac:	04 eb       	ldi	r16, 0xB4	; 180
    28ae:	10 e0       	ldi	r17, 0x00	; 0
    28b0:	20 e0       	ldi	r18, 0x00	; 0
    28b2:	30 e0       	ldi	r19, 0x00	; 0
    28b4:	44 e0       	ldi	r20, 0x04	; 4
    28b6:	62 e3       	ldi	r22, 0x32	; 50
    28b8:	8a e5       	ldi	r24, 0x5A	; 90
    28ba:	0e 94 32 11 	call	0x2264	; 0x2264 <oled_draw_arc>
    28be:	1f 91       	pop	r17
    28c0:	0f 91       	pop	r16
    28c2:	08 95       	ret

000028c4 <draw_pikachu_laughing_hard>:
    28c4:	0f 93       	push	r16
    28c6:	1f 93       	push	r17
    28c8:	4a e0       	ldi	r20, 0x0A	; 10
    28ca:	6e e1       	ldi	r22, 0x1E	; 30
    28cc:	8a e5       	ldi	r24, 0x5A	; 90
    28ce:	0e 94 80 10 	call	0x2100	; 0x2100 <oled_draw_circle>
    28d2:	29 e1       	ldi	r18, 0x19	; 25
    28d4:	48 e5       	ldi	r20, 0x58	; 88
    28d6:	62 e1       	ldi	r22, 0x12	; 18
    28d8:	85 e5       	ldi	r24, 0x55	; 85
    28da:	0e 94 1f 10 	call	0x203e	; 0x203e <oled_draw_line>
    28de:	29 e1       	ldi	r18, 0x19	; 25
    28e0:	4c e5       	ldi	r20, 0x5C	; 92
    28e2:	62 e1       	ldi	r22, 0x12	; 18
    28e4:	8f e5       	ldi	r24, 0x5F	; 95
    28e6:	0e 94 1f 10 	call	0x203e	; 0x203e <oled_draw_line>
    28ea:	42 e0       	ldi	r20, 0x02	; 2
    28ec:	64 e2       	ldi	r22, 0x24	; 36
    28ee:	86 e5       	ldi	r24, 0x56	; 86
    28f0:	0e 94 80 10 	call	0x2100	; 0x2100 <oled_draw_circle>
    28f4:	42 e0       	ldi	r20, 0x02	; 2
    28f6:	64 e2       	ldi	r22, 0x24	; 36
    28f8:	8e e5       	ldi	r24, 0x5E	; 94
    28fa:	0e 94 80 10 	call	0x2100	; 0x2100 <oled_draw_circle>
    28fe:	2c e3       	ldi	r18, 0x3C	; 60
    2900:	4a e5       	ldi	r20, 0x5A	; 90
    2902:	68 e2       	ldi	r22, 0x28	; 40
    2904:	8a e5       	ldi	r24, 0x5A	; 90
    2906:	0e 94 1f 10 	call	0x203e	; 0x203e <oled_draw_line>
    290a:	27 e3       	ldi	r18, 0x37	; 55
    290c:	4b e4       	ldi	r20, 0x4B	; 75
    290e:	6d e2       	ldi	r22, 0x2D	; 45
    2910:	85 e5       	ldi	r24, 0x55	; 85
    2912:	0e 94 1f 10 	call	0x203e	; 0x203e <oled_draw_line>
    2916:	27 e3       	ldi	r18, 0x37	; 55
    2918:	49 e6       	ldi	r20, 0x69	; 105
    291a:	6d e2       	ldi	r22, 0x2D	; 45
    291c:	8f e5       	ldi	r24, 0x5F	; 95
    291e:	0e 94 1f 10 	call	0x203e	; 0x203e <oled_draw_line>
    2922:	22 e2       	ldi	r18, 0x22	; 34
    2924:	48 e5       	ldi	r20, 0x58	; 88
    2926:	62 e2       	ldi	r22, 0x22	; 34
    2928:	88 e5       	ldi	r24, 0x58	; 88
    292a:	0e 94 1f 10 	call	0x203e	; 0x203e <oled_draw_line>
    292e:	22 e2       	ldi	r18, 0x22	; 34
    2930:	4c e5       	ldi	r20, 0x5C	; 92
    2932:	62 e2       	ldi	r22, 0x22	; 34
    2934:	8c e5       	ldi	r24, 0x5C	; 92
    2936:	0e 94 1f 10 	call	0x203e	; 0x203e <oled_draw_line>
    293a:	04 eb       	ldi	r16, 0xB4	; 180
    293c:	10 e0       	ldi	r17, 0x00	; 0
    293e:	20 e0       	ldi	r18, 0x00	; 0
    2940:	30 e0       	ldi	r19, 0x00	; 0
    2942:	45 e0       	ldi	r20, 0x05	; 5
    2944:	62 e3       	ldi	r22, 0x32	; 50
    2946:	8a e5       	ldi	r24, 0x5A	; 90
    2948:	0e 94 32 11 	call	0x2264	; 0x2264 <oled_draw_arc>
    294c:	42 e0       	ldi	r20, 0x02	; 2
    294e:	6e e2       	ldi	r22, 0x2E	; 46
    2950:	84 e5       	ldi	r24, 0x54	; 84
    2952:	0e 94 80 10 	call	0x2100	; 0x2100 <oled_draw_circle>
    2956:	42 e0       	ldi	r20, 0x02	; 2
    2958:	6e e2       	ldi	r22, 0x2E	; 46
    295a:	80 e6       	ldi	r24, 0x60	; 96
    295c:	1f 91       	pop	r17
    295e:	0f 91       	pop	r16
    2960:	0c 94 80 10 	jmp	0x2100	; 0x2100 <oled_draw_circle>

00002964 <animate_ash_and_pikachu_laughing>:
    2964:	1f 93       	push	r17
    2966:	cf 93       	push	r28
    2968:	df 93       	push	r29
    296a:	0e 94 0f 10 	call	0x201e	; 0x201e <oled_clear_screen>
    296e:	0e 94 62 14 	call	0x28c4	; 0x28c4 <draw_pikachu_laughing_hard>
    2972:	66 e6       	ldi	r22, 0x66	; 102
    2974:	73 e0       	ldi	r23, 0x03	; 3
    2976:	80 e0       	ldi	r24, 0x00	; 0
    2978:	0e 94 28 0e 	call	0x1c50	; 0x1c50 <oled_write_line_to_SRAM.part.1>
    297c:	0e 94 fe 0e 	call	0x1dfc	; 0x1dfc <oled_data_from_SRAM>
    2980:	15 e9       	ldi	r17, 0x95	; 149
    2982:	c7 e7       	ldi	r28, 0x77	; 119
    2984:	d3 e0       	ldi	r29, 0x03	; 3
    2986:	80 91 9f 03 	lds	r24, 0x039F	; 0x80039f <board+0x6>
    298a:	81 30       	cpi	r24, 0x01	; 1
    298c:	09 f4       	brne	.+2      	; 0x2990 <animate_ash_and_pikachu_laughing+0x2c>
    298e:	46 c0       	rjmp	.+140    	; 0x2a1c <animate_ash_and_pikachu_laughing+0xb8>
    2990:	89 e9       	ldi	r24, 0x99	; 153
    2992:	93 e0       	ldi	r25, 0x03	; 3
    2994:	0e 94 08 0d 	call	0x1a10	; 0x1a10 <MultiBoard_Update>
    2998:	80 91 93 03 	lds	r24, 0x0393	; 0x800393 <screen_count>
    299c:	82 30       	cpi	r24, 0x02	; 2
    299e:	71 f4       	brne	.+28     	; 0x29bc <animate_ash_and_pikachu_laughing+0x58>
    29a0:	80 91 98 03 	lds	r24, 0x0398	; 0x800398 <screen_count_two>
    29a4:	8f 5f       	subi	r24, 0xFF	; 255
    29a6:	80 93 98 03 	sts	0x0398, r24	; 0x800398 <screen_count_two>
    29aa:	80 91 98 03 	lds	r24, 0x0398	; 0x800398 <screen_count_two>
    29ae:	87 36       	cpi	r24, 0x67	; 103
    29b0:	28 f0       	brcs	.+10     	; 0x29bc <animate_ash_and_pikachu_laughing+0x58>
    29b2:	80 91 97 03 	lds	r24, 0x0397	; 0x800397 <loooser.2673>
    29b6:	8f 5f       	subi	r24, 0xFF	; 255
    29b8:	80 93 97 03 	sts	0x0397, r24	; 0x800397 <loooser.2673>
    29bc:	80 91 97 03 	lds	r24, 0x0397	; 0x800397 <loooser.2673>
    29c0:	91 e0       	ldi	r25, 0x01	; 1
    29c2:	85 39       	cpi	r24, 0x95	; 149
    29c4:	08 f4       	brcc	.+2      	; 0x29c8 <animate_ash_and_pikachu_laughing+0x64>
    29c6:	90 e0       	ldi	r25, 0x00	; 0
    29c8:	91 9f       	mul	r25, r17
    29ca:	80 19       	sub	r24, r0
    29cc:	11 24       	eor	r1, r1
    29ce:	81 11       	cpse	r24, r1
    29d0:	0d c0       	rjmp	.+26     	; 0x29ec <animate_ash_and_pikachu_laughing+0x88>
    29d2:	0e 94 0f 10 	call	0x201e	; 0x201e <oled_clear_screen>
    29d6:	66 e6       	ldi	r22, 0x66	; 102
    29d8:	73 e0       	ldi	r23, 0x03	; 3
    29da:	80 e0       	ldi	r24, 0x00	; 0
    29dc:	0e 94 28 0e 	call	0x1c50	; 0x1c50 <oled_write_line_to_SRAM.part.1>
    29e0:	0e 94 a8 13 	call	0x2750	; 0x2750 <draw_ash_laughing_normal>
    29e4:	0e 94 1d 14 	call	0x283a	; 0x283a <draw_pikachu_laughing_normal>
    29e8:	0e 94 fe 0e 	call	0x1dfc	; 0x1dfc <oled_data_from_SRAM>
    29ec:	80 91 97 03 	lds	r24, 0x0397	; 0x800397 <loooser.2673>
    29f0:	81 11       	cpse	r24, r1
    29f2:	0d c0       	rjmp	.+26     	; 0x2a0e <animate_ash_and_pikachu_laughing+0xaa>
    29f4:	0e 94 0f 10 	call	0x201e	; 0x201e <oled_clear_screen>
    29f8:	66 e6       	ldi	r22, 0x66	; 102
    29fa:	73 e0       	ldi	r23, 0x03	; 3
    29fc:	80 e0       	ldi	r24, 0x00	; 0
    29fe:	0e 94 28 0e 	call	0x1c50	; 0x1c50 <oled_write_line_to_SRAM.part.1>
    2a02:	0e 94 dd 13 	call	0x27ba	; 0x27ba <draw_ash_laughing_hard>
    2a06:	0e 94 62 14 	call	0x28c4	; 0x28c4 <draw_pikachu_laughing_hard>
    2a0a:	0e 94 fe 0e 	call	0x1dfc	; 0x1dfc <oled_data_from_SRAM>
    2a0e:	df 93       	push	r29
    2a10:	cf 93       	push	r28
    2a12:	0e 94 c3 15 	call	0x2b86	; 0x2b86 <printf>
    2a16:	0f 90       	pop	r0
    2a18:	0f 90       	pop	r0
    2a1a:	b5 cf       	rjmp	.-150    	; 0x2986 <animate_ash_and_pikachu_laughing+0x22>
    2a1c:	df 91       	pop	r29
    2a1e:	cf 91       	pop	r28
    2a20:	1f 91       	pop	r17
    2a22:	08 95       	ret

00002a24 <setup_timer>:
    2a24:	1f bc       	out	0x2f, r1	; 47
    2a26:	8e b5       	in	r24, 0x2e	; 46
    2a28:	81 60       	ori	r24, 0x01	; 1
    2a2a:	8e bd       	out	0x2e, r24	; 46
    2a2c:	89 b7       	in	r24, 0x39	; 57
    2a2e:	80 68       	ori	r24, 0x80	; 128
    2a30:	89 bf       	out	0x39, r24	; 57
    2a32:	1d bc       	out	0x2d, r1	; 45
    2a34:	1c bc       	out	0x2c, r1	; 44
    2a36:	08 95       	ret

00002a38 <count_digits>:
    2a38:	00 97       	sbiw	r24, 0x00	; 0
    2a3a:	71 f0       	breq	.+28     	; 0x2a58 <count_digits+0x20>
    2a3c:	20 e0       	ldi	r18, 0x00	; 0
    2a3e:	30 e0       	ldi	r19, 0x00	; 0
    2a40:	ea e0       	ldi	r30, 0x0A	; 10
    2a42:	f0 e0       	ldi	r31, 0x00	; 0
    2a44:	bf 01       	movw	r22, r30
    2a46:	0e 94 95 15 	call	0x2b2a	; 0x2b2a <__udivmodhi4>
    2a4a:	cb 01       	movw	r24, r22
    2a4c:	2f 5f       	subi	r18, 0xFF	; 255
    2a4e:	3f 4f       	sbci	r19, 0xFF	; 255
    2a50:	00 97       	sbiw	r24, 0x00	; 0
    2a52:	c1 f7       	brne	.-16     	; 0x2a44 <count_digits+0xc>
    2a54:	82 2f       	mov	r24, r18
    2a56:	08 95       	ret
    2a58:	81 e0       	ldi	r24, 0x01	; 1
    2a5a:	08 95       	ret

00002a5c <number_to_chars>:
    2a5c:	cf 93       	push	r28
    2a5e:	df 93       	push	r29
    2a60:	9b 01       	movw	r18, r22
    2a62:	e4 2f       	mov	r30, r20
    2a64:	f0 e0       	ldi	r31, 0x00	; 0
    2a66:	e6 0f       	add	r30, r22
    2a68:	f7 1f       	adc	r31, r23
    2a6a:	10 82       	st	Z, r1
    2a6c:	ca e0       	ldi	r28, 0x0A	; 10
    2a6e:	d0 e0       	ldi	r29, 0x00	; 0
    2a70:	e2 17       	cp	r30, r18
    2a72:	f3 07       	cpc	r31, r19
    2a74:	41 f0       	breq	.+16     	; 0x2a86 <number_to_chars+0x2a>
    2a76:	31 97       	sbiw	r30, 0x01	; 1
    2a78:	be 01       	movw	r22, r28
    2a7a:	0e 94 95 15 	call	0x2b2a	; 0x2b2a <__udivmodhi4>
    2a7e:	80 5d       	subi	r24, 0xD0	; 208
    2a80:	80 83       	st	Z, r24
    2a82:	cb 01       	movw	r24, r22
    2a84:	f5 cf       	rjmp	.-22     	; 0x2a70 <number_to_chars+0x14>
    2a86:	df 91       	pop	r29
    2a88:	cf 91       	pop	r28
    2a8a:	08 95       	ret

00002a8c <externalMemoryInit>:
    2a8c:	8f ef       	ldi	r24, 0xFF	; 255
    2a8e:	8a bb       	out	0x1a, r24	; 26
    2a90:	8f e0       	ldi	r24, 0x0F	; 15
    2a92:	84 bb       	out	0x14, r24	; 20
    2a94:	8e 9a       	sbi	0x11, 6	; 17
    2a96:	8f 9a       	sbi	0x11, 7	; 17
    2a98:	31 9a       	sbi	0x06, 1	; 6
    2a9a:	85 b7       	in	r24, 0x35	; 53
    2a9c:	80 68       	ori	r24, 0x80	; 128
    2a9e:	85 bf       	out	0x35, r24	; 53
    2aa0:	10 be       	out	0x30, r1	; 48
    2aa2:	80 b7       	in	r24, 0x30	; 48
    2aa4:	80 62       	ori	r24, 0x20	; 32
    2aa6:	80 bf       	out	0x30, r24	; 48
    2aa8:	08 95       	ret

00002aaa <SRAM_write>:
    2aaa:	cf 93       	push	r28
    2aac:	df 93       	push	r29
    2aae:	00 d0       	rcall	.+0      	; 0x2ab0 <SRAM_write+0x6>
    2ab0:	cd b7       	in	r28, 0x3d	; 61
    2ab2:	de b7       	in	r29, 0x3e	; 62
    2ab4:	9a 83       	std	Y+2, r25	; 0x02
    2ab6:	89 83       	std	Y+1, r24	; 0x01
    2ab8:	e9 81       	ldd	r30, Y+1	; 0x01
    2aba:	fa 81       	ldd	r31, Y+2	; 0x02
    2abc:	f8 5e       	subi	r31, 0xE8	; 232
    2abe:	60 83       	st	Z, r22
    2ac0:	0f 90       	pop	r0
    2ac2:	0f 90       	pop	r0
    2ac4:	df 91       	pop	r29
    2ac6:	cf 91       	pop	r28
    2ac8:	08 95       	ret

00002aca <SRAM_read>:
    2aca:	cf 93       	push	r28
    2acc:	df 93       	push	r29
    2ace:	00 d0       	rcall	.+0      	; 0x2ad0 <SRAM_read+0x6>
    2ad0:	cd b7       	in	r28, 0x3d	; 61
    2ad2:	de b7       	in	r29, 0x3e	; 62
    2ad4:	9a 83       	std	Y+2, r25	; 0x02
    2ad6:	89 83       	std	Y+1, r24	; 0x01
    2ad8:	e9 81       	ldd	r30, Y+1	; 0x01
    2ada:	fa 81       	ldd	r31, Y+2	; 0x02
    2adc:	f8 5e       	subi	r31, 0xE8	; 232
    2ade:	80 81       	ld	r24, Z
    2ae0:	0f 90       	pop	r0
    2ae2:	0f 90       	pop	r0
    2ae4:	df 91       	pop	r29
    2ae6:	cf 91       	pop	r28
    2ae8:	08 95       	ret

00002aea <Universal_write>:
    2aea:	cf 93       	push	r28
    2aec:	df 93       	push	r29
    2aee:	00 d0       	rcall	.+0      	; 0x2af0 <Universal_write+0x6>
    2af0:	cd b7       	in	r28, 0x3d	; 61
    2af2:	de b7       	in	r29, 0x3e	; 62
    2af4:	9a 83       	std	Y+2, r25	; 0x02
    2af6:	89 83       	std	Y+1, r24	; 0x01
    2af8:	e9 81       	ldd	r30, Y+1	; 0x01
    2afa:	fa 81       	ldd	r31, Y+2	; 0x02
    2afc:	f0 5f       	subi	r31, 0xF0	; 240
    2afe:	60 83       	st	Z, r22
    2b00:	0f 90       	pop	r0
    2b02:	0f 90       	pop	r0
    2b04:	df 91       	pop	r29
    2b06:	cf 91       	pop	r28
    2b08:	08 95       	ret

00002b0a <Universal_read>:
    2b0a:	cf 93       	push	r28
    2b0c:	df 93       	push	r29
    2b0e:	00 d0       	rcall	.+0      	; 0x2b10 <Universal_read+0x6>
    2b10:	cd b7       	in	r28, 0x3d	; 61
    2b12:	de b7       	in	r29, 0x3e	; 62
    2b14:	9a 83       	std	Y+2, r25	; 0x02
    2b16:	89 83       	std	Y+1, r24	; 0x01
    2b18:	e9 81       	ldd	r30, Y+1	; 0x01
    2b1a:	fa 81       	ldd	r31, Y+2	; 0x02
    2b1c:	f0 5f       	subi	r31, 0xF0	; 240
    2b1e:	80 81       	ld	r24, Z
    2b20:	0f 90       	pop	r0
    2b22:	0f 90       	pop	r0
    2b24:	df 91       	pop	r29
    2b26:	cf 91       	pop	r28
    2b28:	08 95       	ret

00002b2a <__udivmodhi4>:
    2b2a:	aa 1b       	sub	r26, r26
    2b2c:	bb 1b       	sub	r27, r27
    2b2e:	51 e1       	ldi	r21, 0x11	; 17
    2b30:	07 c0       	rjmp	.+14     	; 0x2b40 <__udivmodhi4_ep>

00002b32 <__udivmodhi4_loop>:
    2b32:	aa 1f       	adc	r26, r26
    2b34:	bb 1f       	adc	r27, r27
    2b36:	a6 17       	cp	r26, r22
    2b38:	b7 07       	cpc	r27, r23
    2b3a:	10 f0       	brcs	.+4      	; 0x2b40 <__udivmodhi4_ep>
    2b3c:	a6 1b       	sub	r26, r22
    2b3e:	b7 0b       	sbc	r27, r23

00002b40 <__udivmodhi4_ep>:
    2b40:	88 1f       	adc	r24, r24
    2b42:	99 1f       	adc	r25, r25
    2b44:	5a 95       	dec	r21
    2b46:	a9 f7       	brne	.-22     	; 0x2b32 <__udivmodhi4_loop>
    2b48:	80 95       	com	r24
    2b4a:	90 95       	com	r25
    2b4c:	bc 01       	movw	r22, r24
    2b4e:	cd 01       	movw	r24, r26
    2b50:	08 95       	ret

00002b52 <__divmodhi4>:
    2b52:	97 fb       	bst	r25, 7
    2b54:	07 2e       	mov	r0, r23
    2b56:	16 f4       	brtc	.+4      	; 0x2b5c <__divmodhi4+0xa>
    2b58:	00 94       	com	r0
    2b5a:	07 d0       	rcall	.+14     	; 0x2b6a <__divmodhi4_neg1>
    2b5c:	77 fd       	sbrc	r23, 7
    2b5e:	09 d0       	rcall	.+18     	; 0x2b72 <__divmodhi4_neg2>
    2b60:	0e 94 95 15 	call	0x2b2a	; 0x2b2a <__udivmodhi4>
    2b64:	07 fc       	sbrc	r0, 7
    2b66:	05 d0       	rcall	.+10     	; 0x2b72 <__divmodhi4_neg2>
    2b68:	3e f4       	brtc	.+14     	; 0x2b78 <__divmodhi4_exit>

00002b6a <__divmodhi4_neg1>:
    2b6a:	90 95       	com	r25
    2b6c:	81 95       	neg	r24
    2b6e:	9f 4f       	sbci	r25, 0xFF	; 255
    2b70:	08 95       	ret

00002b72 <__divmodhi4_neg2>:
    2b72:	70 95       	com	r23
    2b74:	61 95       	neg	r22
    2b76:	7f 4f       	sbci	r23, 0xFF	; 255

00002b78 <__divmodhi4_exit>:
    2b78:	08 95       	ret

00002b7a <__tablejump2__>:
    2b7a:	ee 0f       	add	r30, r30
    2b7c:	ff 1f       	adc	r31, r31
    2b7e:	05 90       	lpm	r0, Z+
    2b80:	f4 91       	lpm	r31, Z
    2b82:	e0 2d       	mov	r30, r0
    2b84:	09 94       	ijmp

00002b86 <printf>:
    2b86:	a0 e0       	ldi	r26, 0x00	; 0
    2b88:	b0 e0       	ldi	r27, 0x00	; 0
    2b8a:	e9 ec       	ldi	r30, 0xC9	; 201
    2b8c:	f5 e1       	ldi	r31, 0x15	; 21
    2b8e:	0c 94 7a 18 	jmp	0x30f4	; 0x30f4 <__prologue_saves__+0x20>
    2b92:	ae 01       	movw	r20, r28
    2b94:	4b 5f       	subi	r20, 0xFB	; 251
    2b96:	5f 4f       	sbci	r21, 0xFF	; 255
    2b98:	fa 01       	movw	r30, r20
    2b9a:	61 91       	ld	r22, Z+
    2b9c:	71 91       	ld	r23, Z+
    2b9e:	af 01       	movw	r20, r30
    2ba0:	80 91 d2 03 	lds	r24, 0x03D2	; 0x8003d2 <__iob+0x2>
    2ba4:	90 91 d3 03 	lds	r25, 0x03D3	; 0x8003d3 <__iob+0x3>
    2ba8:	0e 94 d9 15 	call	0x2bb2	; 0x2bb2 <vfprintf>
    2bac:	e2 e0       	ldi	r30, 0x02	; 2
    2bae:	0c 94 96 18 	jmp	0x312c	; 0x312c <__epilogue_restores__+0x20>

00002bb2 <vfprintf>:
    2bb2:	ab e0       	ldi	r26, 0x0B	; 11
    2bb4:	b0 e0       	ldi	r27, 0x00	; 0
    2bb6:	ef ed       	ldi	r30, 0xDF	; 223
    2bb8:	f5 e1       	ldi	r31, 0x15	; 21
    2bba:	0c 94 6a 18 	jmp	0x30d4	; 0x30d4 <__prologue_saves__>
    2bbe:	6c 01       	movw	r12, r24
    2bc0:	7b 01       	movw	r14, r22
    2bc2:	8a 01       	movw	r16, r20
    2bc4:	fc 01       	movw	r30, r24
    2bc6:	17 82       	std	Z+7, r1	; 0x07
    2bc8:	16 82       	std	Z+6, r1	; 0x06
    2bca:	83 81       	ldd	r24, Z+3	; 0x03
    2bcc:	81 ff       	sbrs	r24, 1
    2bce:	cc c1       	rjmp	.+920    	; 0x2f68 <vfprintf+0x3b6>
    2bd0:	ce 01       	movw	r24, r28
    2bd2:	01 96       	adiw	r24, 0x01	; 1
    2bd4:	3c 01       	movw	r6, r24
    2bd6:	f6 01       	movw	r30, r12
    2bd8:	93 81       	ldd	r25, Z+3	; 0x03
    2bda:	f7 01       	movw	r30, r14
    2bdc:	93 fd       	sbrc	r25, 3
    2bde:	85 91       	lpm	r24, Z+
    2be0:	93 ff       	sbrs	r25, 3
    2be2:	81 91       	ld	r24, Z+
    2be4:	7f 01       	movw	r14, r30
    2be6:	88 23       	and	r24, r24
    2be8:	09 f4       	brne	.+2      	; 0x2bec <vfprintf+0x3a>
    2bea:	ba c1       	rjmp	.+884    	; 0x2f60 <vfprintf+0x3ae>
    2bec:	85 32       	cpi	r24, 0x25	; 37
    2bee:	39 f4       	brne	.+14     	; 0x2bfe <vfprintf+0x4c>
    2bf0:	93 fd       	sbrc	r25, 3
    2bf2:	85 91       	lpm	r24, Z+
    2bf4:	93 ff       	sbrs	r25, 3
    2bf6:	81 91       	ld	r24, Z+
    2bf8:	7f 01       	movw	r14, r30
    2bfa:	85 32       	cpi	r24, 0x25	; 37
    2bfc:	29 f4       	brne	.+10     	; 0x2c08 <vfprintf+0x56>
    2bfe:	b6 01       	movw	r22, r12
    2c00:	90 e0       	ldi	r25, 0x00	; 0
    2c02:	0e 94 d0 17 	call	0x2fa0	; 0x2fa0 <fputc>
    2c06:	e7 cf       	rjmp	.-50     	; 0x2bd6 <vfprintf+0x24>
    2c08:	91 2c       	mov	r9, r1
    2c0a:	21 2c       	mov	r2, r1
    2c0c:	31 2c       	mov	r3, r1
    2c0e:	ff e1       	ldi	r31, 0x1F	; 31
    2c10:	f3 15       	cp	r31, r3
    2c12:	d8 f0       	brcs	.+54     	; 0x2c4a <vfprintf+0x98>
    2c14:	8b 32       	cpi	r24, 0x2B	; 43
    2c16:	79 f0       	breq	.+30     	; 0x2c36 <vfprintf+0x84>
    2c18:	38 f4       	brcc	.+14     	; 0x2c28 <vfprintf+0x76>
    2c1a:	80 32       	cpi	r24, 0x20	; 32
    2c1c:	79 f0       	breq	.+30     	; 0x2c3c <vfprintf+0x8a>
    2c1e:	83 32       	cpi	r24, 0x23	; 35
    2c20:	a1 f4       	brne	.+40     	; 0x2c4a <vfprintf+0x98>
    2c22:	23 2d       	mov	r18, r3
    2c24:	20 61       	ori	r18, 0x10	; 16
    2c26:	1d c0       	rjmp	.+58     	; 0x2c62 <vfprintf+0xb0>
    2c28:	8d 32       	cpi	r24, 0x2D	; 45
    2c2a:	61 f0       	breq	.+24     	; 0x2c44 <vfprintf+0x92>
    2c2c:	80 33       	cpi	r24, 0x30	; 48
    2c2e:	69 f4       	brne	.+26     	; 0x2c4a <vfprintf+0x98>
    2c30:	23 2d       	mov	r18, r3
    2c32:	21 60       	ori	r18, 0x01	; 1
    2c34:	16 c0       	rjmp	.+44     	; 0x2c62 <vfprintf+0xb0>
    2c36:	83 2d       	mov	r24, r3
    2c38:	82 60       	ori	r24, 0x02	; 2
    2c3a:	38 2e       	mov	r3, r24
    2c3c:	e3 2d       	mov	r30, r3
    2c3e:	e4 60       	ori	r30, 0x04	; 4
    2c40:	3e 2e       	mov	r3, r30
    2c42:	2a c0       	rjmp	.+84     	; 0x2c98 <vfprintf+0xe6>
    2c44:	f3 2d       	mov	r31, r3
    2c46:	f8 60       	ori	r31, 0x08	; 8
    2c48:	1d c0       	rjmp	.+58     	; 0x2c84 <vfprintf+0xd2>
    2c4a:	37 fc       	sbrc	r3, 7
    2c4c:	2d c0       	rjmp	.+90     	; 0x2ca8 <vfprintf+0xf6>
    2c4e:	20 ed       	ldi	r18, 0xD0	; 208
    2c50:	28 0f       	add	r18, r24
    2c52:	2a 30       	cpi	r18, 0x0A	; 10
    2c54:	40 f0       	brcs	.+16     	; 0x2c66 <vfprintf+0xb4>
    2c56:	8e 32       	cpi	r24, 0x2E	; 46
    2c58:	b9 f4       	brne	.+46     	; 0x2c88 <vfprintf+0xd6>
    2c5a:	36 fc       	sbrc	r3, 6
    2c5c:	81 c1       	rjmp	.+770    	; 0x2f60 <vfprintf+0x3ae>
    2c5e:	23 2d       	mov	r18, r3
    2c60:	20 64       	ori	r18, 0x40	; 64
    2c62:	32 2e       	mov	r3, r18
    2c64:	19 c0       	rjmp	.+50     	; 0x2c98 <vfprintf+0xe6>
    2c66:	36 fe       	sbrs	r3, 6
    2c68:	06 c0       	rjmp	.+12     	; 0x2c76 <vfprintf+0xc4>
    2c6a:	8a e0       	ldi	r24, 0x0A	; 10
    2c6c:	98 9e       	mul	r9, r24
    2c6e:	20 0d       	add	r18, r0
    2c70:	11 24       	eor	r1, r1
    2c72:	92 2e       	mov	r9, r18
    2c74:	11 c0       	rjmp	.+34     	; 0x2c98 <vfprintf+0xe6>
    2c76:	ea e0       	ldi	r30, 0x0A	; 10
    2c78:	2e 9e       	mul	r2, r30
    2c7a:	20 0d       	add	r18, r0
    2c7c:	11 24       	eor	r1, r1
    2c7e:	22 2e       	mov	r2, r18
    2c80:	f3 2d       	mov	r31, r3
    2c82:	f0 62       	ori	r31, 0x20	; 32
    2c84:	3f 2e       	mov	r3, r31
    2c86:	08 c0       	rjmp	.+16     	; 0x2c98 <vfprintf+0xe6>
    2c88:	8c 36       	cpi	r24, 0x6C	; 108
    2c8a:	21 f4       	brne	.+8      	; 0x2c94 <vfprintf+0xe2>
    2c8c:	83 2d       	mov	r24, r3
    2c8e:	80 68       	ori	r24, 0x80	; 128
    2c90:	38 2e       	mov	r3, r24
    2c92:	02 c0       	rjmp	.+4      	; 0x2c98 <vfprintf+0xe6>
    2c94:	88 36       	cpi	r24, 0x68	; 104
    2c96:	41 f4       	brne	.+16     	; 0x2ca8 <vfprintf+0xf6>
    2c98:	f7 01       	movw	r30, r14
    2c9a:	93 fd       	sbrc	r25, 3
    2c9c:	85 91       	lpm	r24, Z+
    2c9e:	93 ff       	sbrs	r25, 3
    2ca0:	81 91       	ld	r24, Z+
    2ca2:	7f 01       	movw	r14, r30
    2ca4:	81 11       	cpse	r24, r1
    2ca6:	b3 cf       	rjmp	.-154    	; 0x2c0e <vfprintf+0x5c>
    2ca8:	98 2f       	mov	r25, r24
    2caa:	9f 7d       	andi	r25, 0xDF	; 223
    2cac:	95 54       	subi	r25, 0x45	; 69
    2cae:	93 30       	cpi	r25, 0x03	; 3
    2cb0:	28 f4       	brcc	.+10     	; 0x2cbc <vfprintf+0x10a>
    2cb2:	0c 5f       	subi	r16, 0xFC	; 252
    2cb4:	1f 4f       	sbci	r17, 0xFF	; 255
    2cb6:	9f e3       	ldi	r25, 0x3F	; 63
    2cb8:	99 83       	std	Y+1, r25	; 0x01
    2cba:	0d c0       	rjmp	.+26     	; 0x2cd6 <vfprintf+0x124>
    2cbc:	83 36       	cpi	r24, 0x63	; 99
    2cbe:	31 f0       	breq	.+12     	; 0x2ccc <vfprintf+0x11a>
    2cc0:	83 37       	cpi	r24, 0x73	; 115
    2cc2:	71 f0       	breq	.+28     	; 0x2ce0 <vfprintf+0x12e>
    2cc4:	83 35       	cpi	r24, 0x53	; 83
    2cc6:	09 f0       	breq	.+2      	; 0x2cca <vfprintf+0x118>
    2cc8:	59 c0       	rjmp	.+178    	; 0x2d7c <vfprintf+0x1ca>
    2cca:	21 c0       	rjmp	.+66     	; 0x2d0e <vfprintf+0x15c>
    2ccc:	f8 01       	movw	r30, r16
    2cce:	80 81       	ld	r24, Z
    2cd0:	89 83       	std	Y+1, r24	; 0x01
    2cd2:	0e 5f       	subi	r16, 0xFE	; 254
    2cd4:	1f 4f       	sbci	r17, 0xFF	; 255
    2cd6:	88 24       	eor	r8, r8
    2cd8:	83 94       	inc	r8
    2cda:	91 2c       	mov	r9, r1
    2cdc:	53 01       	movw	r10, r6
    2cde:	13 c0       	rjmp	.+38     	; 0x2d06 <vfprintf+0x154>
    2ce0:	28 01       	movw	r4, r16
    2ce2:	f2 e0       	ldi	r31, 0x02	; 2
    2ce4:	4f 0e       	add	r4, r31
    2ce6:	51 1c       	adc	r5, r1
    2ce8:	f8 01       	movw	r30, r16
    2cea:	a0 80       	ld	r10, Z
    2cec:	b1 80       	ldd	r11, Z+1	; 0x01
    2cee:	36 fe       	sbrs	r3, 6
    2cf0:	03 c0       	rjmp	.+6      	; 0x2cf8 <vfprintf+0x146>
    2cf2:	69 2d       	mov	r22, r9
    2cf4:	70 e0       	ldi	r23, 0x00	; 0
    2cf6:	02 c0       	rjmp	.+4      	; 0x2cfc <vfprintf+0x14a>
    2cf8:	6f ef       	ldi	r22, 0xFF	; 255
    2cfa:	7f ef       	ldi	r23, 0xFF	; 255
    2cfc:	c5 01       	movw	r24, r10
    2cfe:	0e 94 c5 17 	call	0x2f8a	; 0x2f8a <strnlen>
    2d02:	4c 01       	movw	r8, r24
    2d04:	82 01       	movw	r16, r4
    2d06:	f3 2d       	mov	r31, r3
    2d08:	ff 77       	andi	r31, 0x7F	; 127
    2d0a:	3f 2e       	mov	r3, r31
    2d0c:	16 c0       	rjmp	.+44     	; 0x2d3a <vfprintf+0x188>
    2d0e:	28 01       	movw	r4, r16
    2d10:	22 e0       	ldi	r18, 0x02	; 2
    2d12:	42 0e       	add	r4, r18
    2d14:	51 1c       	adc	r5, r1
    2d16:	f8 01       	movw	r30, r16
    2d18:	a0 80       	ld	r10, Z
    2d1a:	b1 80       	ldd	r11, Z+1	; 0x01
    2d1c:	36 fe       	sbrs	r3, 6
    2d1e:	03 c0       	rjmp	.+6      	; 0x2d26 <vfprintf+0x174>
    2d20:	69 2d       	mov	r22, r9
    2d22:	70 e0       	ldi	r23, 0x00	; 0
    2d24:	02 c0       	rjmp	.+4      	; 0x2d2a <vfprintf+0x178>
    2d26:	6f ef       	ldi	r22, 0xFF	; 255
    2d28:	7f ef       	ldi	r23, 0xFF	; 255
    2d2a:	c5 01       	movw	r24, r10
    2d2c:	0e 94 ba 17 	call	0x2f74	; 0x2f74 <strnlen_P>
    2d30:	4c 01       	movw	r8, r24
    2d32:	f3 2d       	mov	r31, r3
    2d34:	f0 68       	ori	r31, 0x80	; 128
    2d36:	3f 2e       	mov	r3, r31
    2d38:	82 01       	movw	r16, r4
    2d3a:	33 fc       	sbrc	r3, 3
    2d3c:	1b c0       	rjmp	.+54     	; 0x2d74 <vfprintf+0x1c2>
    2d3e:	82 2d       	mov	r24, r2
    2d40:	90 e0       	ldi	r25, 0x00	; 0
    2d42:	88 16       	cp	r8, r24
    2d44:	99 06       	cpc	r9, r25
    2d46:	b0 f4       	brcc	.+44     	; 0x2d74 <vfprintf+0x1c2>
    2d48:	b6 01       	movw	r22, r12
    2d4a:	80 e2       	ldi	r24, 0x20	; 32
    2d4c:	90 e0       	ldi	r25, 0x00	; 0
    2d4e:	0e 94 d0 17 	call	0x2fa0	; 0x2fa0 <fputc>
    2d52:	2a 94       	dec	r2
    2d54:	f4 cf       	rjmp	.-24     	; 0x2d3e <vfprintf+0x18c>
    2d56:	f5 01       	movw	r30, r10
    2d58:	37 fc       	sbrc	r3, 7
    2d5a:	85 91       	lpm	r24, Z+
    2d5c:	37 fe       	sbrs	r3, 7
    2d5e:	81 91       	ld	r24, Z+
    2d60:	5f 01       	movw	r10, r30
    2d62:	b6 01       	movw	r22, r12
    2d64:	90 e0       	ldi	r25, 0x00	; 0
    2d66:	0e 94 d0 17 	call	0x2fa0	; 0x2fa0 <fputc>
    2d6a:	21 10       	cpse	r2, r1
    2d6c:	2a 94       	dec	r2
    2d6e:	21 e0       	ldi	r18, 0x01	; 1
    2d70:	82 1a       	sub	r8, r18
    2d72:	91 08       	sbc	r9, r1
    2d74:	81 14       	cp	r8, r1
    2d76:	91 04       	cpc	r9, r1
    2d78:	71 f7       	brne	.-36     	; 0x2d56 <vfprintf+0x1a4>
    2d7a:	e8 c0       	rjmp	.+464    	; 0x2f4c <vfprintf+0x39a>
    2d7c:	84 36       	cpi	r24, 0x64	; 100
    2d7e:	11 f0       	breq	.+4      	; 0x2d84 <vfprintf+0x1d2>
    2d80:	89 36       	cpi	r24, 0x69	; 105
    2d82:	41 f5       	brne	.+80     	; 0x2dd4 <vfprintf+0x222>
    2d84:	f8 01       	movw	r30, r16
    2d86:	37 fe       	sbrs	r3, 7
    2d88:	07 c0       	rjmp	.+14     	; 0x2d98 <vfprintf+0x1e6>
    2d8a:	60 81       	ld	r22, Z
    2d8c:	71 81       	ldd	r23, Z+1	; 0x01
    2d8e:	82 81       	ldd	r24, Z+2	; 0x02
    2d90:	93 81       	ldd	r25, Z+3	; 0x03
    2d92:	0c 5f       	subi	r16, 0xFC	; 252
    2d94:	1f 4f       	sbci	r17, 0xFF	; 255
    2d96:	08 c0       	rjmp	.+16     	; 0x2da8 <vfprintf+0x1f6>
    2d98:	60 81       	ld	r22, Z
    2d9a:	71 81       	ldd	r23, Z+1	; 0x01
    2d9c:	07 2e       	mov	r0, r23
    2d9e:	00 0c       	add	r0, r0
    2da0:	88 0b       	sbc	r24, r24
    2da2:	99 0b       	sbc	r25, r25
    2da4:	0e 5f       	subi	r16, 0xFE	; 254
    2da6:	1f 4f       	sbci	r17, 0xFF	; 255
    2da8:	f3 2d       	mov	r31, r3
    2daa:	ff 76       	andi	r31, 0x6F	; 111
    2dac:	3f 2e       	mov	r3, r31
    2dae:	97 ff       	sbrs	r25, 7
    2db0:	09 c0       	rjmp	.+18     	; 0x2dc4 <vfprintf+0x212>
    2db2:	90 95       	com	r25
    2db4:	80 95       	com	r24
    2db6:	70 95       	com	r23
    2db8:	61 95       	neg	r22
    2dba:	7f 4f       	sbci	r23, 0xFF	; 255
    2dbc:	8f 4f       	sbci	r24, 0xFF	; 255
    2dbe:	9f 4f       	sbci	r25, 0xFF	; 255
    2dc0:	f0 68       	ori	r31, 0x80	; 128
    2dc2:	3f 2e       	mov	r3, r31
    2dc4:	2a e0       	ldi	r18, 0x0A	; 10
    2dc6:	30 e0       	ldi	r19, 0x00	; 0
    2dc8:	a3 01       	movw	r20, r6
    2dca:	0e 94 0c 18 	call	0x3018	; 0x3018 <__ultoa_invert>
    2dce:	88 2e       	mov	r8, r24
    2dd0:	86 18       	sub	r8, r6
    2dd2:	45 c0       	rjmp	.+138    	; 0x2e5e <vfprintf+0x2ac>
    2dd4:	85 37       	cpi	r24, 0x75	; 117
    2dd6:	31 f4       	brne	.+12     	; 0x2de4 <vfprintf+0x232>
    2dd8:	23 2d       	mov	r18, r3
    2dda:	2f 7e       	andi	r18, 0xEF	; 239
    2ddc:	b2 2e       	mov	r11, r18
    2dde:	2a e0       	ldi	r18, 0x0A	; 10
    2de0:	30 e0       	ldi	r19, 0x00	; 0
    2de2:	25 c0       	rjmp	.+74     	; 0x2e2e <vfprintf+0x27c>
    2de4:	93 2d       	mov	r25, r3
    2de6:	99 7f       	andi	r25, 0xF9	; 249
    2de8:	b9 2e       	mov	r11, r25
    2dea:	8f 36       	cpi	r24, 0x6F	; 111
    2dec:	c1 f0       	breq	.+48     	; 0x2e1e <vfprintf+0x26c>
    2dee:	18 f4       	brcc	.+6      	; 0x2df6 <vfprintf+0x244>
    2df0:	88 35       	cpi	r24, 0x58	; 88
    2df2:	79 f0       	breq	.+30     	; 0x2e12 <vfprintf+0x260>
    2df4:	b5 c0       	rjmp	.+362    	; 0x2f60 <vfprintf+0x3ae>
    2df6:	80 37       	cpi	r24, 0x70	; 112
    2df8:	19 f0       	breq	.+6      	; 0x2e00 <vfprintf+0x24e>
    2dfa:	88 37       	cpi	r24, 0x78	; 120
    2dfc:	21 f0       	breq	.+8      	; 0x2e06 <vfprintf+0x254>
    2dfe:	b0 c0       	rjmp	.+352    	; 0x2f60 <vfprintf+0x3ae>
    2e00:	e9 2f       	mov	r30, r25
    2e02:	e0 61       	ori	r30, 0x10	; 16
    2e04:	be 2e       	mov	r11, r30
    2e06:	b4 fe       	sbrs	r11, 4
    2e08:	0d c0       	rjmp	.+26     	; 0x2e24 <vfprintf+0x272>
    2e0a:	fb 2d       	mov	r31, r11
    2e0c:	f4 60       	ori	r31, 0x04	; 4
    2e0e:	bf 2e       	mov	r11, r31
    2e10:	09 c0       	rjmp	.+18     	; 0x2e24 <vfprintf+0x272>
    2e12:	34 fe       	sbrs	r3, 4
    2e14:	0a c0       	rjmp	.+20     	; 0x2e2a <vfprintf+0x278>
    2e16:	29 2f       	mov	r18, r25
    2e18:	26 60       	ori	r18, 0x06	; 6
    2e1a:	b2 2e       	mov	r11, r18
    2e1c:	06 c0       	rjmp	.+12     	; 0x2e2a <vfprintf+0x278>
    2e1e:	28 e0       	ldi	r18, 0x08	; 8
    2e20:	30 e0       	ldi	r19, 0x00	; 0
    2e22:	05 c0       	rjmp	.+10     	; 0x2e2e <vfprintf+0x27c>
    2e24:	20 e1       	ldi	r18, 0x10	; 16
    2e26:	30 e0       	ldi	r19, 0x00	; 0
    2e28:	02 c0       	rjmp	.+4      	; 0x2e2e <vfprintf+0x27c>
    2e2a:	20 e1       	ldi	r18, 0x10	; 16
    2e2c:	32 e0       	ldi	r19, 0x02	; 2
    2e2e:	f8 01       	movw	r30, r16
    2e30:	b7 fe       	sbrs	r11, 7
    2e32:	07 c0       	rjmp	.+14     	; 0x2e42 <vfprintf+0x290>
    2e34:	60 81       	ld	r22, Z
    2e36:	71 81       	ldd	r23, Z+1	; 0x01
    2e38:	82 81       	ldd	r24, Z+2	; 0x02
    2e3a:	93 81       	ldd	r25, Z+3	; 0x03
    2e3c:	0c 5f       	subi	r16, 0xFC	; 252
    2e3e:	1f 4f       	sbci	r17, 0xFF	; 255
    2e40:	06 c0       	rjmp	.+12     	; 0x2e4e <vfprintf+0x29c>
    2e42:	60 81       	ld	r22, Z
    2e44:	71 81       	ldd	r23, Z+1	; 0x01
    2e46:	80 e0       	ldi	r24, 0x00	; 0
    2e48:	90 e0       	ldi	r25, 0x00	; 0
    2e4a:	0e 5f       	subi	r16, 0xFE	; 254
    2e4c:	1f 4f       	sbci	r17, 0xFF	; 255
    2e4e:	a3 01       	movw	r20, r6
    2e50:	0e 94 0c 18 	call	0x3018	; 0x3018 <__ultoa_invert>
    2e54:	88 2e       	mov	r8, r24
    2e56:	86 18       	sub	r8, r6
    2e58:	fb 2d       	mov	r31, r11
    2e5a:	ff 77       	andi	r31, 0x7F	; 127
    2e5c:	3f 2e       	mov	r3, r31
    2e5e:	36 fe       	sbrs	r3, 6
    2e60:	0d c0       	rjmp	.+26     	; 0x2e7c <vfprintf+0x2ca>
    2e62:	23 2d       	mov	r18, r3
    2e64:	2e 7f       	andi	r18, 0xFE	; 254
    2e66:	a2 2e       	mov	r10, r18
    2e68:	89 14       	cp	r8, r9
    2e6a:	58 f4       	brcc	.+22     	; 0x2e82 <vfprintf+0x2d0>
    2e6c:	34 fe       	sbrs	r3, 4
    2e6e:	0b c0       	rjmp	.+22     	; 0x2e86 <vfprintf+0x2d4>
    2e70:	32 fc       	sbrc	r3, 2
    2e72:	09 c0       	rjmp	.+18     	; 0x2e86 <vfprintf+0x2d4>
    2e74:	83 2d       	mov	r24, r3
    2e76:	8e 7e       	andi	r24, 0xEE	; 238
    2e78:	a8 2e       	mov	r10, r24
    2e7a:	05 c0       	rjmp	.+10     	; 0x2e86 <vfprintf+0x2d4>
    2e7c:	b8 2c       	mov	r11, r8
    2e7e:	a3 2c       	mov	r10, r3
    2e80:	03 c0       	rjmp	.+6      	; 0x2e88 <vfprintf+0x2d6>
    2e82:	b8 2c       	mov	r11, r8
    2e84:	01 c0       	rjmp	.+2      	; 0x2e88 <vfprintf+0x2d6>
    2e86:	b9 2c       	mov	r11, r9
    2e88:	a4 fe       	sbrs	r10, 4
    2e8a:	0f c0       	rjmp	.+30     	; 0x2eaa <vfprintf+0x2f8>
    2e8c:	fe 01       	movw	r30, r28
    2e8e:	e8 0d       	add	r30, r8
    2e90:	f1 1d       	adc	r31, r1
    2e92:	80 81       	ld	r24, Z
    2e94:	80 33       	cpi	r24, 0x30	; 48
    2e96:	21 f4       	brne	.+8      	; 0x2ea0 <vfprintf+0x2ee>
    2e98:	9a 2d       	mov	r25, r10
    2e9a:	99 7e       	andi	r25, 0xE9	; 233
    2e9c:	a9 2e       	mov	r10, r25
    2e9e:	09 c0       	rjmp	.+18     	; 0x2eb2 <vfprintf+0x300>
    2ea0:	a2 fe       	sbrs	r10, 2
    2ea2:	06 c0       	rjmp	.+12     	; 0x2eb0 <vfprintf+0x2fe>
    2ea4:	b3 94       	inc	r11
    2ea6:	b3 94       	inc	r11
    2ea8:	04 c0       	rjmp	.+8      	; 0x2eb2 <vfprintf+0x300>
    2eaa:	8a 2d       	mov	r24, r10
    2eac:	86 78       	andi	r24, 0x86	; 134
    2eae:	09 f0       	breq	.+2      	; 0x2eb2 <vfprintf+0x300>
    2eb0:	b3 94       	inc	r11
    2eb2:	a3 fc       	sbrc	r10, 3
    2eb4:	11 c0       	rjmp	.+34     	; 0x2ed8 <vfprintf+0x326>
    2eb6:	a0 fe       	sbrs	r10, 0
    2eb8:	06 c0       	rjmp	.+12     	; 0x2ec6 <vfprintf+0x314>
    2eba:	b2 14       	cp	r11, r2
    2ebc:	88 f4       	brcc	.+34     	; 0x2ee0 <vfprintf+0x32e>
    2ebe:	28 0c       	add	r2, r8
    2ec0:	92 2c       	mov	r9, r2
    2ec2:	9b 18       	sub	r9, r11
    2ec4:	0e c0       	rjmp	.+28     	; 0x2ee2 <vfprintf+0x330>
    2ec6:	b2 14       	cp	r11, r2
    2ec8:	60 f4       	brcc	.+24     	; 0x2ee2 <vfprintf+0x330>
    2eca:	b6 01       	movw	r22, r12
    2ecc:	80 e2       	ldi	r24, 0x20	; 32
    2ece:	90 e0       	ldi	r25, 0x00	; 0
    2ed0:	0e 94 d0 17 	call	0x2fa0	; 0x2fa0 <fputc>
    2ed4:	b3 94       	inc	r11
    2ed6:	f7 cf       	rjmp	.-18     	; 0x2ec6 <vfprintf+0x314>
    2ed8:	b2 14       	cp	r11, r2
    2eda:	18 f4       	brcc	.+6      	; 0x2ee2 <vfprintf+0x330>
    2edc:	2b 18       	sub	r2, r11
    2ede:	02 c0       	rjmp	.+4      	; 0x2ee4 <vfprintf+0x332>
    2ee0:	98 2c       	mov	r9, r8
    2ee2:	21 2c       	mov	r2, r1
    2ee4:	a4 fe       	sbrs	r10, 4
    2ee6:	10 c0       	rjmp	.+32     	; 0x2f08 <vfprintf+0x356>
    2ee8:	b6 01       	movw	r22, r12
    2eea:	80 e3       	ldi	r24, 0x30	; 48
    2eec:	90 e0       	ldi	r25, 0x00	; 0
    2eee:	0e 94 d0 17 	call	0x2fa0	; 0x2fa0 <fputc>
    2ef2:	a2 fe       	sbrs	r10, 2
    2ef4:	17 c0       	rjmp	.+46     	; 0x2f24 <vfprintf+0x372>
    2ef6:	a1 fc       	sbrc	r10, 1
    2ef8:	03 c0       	rjmp	.+6      	; 0x2f00 <vfprintf+0x34e>
    2efa:	88 e7       	ldi	r24, 0x78	; 120
    2efc:	90 e0       	ldi	r25, 0x00	; 0
    2efe:	02 c0       	rjmp	.+4      	; 0x2f04 <vfprintf+0x352>
    2f00:	88 e5       	ldi	r24, 0x58	; 88
    2f02:	90 e0       	ldi	r25, 0x00	; 0
    2f04:	b6 01       	movw	r22, r12
    2f06:	0c c0       	rjmp	.+24     	; 0x2f20 <vfprintf+0x36e>
    2f08:	8a 2d       	mov	r24, r10
    2f0a:	86 78       	andi	r24, 0x86	; 134
    2f0c:	59 f0       	breq	.+22     	; 0x2f24 <vfprintf+0x372>
    2f0e:	a1 fe       	sbrs	r10, 1
    2f10:	02 c0       	rjmp	.+4      	; 0x2f16 <vfprintf+0x364>
    2f12:	8b e2       	ldi	r24, 0x2B	; 43
    2f14:	01 c0       	rjmp	.+2      	; 0x2f18 <vfprintf+0x366>
    2f16:	80 e2       	ldi	r24, 0x20	; 32
    2f18:	a7 fc       	sbrc	r10, 7
    2f1a:	8d e2       	ldi	r24, 0x2D	; 45
    2f1c:	b6 01       	movw	r22, r12
    2f1e:	90 e0       	ldi	r25, 0x00	; 0
    2f20:	0e 94 d0 17 	call	0x2fa0	; 0x2fa0 <fputc>
    2f24:	89 14       	cp	r8, r9
    2f26:	38 f4       	brcc	.+14     	; 0x2f36 <vfprintf+0x384>
    2f28:	b6 01       	movw	r22, r12
    2f2a:	80 e3       	ldi	r24, 0x30	; 48
    2f2c:	90 e0       	ldi	r25, 0x00	; 0
    2f2e:	0e 94 d0 17 	call	0x2fa0	; 0x2fa0 <fputc>
    2f32:	9a 94       	dec	r9
    2f34:	f7 cf       	rjmp	.-18     	; 0x2f24 <vfprintf+0x372>
    2f36:	8a 94       	dec	r8
    2f38:	f3 01       	movw	r30, r6
    2f3a:	e8 0d       	add	r30, r8
    2f3c:	f1 1d       	adc	r31, r1
    2f3e:	80 81       	ld	r24, Z
    2f40:	b6 01       	movw	r22, r12
    2f42:	90 e0       	ldi	r25, 0x00	; 0
    2f44:	0e 94 d0 17 	call	0x2fa0	; 0x2fa0 <fputc>
    2f48:	81 10       	cpse	r8, r1
    2f4a:	f5 cf       	rjmp	.-22     	; 0x2f36 <vfprintf+0x384>
    2f4c:	22 20       	and	r2, r2
    2f4e:	09 f4       	brne	.+2      	; 0x2f52 <vfprintf+0x3a0>
    2f50:	42 ce       	rjmp	.-892    	; 0x2bd6 <vfprintf+0x24>
    2f52:	b6 01       	movw	r22, r12
    2f54:	80 e2       	ldi	r24, 0x20	; 32
    2f56:	90 e0       	ldi	r25, 0x00	; 0
    2f58:	0e 94 d0 17 	call	0x2fa0	; 0x2fa0 <fputc>
    2f5c:	2a 94       	dec	r2
    2f5e:	f6 cf       	rjmp	.-20     	; 0x2f4c <vfprintf+0x39a>
    2f60:	f6 01       	movw	r30, r12
    2f62:	86 81       	ldd	r24, Z+6	; 0x06
    2f64:	97 81       	ldd	r25, Z+7	; 0x07
    2f66:	02 c0       	rjmp	.+4      	; 0x2f6c <vfprintf+0x3ba>
    2f68:	8f ef       	ldi	r24, 0xFF	; 255
    2f6a:	9f ef       	ldi	r25, 0xFF	; 255
    2f6c:	2b 96       	adiw	r28, 0x0b	; 11
    2f6e:	e2 e1       	ldi	r30, 0x12	; 18
    2f70:	0c 94 86 18 	jmp	0x310c	; 0x310c <__epilogue_restores__>

00002f74 <strnlen_P>:
    2f74:	fc 01       	movw	r30, r24
    2f76:	05 90       	lpm	r0, Z+
    2f78:	61 50       	subi	r22, 0x01	; 1
    2f7a:	70 40       	sbci	r23, 0x00	; 0
    2f7c:	01 10       	cpse	r0, r1
    2f7e:	d8 f7       	brcc	.-10     	; 0x2f76 <strnlen_P+0x2>
    2f80:	80 95       	com	r24
    2f82:	90 95       	com	r25
    2f84:	8e 0f       	add	r24, r30
    2f86:	9f 1f       	adc	r25, r31
    2f88:	08 95       	ret

00002f8a <strnlen>:
    2f8a:	fc 01       	movw	r30, r24
    2f8c:	61 50       	subi	r22, 0x01	; 1
    2f8e:	70 40       	sbci	r23, 0x00	; 0
    2f90:	01 90       	ld	r0, Z+
    2f92:	01 10       	cpse	r0, r1
    2f94:	d8 f7       	brcc	.-10     	; 0x2f8c <strnlen+0x2>
    2f96:	80 95       	com	r24
    2f98:	90 95       	com	r25
    2f9a:	8e 0f       	add	r24, r30
    2f9c:	9f 1f       	adc	r25, r31
    2f9e:	08 95       	ret

00002fa0 <fputc>:
    2fa0:	0f 93       	push	r16
    2fa2:	1f 93       	push	r17
    2fa4:	cf 93       	push	r28
    2fa6:	df 93       	push	r29
    2fa8:	fb 01       	movw	r30, r22
    2faa:	23 81       	ldd	r18, Z+3	; 0x03
    2fac:	21 fd       	sbrc	r18, 1
    2fae:	03 c0       	rjmp	.+6      	; 0x2fb6 <fputc+0x16>
    2fb0:	8f ef       	ldi	r24, 0xFF	; 255
    2fb2:	9f ef       	ldi	r25, 0xFF	; 255
    2fb4:	2c c0       	rjmp	.+88     	; 0x300e <fputc+0x6e>
    2fb6:	22 ff       	sbrs	r18, 2
    2fb8:	16 c0       	rjmp	.+44     	; 0x2fe6 <fputc+0x46>
    2fba:	46 81       	ldd	r20, Z+6	; 0x06
    2fbc:	57 81       	ldd	r21, Z+7	; 0x07
    2fbe:	24 81       	ldd	r18, Z+4	; 0x04
    2fc0:	35 81       	ldd	r19, Z+5	; 0x05
    2fc2:	42 17       	cp	r20, r18
    2fc4:	53 07       	cpc	r21, r19
    2fc6:	44 f4       	brge	.+16     	; 0x2fd8 <fputc+0x38>
    2fc8:	a0 81       	ld	r26, Z
    2fca:	b1 81       	ldd	r27, Z+1	; 0x01
    2fcc:	9d 01       	movw	r18, r26
    2fce:	2f 5f       	subi	r18, 0xFF	; 255
    2fd0:	3f 4f       	sbci	r19, 0xFF	; 255
    2fd2:	31 83       	std	Z+1, r19	; 0x01
    2fd4:	20 83       	st	Z, r18
    2fd6:	8c 93       	st	X, r24
    2fd8:	26 81       	ldd	r18, Z+6	; 0x06
    2fda:	37 81       	ldd	r19, Z+7	; 0x07
    2fdc:	2f 5f       	subi	r18, 0xFF	; 255
    2fde:	3f 4f       	sbci	r19, 0xFF	; 255
    2fe0:	37 83       	std	Z+7, r19	; 0x07
    2fe2:	26 83       	std	Z+6, r18	; 0x06
    2fe4:	14 c0       	rjmp	.+40     	; 0x300e <fputc+0x6e>
    2fe6:	8b 01       	movw	r16, r22
    2fe8:	ec 01       	movw	r28, r24
    2fea:	fb 01       	movw	r30, r22
    2fec:	00 84       	ldd	r0, Z+8	; 0x08
    2fee:	f1 85       	ldd	r31, Z+9	; 0x09
    2ff0:	e0 2d       	mov	r30, r0
    2ff2:	09 95       	icall
    2ff4:	89 2b       	or	r24, r25
    2ff6:	e1 f6       	brne	.-72     	; 0x2fb0 <fputc+0x10>
    2ff8:	d8 01       	movw	r26, r16
    2ffa:	16 96       	adiw	r26, 0x06	; 6
    2ffc:	8d 91       	ld	r24, X+
    2ffe:	9c 91       	ld	r25, X
    3000:	17 97       	sbiw	r26, 0x07	; 7
    3002:	01 96       	adiw	r24, 0x01	; 1
    3004:	17 96       	adiw	r26, 0x07	; 7
    3006:	9c 93       	st	X, r25
    3008:	8e 93       	st	-X, r24
    300a:	16 97       	sbiw	r26, 0x06	; 6
    300c:	ce 01       	movw	r24, r28
    300e:	df 91       	pop	r29
    3010:	cf 91       	pop	r28
    3012:	1f 91       	pop	r17
    3014:	0f 91       	pop	r16
    3016:	08 95       	ret

00003018 <__ultoa_invert>:
    3018:	fa 01       	movw	r30, r20
    301a:	aa 27       	eor	r26, r26
    301c:	28 30       	cpi	r18, 0x08	; 8
    301e:	51 f1       	breq	.+84     	; 0x3074 <__ultoa_invert+0x5c>
    3020:	20 31       	cpi	r18, 0x10	; 16
    3022:	81 f1       	breq	.+96     	; 0x3084 <__ultoa_invert+0x6c>
    3024:	e8 94       	clt
    3026:	6f 93       	push	r22
    3028:	6e 7f       	andi	r22, 0xFE	; 254
    302a:	6e 5f       	subi	r22, 0xFE	; 254
    302c:	7f 4f       	sbci	r23, 0xFF	; 255
    302e:	8f 4f       	sbci	r24, 0xFF	; 255
    3030:	9f 4f       	sbci	r25, 0xFF	; 255
    3032:	af 4f       	sbci	r26, 0xFF	; 255
    3034:	b1 e0       	ldi	r27, 0x01	; 1
    3036:	3e d0       	rcall	.+124    	; 0x30b4 <__ultoa_invert+0x9c>
    3038:	b4 e0       	ldi	r27, 0x04	; 4
    303a:	3c d0       	rcall	.+120    	; 0x30b4 <__ultoa_invert+0x9c>
    303c:	67 0f       	add	r22, r23
    303e:	78 1f       	adc	r23, r24
    3040:	89 1f       	adc	r24, r25
    3042:	9a 1f       	adc	r25, r26
    3044:	a1 1d       	adc	r26, r1
    3046:	68 0f       	add	r22, r24
    3048:	79 1f       	adc	r23, r25
    304a:	8a 1f       	adc	r24, r26
    304c:	91 1d       	adc	r25, r1
    304e:	a1 1d       	adc	r26, r1
    3050:	6a 0f       	add	r22, r26
    3052:	71 1d       	adc	r23, r1
    3054:	81 1d       	adc	r24, r1
    3056:	91 1d       	adc	r25, r1
    3058:	a1 1d       	adc	r26, r1
    305a:	20 d0       	rcall	.+64     	; 0x309c <__ultoa_invert+0x84>
    305c:	09 f4       	brne	.+2      	; 0x3060 <__ultoa_invert+0x48>
    305e:	68 94       	set
    3060:	3f 91       	pop	r19
    3062:	2a e0       	ldi	r18, 0x0A	; 10
    3064:	26 9f       	mul	r18, r22
    3066:	11 24       	eor	r1, r1
    3068:	30 19       	sub	r19, r0
    306a:	30 5d       	subi	r19, 0xD0	; 208
    306c:	31 93       	st	Z+, r19
    306e:	de f6       	brtc	.-74     	; 0x3026 <__ultoa_invert+0xe>
    3070:	cf 01       	movw	r24, r30
    3072:	08 95       	ret
    3074:	46 2f       	mov	r20, r22
    3076:	47 70       	andi	r20, 0x07	; 7
    3078:	40 5d       	subi	r20, 0xD0	; 208
    307a:	41 93       	st	Z+, r20
    307c:	b3 e0       	ldi	r27, 0x03	; 3
    307e:	0f d0       	rcall	.+30     	; 0x309e <__ultoa_invert+0x86>
    3080:	c9 f7       	brne	.-14     	; 0x3074 <__ultoa_invert+0x5c>
    3082:	f6 cf       	rjmp	.-20     	; 0x3070 <__ultoa_invert+0x58>
    3084:	46 2f       	mov	r20, r22
    3086:	4f 70       	andi	r20, 0x0F	; 15
    3088:	40 5d       	subi	r20, 0xD0	; 208
    308a:	4a 33       	cpi	r20, 0x3A	; 58
    308c:	18 f0       	brcs	.+6      	; 0x3094 <__ultoa_invert+0x7c>
    308e:	49 5d       	subi	r20, 0xD9	; 217
    3090:	31 fd       	sbrc	r19, 1
    3092:	40 52       	subi	r20, 0x20	; 32
    3094:	41 93       	st	Z+, r20
    3096:	02 d0       	rcall	.+4      	; 0x309c <__ultoa_invert+0x84>
    3098:	a9 f7       	brne	.-22     	; 0x3084 <__ultoa_invert+0x6c>
    309a:	ea cf       	rjmp	.-44     	; 0x3070 <__ultoa_invert+0x58>
    309c:	b4 e0       	ldi	r27, 0x04	; 4
    309e:	a6 95       	lsr	r26
    30a0:	97 95       	ror	r25
    30a2:	87 95       	ror	r24
    30a4:	77 95       	ror	r23
    30a6:	67 95       	ror	r22
    30a8:	ba 95       	dec	r27
    30aa:	c9 f7       	brne	.-14     	; 0x309e <__ultoa_invert+0x86>
    30ac:	00 97       	sbiw	r24, 0x00	; 0
    30ae:	61 05       	cpc	r22, r1
    30b0:	71 05       	cpc	r23, r1
    30b2:	08 95       	ret
    30b4:	9b 01       	movw	r18, r22
    30b6:	ac 01       	movw	r20, r24
    30b8:	0a 2e       	mov	r0, r26
    30ba:	06 94       	lsr	r0
    30bc:	57 95       	ror	r21
    30be:	47 95       	ror	r20
    30c0:	37 95       	ror	r19
    30c2:	27 95       	ror	r18
    30c4:	ba 95       	dec	r27
    30c6:	c9 f7       	brne	.-14     	; 0x30ba <__ultoa_invert+0xa2>
    30c8:	62 0f       	add	r22, r18
    30ca:	73 1f       	adc	r23, r19
    30cc:	84 1f       	adc	r24, r20
    30ce:	95 1f       	adc	r25, r21
    30d0:	a0 1d       	adc	r26, r0
    30d2:	08 95       	ret

000030d4 <__prologue_saves__>:
    30d4:	2f 92       	push	r2
    30d6:	3f 92       	push	r3
    30d8:	4f 92       	push	r4
    30da:	5f 92       	push	r5
    30dc:	6f 92       	push	r6
    30de:	7f 92       	push	r7
    30e0:	8f 92       	push	r8
    30e2:	9f 92       	push	r9
    30e4:	af 92       	push	r10
    30e6:	bf 92       	push	r11
    30e8:	cf 92       	push	r12
    30ea:	df 92       	push	r13
    30ec:	ef 92       	push	r14
    30ee:	ff 92       	push	r15
    30f0:	0f 93       	push	r16
    30f2:	1f 93       	push	r17
    30f4:	cf 93       	push	r28
    30f6:	df 93       	push	r29
    30f8:	cd b7       	in	r28, 0x3d	; 61
    30fa:	de b7       	in	r29, 0x3e	; 62
    30fc:	ca 1b       	sub	r28, r26
    30fe:	db 0b       	sbc	r29, r27
    3100:	0f b6       	in	r0, 0x3f	; 63
    3102:	f8 94       	cli
    3104:	de bf       	out	0x3e, r29	; 62
    3106:	0f be       	out	0x3f, r0	; 63
    3108:	cd bf       	out	0x3d, r28	; 61
    310a:	09 94       	ijmp

0000310c <__epilogue_restores__>:
    310c:	2a 88       	ldd	r2, Y+18	; 0x12
    310e:	39 88       	ldd	r3, Y+17	; 0x11
    3110:	48 88       	ldd	r4, Y+16	; 0x10
    3112:	5f 84       	ldd	r5, Y+15	; 0x0f
    3114:	6e 84       	ldd	r6, Y+14	; 0x0e
    3116:	7d 84       	ldd	r7, Y+13	; 0x0d
    3118:	8c 84       	ldd	r8, Y+12	; 0x0c
    311a:	9b 84       	ldd	r9, Y+11	; 0x0b
    311c:	aa 84       	ldd	r10, Y+10	; 0x0a
    311e:	b9 84       	ldd	r11, Y+9	; 0x09
    3120:	c8 84       	ldd	r12, Y+8	; 0x08
    3122:	df 80       	ldd	r13, Y+7	; 0x07
    3124:	ee 80       	ldd	r14, Y+6	; 0x06
    3126:	fd 80       	ldd	r15, Y+5	; 0x05
    3128:	0c 81       	ldd	r16, Y+4	; 0x04
    312a:	1b 81       	ldd	r17, Y+3	; 0x03
    312c:	aa 81       	ldd	r26, Y+2	; 0x02
    312e:	b9 81       	ldd	r27, Y+1	; 0x01
    3130:	ce 0f       	add	r28, r30
    3132:	d1 1d       	adc	r29, r1
    3134:	0f b6       	in	r0, 0x3f	; 63
    3136:	f8 94       	cli
    3138:	de bf       	out	0x3e, r29	; 62
    313a:	0f be       	out	0x3f, r0	; 63
    313c:	cd bf       	out	0x3d, r28	; 61
    313e:	ed 01       	movw	r28, r26
    3140:	08 95       	ret

00003142 <_exit>:
    3142:	f8 94       	cli

00003144 <__stop_program>:
    3144:	ff cf       	rjmp	.-2      	; 0x3144 <__stop_program>
